; Listing generated by Microsoft (R) Optimizing Compiler Version 19.00.24215.1 

include listing.inc

INCLUDELIB MSVCRTD
INCLUDELIB OLDNAMES

CONST	SEGMENT
$SG100420 DB	'C:\Qt\Qt5.9.3\5.9.3\msvc2015_64\include\QtCore/qmetatype'
	DB	'.h', 00H
	ORG $+5
$SG100421 DB	'qRegisterNormalizedMetaType was called with a not normal'
	DB	'ized type name, please call qRegisterMetaType instead.', 00H
	ORG $+1
$SG100422 DB	'qRegisterNormalizedMetaType', 00H
	ORG $+4
?qt_meta_stringdata_CVisionimagetool@@3Uqt_meta_stringdata_CVisionimagetool_t@@B DD 0ffffffffH ; qt_meta_stringdata_CVisionimagetool
	DD	010H
	DD	00H
	ORG $+4
	DQ	0000000000000018H
	DB	'CVisionimagetool', 00H
	ORG $+7
?qt_meta_data_CVisionimagetool@@3QBIB DD 07H		; qt_meta_data_CVisionimagetool
	DD	00H
	DD	00H
	DD	00H
	DD	00H
	DD	00H
	DD	00H
	DD	00H
	DD	00H
	DD	00H
	DD	00H
	DD	00H
	DD	00H
	DD	00H
	DD	00H
	ORG $+4
$SG85153 DB	'IUIPlugin', 00H
	ORG $+6
$SG85155 DB	'INotify', 00H
$SG85157 DB	'com.bj.Plugin.IPlugin/1.0', 00H
	ORG $+6
$SG85159 DB	'com.bj.Plugin.IUIPlugin/1.0', 00H
	ORG $+4
$SG85161 DB	'com.bj.Plugin.INotify/1.0', 00H
	ORG $+6
$SG100722 DB	'C:\Qt\Qt5.9.3\5.9.3\msvc2015_64\include\QtCore/qmetatype'
	DB	'.h', 00H
	ORG $+5
$SG100724 DB	'qRegisterNormalizedMetaType', 00H
	ORG $+12
$SG100723 DB	'qRegisterNormalizedMetaType was called with a not normal'
	DB	'ized type name, please call qRegisterMetaType instead.', 00H
	ORG $+1
$SG101024 DB	'C:\Qt\Qt5.9.3\5.9.3\msvc2015_64\include\QtCore/qmetatype'
	DB	'.h', 00H
	ORG $+5
$SG101025 DB	'qRegisterNormalizedMetaType was called with a not normal'
	DB	'ized type name, please call qRegisterMetaType instead.', 00H
	ORG $+1
$SG101026 DB	'qRegisterNormalizedMetaType', 00H
CONST	ENDS
PUBLIC	?__empty_global_delete@@YAXPEAX@Z		; __empty_global_delete
PUBLIC	?__empty_global_delete@@YAXPEAX_K@Z		; __empty_global_delete
PUBLIC	??C?$QScopedPointer@VQObjectData@@U?$QScopedPointerDeleter@VQObjectData@@@@@@QEBAPEAVQObjectData@@XZ ; QScopedPointer<QObjectData,QScopedPointerDeleter<QObjectData> >::operator->
PUBLIC	?metaObject@CVisionimagetool@@UEBAPEBUQMetaObject@@XZ ; CVisionimagetool::metaObject
PUBLIC	?qt_metacast@CVisionimagetool@@UEAAPEAXPEBD@Z	; CVisionimagetool::qt_metacast
PUBLIC	?qt_metacall@CVisionimagetool@@UEAAHW4Call@QMetaObject@@HPEAPEAX@Z ; CVisionimagetool::qt_metacall
PUBLIC	?qt_static_metacall@CVisionimagetool@@CAXPEAVQObject@@W4Call@QMetaObject@@HPEAPEAX@Z ; CVisionimagetool::qt_static_metacall
PUBLIC	?staticMetaObject@CVisionimagetool@@2UQMetaObject@@B ; CVisionimagetool::staticMetaObject
EXTRN	strcmp:PROC
EXTRN	__imp_?dynamicMetaObject@QObjectData@@QEBAPEAUQMetaObject@@XZ:PROC
EXTRN	__imp_?qt_metacast@QObject@@UEAAPEAXPEBD@Z:PROC
EXTRN	__imp_?qt_metacall@QObject@@UEAAHW4Call@QMetaObject@@HPEAPEAX@Z:PROC
EXTRN	__imp_?staticMetaObject@QObject@@2UQMetaObject@@B:BYTE
_BSS	SEGMENT
?staticMetaObject@CVisionimagetool@@2UQMetaObject@@B DB 030H DUP (?) ; CVisionimagetool::staticMetaObject
_BSS	ENDS
pdata	SEGMENT
$pdata$?metaObject@CVisionimagetool@@UEBAPEBUQMetaObject@@XZ DD imagerel $LN5
	DD	imagerel $LN5+88
	DD	imagerel $unwind$?metaObject@CVisionimagetool@@UEBAPEBUQMetaObject@@XZ
$pdata$?qt_metacast@CVisionimagetool@@UEAAPEAXPEBD@Z DD imagerel $LN20
	DD	imagerel $LN20+395
	DD	imagerel $unwind$?qt_metacast@CVisionimagetool@@UEAAPEAXPEBD@Z
$pdata$?qt_metacall@CVisionimagetool@@UEAAHW4Call@QMetaObject@@HPEAPEAX@Z DD imagerel $LN3
	DD	imagerel $LN3+61
	DD	imagerel $unwind$?qt_metacall@CVisionimagetool@@UEAAHW4Call@QMetaObject@@HPEAPEAX@Z
pdata	ENDS
CRT$XCU	SEGMENT
??staticMetaObject$initializer$@CVisionimagetool@@2P6AXXZEA@@3P6AXXZEA DQ FLAT:??__E?staticMetaObject@CVisionimagetool@@2UQMetaObject@@B@@YAXXZ ; ??staticMetaObject$initializer$@CVisionimagetool@@2P6AXXZEA@@3P6AXXZEA
CRT$XCU	ENDS
xdata	SEGMENT
$unwind$?metaObject@CVisionimagetool@@UEBAPEBUQMetaObject@@XZ DD 010901H
	DD	06209H
$unwind$?qt_metacast@CVisionimagetool@@UEAAPEAXPEBD@Z DD 010e01H
	DD	0a20eH
$unwind$?qt_metacall@CVisionimagetool@@UEAAHW4Call@QMetaObject@@HPEAPEAX@Z DD 011701H
	DD	04217H
xdata	ENDS
; Function compile flags: /Odtp
;	COMDAT ??__E?staticMetaObject@CVisionimagetool@@2UQMetaObject@@B@@YAXXZ
text$di	SEGMENT
??__E?staticMetaObject@CVisionimagetool@@2UQMetaObject@@B@@YAXXZ PROC ; `dynamic initializer for 'CVisionimagetool::staticMetaObject'', COMDAT
; File e:\g12_work\weidali_code\b\g12_4_b\ui\src\visionimageuitool\x64\debug\moc\moc_visionimagetool.cpp
; Line 66
	mov	rax, QWORD PTR __imp_?staticMetaObject@QObject@@2UQMetaObject@@B
	mov	QWORD PTR ?staticMetaObject@CVisionimagetool@@2UQMetaObject@@B, rax
	lea	rax, OFFSET FLAT:?qt_meta_stringdata_CVisionimagetool@@3Uqt_meta_stringdata_CVisionimagetool_t@@B
	mov	QWORD PTR ?staticMetaObject@CVisionimagetool@@2UQMetaObject@@B+8, rax
; Line 67
	lea	rax, OFFSET FLAT:?qt_meta_data_CVisionimagetool@@3QBIB
	mov	QWORD PTR ?staticMetaObject@CVisionimagetool@@2UQMetaObject@@B+16, rax
	lea	rax, OFFSET FLAT:?qt_static_metacall@CVisionimagetool@@CAXPEAVQObject@@W4Call@QMetaObject@@HPEAPEAX@Z ; CVisionimagetool::qt_static_metacall
	mov	QWORD PTR ?staticMetaObject@CVisionimagetool@@2UQMetaObject@@B+24, rax
	mov	QWORD PTR ?staticMetaObject@CVisionimagetool@@2UQMetaObject@@B+32, 0
	mov	QWORD PTR ?staticMetaObject@CVisionimagetool@@2UQMetaObject@@B+40, 0
	ret	0
??__E?staticMetaObject@CVisionimagetool@@2UQMetaObject@@B@@YAXXZ ENDP ; `dynamic initializer for 'CVisionimagetool::staticMetaObject''
text$di	ENDS
; Function compile flags: /Odtp
_TEXT	SEGMENT
_o$ = 8
_c$ = 16
_id$ = 24
_a$ = 32
?qt_static_metacall@CVisionimagetool@@CAXPEAVQObject@@W4Call@QMetaObject@@HPEAPEAX@Z PROC ; CVisionimagetool::qt_static_metacall
; File e:\g12_work\weidali_code\b\g12_4_b\ui\src\visionimageuitool\x64\debug\moc\moc_visionimagetool.cpp
; Line 58
	mov	QWORD PTR [rsp+32], r9
	mov	DWORD PTR [rsp+24], r8d
	mov	DWORD PTR [rsp+16], edx
	mov	QWORD PTR [rsp+8], rcx
; Line 63
	ret	0
?qt_static_metacall@CVisionimagetool@@CAXPEAVQObject@@W4Call@QMetaObject@@HPEAPEAX@Z ENDP ; CVisionimagetool::qt_static_metacall
_TEXT	ENDS
; Function compile flags: /Odtp
_TEXT	SEGMENT
this$ = 48
_c$ = 56
_id$ = 64
_a$ = 72
?qt_metacall@CVisionimagetool@@UEAAHW4Call@QMetaObject@@HPEAPEAX@Z PROC ; CVisionimagetool::qt_metacall
; File e:\g12_work\weidali_code\b\g12_4_b\ui\src\visionimageuitool\x64\debug\moc\moc_visionimagetool.cpp
; Line 95
$LN3:
	mov	QWORD PTR [rsp+32], r9
	mov	DWORD PTR [rsp+24], r8d
	mov	DWORD PTR [rsp+16], edx
	mov	QWORD PTR [rsp+8], rcx
	sub	rsp, 40					; 00000028H
; Line 96
	mov	r9, QWORD PTR _a$[rsp]
	mov	r8d, DWORD PTR _id$[rsp]
	mov	edx, DWORD PTR _c$[rsp]
	mov	rcx, QWORD PTR this$[rsp]
	call	QWORD PTR __imp_?qt_metacall@QObject@@UEAAHW4Call@QMetaObject@@HPEAPEAX@Z
	mov	DWORD PTR _id$[rsp], eax
; Line 97
	mov	eax, DWORD PTR _id$[rsp]
; Line 98
	add	rsp, 40					; 00000028H
	ret	0
?qt_metacall@CVisionimagetool@@UEAAHW4Call@QMetaObject@@HPEAPEAX@Z ENDP ; CVisionimagetool::qt_metacall
_TEXT	ENDS
; Function compile flags: /Odtp
_TEXT	SEGMENT
tv77 = 32
tv87 = 40
tv129 = 48
tv139 = 56
tv149 = 64
this$ = 96
_clname$ = 104
?qt_metacast@CVisionimagetool@@UEAAPEAXPEBD@Z PROC	; CVisionimagetool::qt_metacast
; File e:\g12_work\weidali_code\b\g12_4_b\ui\src\visionimageuitool\x64\debug\moc\moc_visionimagetool.cpp
; Line 77
$LN20:
	mov	QWORD PTR [rsp+16], rdx
	mov	QWORD PTR [rsp+8], rcx
	sub	rsp, 88					; 00000058H
; Line 78
	cmp	QWORD PTR _clname$[rsp], 0
	jne	SHORT $LN2@qt_metacas
	xor	eax, eax
	jmp	$LN1@qt_metacas
$LN2@qt_metacas:
; Line 79
	lea	rdx, OFFSET FLAT:?qt_meta_stringdata_CVisionimagetool@@3Uqt_meta_stringdata_CVisionimagetool_t@@B+24
	mov	rcx, QWORD PTR _clname$[rsp]
	call	strcmp
	test	eax, eax
	jne	SHORT $LN3@qt_metacas
; Line 80
	mov	rax, QWORD PTR this$[rsp]
	jmp	$LN1@qt_metacas
$LN3@qt_metacas:
; Line 81
	lea	rdx, OFFSET FLAT:$SG85153
	mov	rcx, QWORD PTR _clname$[rsp]
	call	strcmp
	test	eax, eax
	jne	SHORT $LN4@qt_metacas
; Line 82
	cmp	QWORD PTR this$[rsp], 0
	je	SHORT $LN10@qt_metacas
	mov	rax, QWORD PTR this$[rsp]
	add	rax, 16
	mov	QWORD PTR tv77[rsp], rax
	jmp	SHORT $LN11@qt_metacas
$LN10@qt_metacas:
	mov	QWORD PTR tv77[rsp], 0
$LN11@qt_metacas:
	mov	rax, QWORD PTR tv77[rsp]
	jmp	$LN1@qt_metacas
$LN4@qt_metacas:
; Line 83
	lea	rdx, OFFSET FLAT:$SG85155
	mov	rcx, QWORD PTR _clname$[rsp]
	call	strcmp
	test	eax, eax
	jne	SHORT $LN5@qt_metacas
; Line 84
	cmp	QWORD PTR this$[rsp], 0
	je	SHORT $LN12@qt_metacas
	mov	rax, QWORD PTR this$[rsp]
	add	rax, 24
	mov	QWORD PTR tv87[rsp], rax
	jmp	SHORT $LN13@qt_metacas
$LN12@qt_metacas:
	mov	QWORD PTR tv87[rsp], 0
$LN13@qt_metacas:
	mov	rax, QWORD PTR tv87[rsp]
	jmp	$LN1@qt_metacas
$LN5@qt_metacas:
; Line 85
	lea	rdx, OFFSET FLAT:$SG85157
	mov	rcx, QWORD PTR _clname$[rsp]
	call	strcmp
	test	eax, eax
	jne	SHORT $LN6@qt_metacas
; Line 86
	cmp	QWORD PTR this$[rsp], 0
	je	SHORT $LN14@qt_metacas
	mov	rax, QWORD PTR this$[rsp]
	add	rax, 16
	mov	QWORD PTR tv129[rsp], rax
	jmp	SHORT $LN15@qt_metacas
$LN14@qt_metacas:
	mov	QWORD PTR tv129[rsp], 0
$LN15@qt_metacas:
	mov	rax, QWORD PTR tv129[rsp]
	jmp	$LN1@qt_metacas
$LN6@qt_metacas:
; Line 87
	lea	rdx, OFFSET FLAT:$SG85159
	mov	rcx, QWORD PTR _clname$[rsp]
	call	strcmp
	test	eax, eax
	jne	SHORT $LN7@qt_metacas
; Line 88
	cmp	QWORD PTR this$[rsp], 0
	je	SHORT $LN16@qt_metacas
	mov	rax, QWORD PTR this$[rsp]
	add	rax, 16
	mov	QWORD PTR tv139[rsp], rax
	jmp	SHORT $LN17@qt_metacas
$LN16@qt_metacas:
	mov	QWORD PTR tv139[rsp], 0
$LN17@qt_metacas:
	mov	rax, QWORD PTR tv139[rsp]
	jmp	SHORT $LN1@qt_metacas
$LN7@qt_metacas:
; Line 89
	lea	rdx, OFFSET FLAT:$SG85161
	mov	rcx, QWORD PTR _clname$[rsp]
	call	strcmp
	test	eax, eax
	jne	SHORT $LN8@qt_metacas
; Line 90
	cmp	QWORD PTR this$[rsp], 0
	je	SHORT $LN18@qt_metacas
	mov	rax, QWORD PTR this$[rsp]
	add	rax, 24
	mov	QWORD PTR tv149[rsp], rax
	jmp	SHORT $LN19@qt_metacas
$LN18@qt_metacas:
	mov	QWORD PTR tv149[rsp], 0
$LN19@qt_metacas:
	mov	rax, QWORD PTR tv149[rsp]
	jmp	SHORT $LN1@qt_metacas
$LN8@qt_metacas:
; Line 91
	mov	rdx, QWORD PTR _clname$[rsp]
	mov	rcx, QWORD PTR this$[rsp]
	call	QWORD PTR __imp_?qt_metacast@QObject@@UEAAPEAXPEBD@Z
$LN1@qt_metacas:
; Line 92
	add	rsp, 88					; 00000058H
	ret	0
?qt_metacast@CVisionimagetool@@UEAAPEAXPEBD@Z ENDP	; CVisionimagetool::qt_metacast
_TEXT	ENDS
; Function compile flags: /Odtp
_TEXT	SEGMENT
tv82 = 32
this$ = 64
?metaObject@CVisionimagetool@@UEBAPEBUQMetaObject@@XZ PROC ; CVisionimagetool::metaObject
; File e:\g12_work\weidali_code\b\g12_4_b\ui\src\visionimageuitool\x64\debug\moc\moc_visionimagetool.cpp
; Line 72
$LN5:
	mov	QWORD PTR [rsp+8], rcx
	sub	rsp, 56					; 00000038H
; Line 73
	mov	rax, QWORD PTR this$[rsp]
	add	rax, 8
	mov	rcx, rax
	call	??C?$QScopedPointer@VQObjectData@@U?$QScopedPointerDeleter@VQObjectData@@@@@@QEBAPEAVQObjectData@@XZ ; QScopedPointer<QObjectData,QScopedPointerDeleter<QObjectData> >::operator->
	cmp	QWORD PTR [rax+40], 0
	je	SHORT $LN3@metaObject
	mov	rax, QWORD PTR this$[rsp]
	add	rax, 8
	mov	rcx, rax
	call	??C?$QScopedPointer@VQObjectData@@U?$QScopedPointerDeleter@VQObjectData@@@@@@QEBAPEAVQObjectData@@XZ ; QScopedPointer<QObjectData,QScopedPointerDeleter<QObjectData> >::operator->
	mov	rcx, rax
	call	QWORD PTR __imp_?dynamicMetaObject@QObjectData@@QEBAPEAUQMetaObject@@XZ
	mov	QWORD PTR tv82[rsp], rax
	jmp	SHORT $LN4@metaObject
$LN3@metaObject:
	lea	rax, OFFSET FLAT:?staticMetaObject@CVisionimagetool@@2UQMetaObject@@B ; CVisionimagetool::staticMetaObject
	mov	QWORD PTR tv82[rsp], rax
$LN4@metaObject:
	mov	rax, QWORD PTR tv82[rsp]
; Line 74
	add	rsp, 56					; 00000038H
	ret	0
?metaObject@CVisionimagetool@@UEBAPEBUQMetaObject@@XZ ENDP ; CVisionimagetool::metaObject
_TEXT	ENDS
; Function compile flags: /Odtp
;	COMDAT ??C?$QScopedPointer@VQObjectData@@U?$QScopedPointerDeleter@VQObjectData@@@@@@QEBAPEAVQObjectData@@XZ
_TEXT	SEGMENT
this$ = 8
??C?$QScopedPointer@VQObjectData@@U?$QScopedPointerDeleter@VQObjectData@@@@@@QEBAPEAVQObjectData@@XZ PROC ; QScopedPointer<QObjectData,QScopedPointerDeleter<QObjectData> >::operator->, COMDAT
; File c:\qt\qt5.9.3\5.9.3\msvc2015_64\include\qtcore\qscopedpointer.h
; Line 117
	mov	QWORD PTR [rsp+8], rcx
; Line 118
	mov	rax, QWORD PTR this$[rsp]
	mov	rax, QWORD PTR [rax]
; Line 119
	ret	0
??C?$QScopedPointer@VQObjectData@@U?$QScopedPointerDeleter@VQObjectData@@@@@@QEBAPEAVQObjectData@@XZ ENDP ; QScopedPointer<QObjectData,QScopedPointerDeleter<QObjectData> >::operator->
_TEXT	ENDS
; Function compile flags: /Odtp
;	COMDAT ?__empty_global_delete@@YAXPEAX_K@Z
_TEXT	SEGMENT
__formal$ = 8
__formal$ = 16
?__empty_global_delete@@YAXPEAX_K@Z PROC		; __empty_global_delete, COMDAT
; File e:\g12_work\weidali_code\b\g12_4_b\ui\src\visionimageuitool\x64\debug\moc\moc_visionimagetool.cpp
; Line 101
	mov	QWORD PTR [rsp+16], rdx
	mov	QWORD PTR [rsp+8], rcx
	ret	0
?__empty_global_delete@@YAXPEAX_K@Z ENDP		; __empty_global_delete
_TEXT	ENDS
; Function compile flags: /Odtp
;	COMDAT ?__empty_global_delete@@YAXPEAX@Z
_TEXT	SEGMENT
__formal$ = 8
?__empty_global_delete@@YAXPEAX@Z PROC			; __empty_global_delete, COMDAT
; File e:\g12_work\weidali_code\b\g12_4_b\ui\src\visionimageuitool\x64\debug\moc\moc_visionimagetool.cpp
; Line 101
	mov	QWORD PTR [rsp+8], rcx
	ret	0
?__empty_global_delete@@YAXPEAX@Z ENDP			; __empty_global_delete
_TEXT	ENDS
END
