; Listing generated by Microsoft (R) Optimizing Compiler Version 19.00.24215.1 

include listing.inc

INCLUDELIB MSVCRTD
INCLUDELIB OLDNAMES

CONST	SEGMENT
$SG141341 DB	'C:\Qt\Qt5.9.3\5.9.3\msvc2015_64\include\QtCore/qmetatype'
	DB	'.h', 00H
	ORG $+5
$SG141342 DB	'qRegisterNormalizedMetaType was called with a not normal'
	DB	'ized type name, please call qRegisterMetaType instead.', 00H
	ORG $+1
$SG141343 DB	'qRegisterNormalizedMetaType', 00H
	ORG $+4
?qt_meta_stringdata_ImageWindow@@3Uqt_meta_stringdata_ImageWindow_t@@B DD 0ffffffffH ; qt_meta_stringdata_ImageWindow
	DD	0bH
	DD	00H
	ORG $+4
	DQ	0000000000000510H
	DD	0ffffffffH
	DD	013H
	DD	00H
	ORG $+4
	DQ	0000000000000504H
	DD	0ffffffffH
	DD	00H
	DD	00H
	ORG $+4
	DQ	0000000000000500H
	DD	0ffffffffH
	DD	018H
	DD	00H
	ORG $+4
	DQ	00000000000004e9H
	DD	0ffffffffH
	DD	08H
	DD	00H
	ORG $+4
	DQ	00000000000004eaH
	DD	0ffffffffH
	DD	014H
	DD	00H
	ORG $+4
	DQ	00000000000004dbH
	DD	0ffffffffH
	DD	05H
	DD	00H
	ORG $+4
	DQ	00000000000004d8H
	DD	0ffffffffH
	DD	01cH
	DD	00H
	ORG $+4
	DQ	00000000000004c6H
	DD	0ffffffffH
	DD	07H
	DD	00H
	ORG $+4
	DQ	00000000000004cbH
	DD	0ffffffffH
	DD	01cH
	DD	00H
	ORG $+4
	DQ	00000000000004bbH
	DD	0ffffffffH
	DD	019H
	DD	00H
	ORG $+4
	DQ	00000000000004c0H
	DD	0ffffffffH
	DD	01aH
	DD	00H
	ORG $+4
	DQ	00000000000004c2H
	DD	0ffffffffH
	DD	01bH
	DD	00H
	ORG $+4
	DQ	00000000000004c5H
	DD	0ffffffffH
	DD	01fH
	DD	00H
	ORG $+4
	DQ	00000000000004c9H
	DD	0ffffffffH
	DD	01cH
	DD	00H
	ORG $+4
	DQ	00000000000004d1H
	DD	0ffffffffH
	DD	01fH
	DD	00H
	ORG $+4
	DQ	00000000000004d6H
	DD	0ffffffffH
	DD	01cH
	DD	00H
	ORG $+4
	DQ	00000000000004deH
	DD	0ffffffffH
	DD	019H
	DD	00H
	ORG $+4
	DQ	00000000000004e3H
	DD	0ffffffffH
	DD	01bH
	DD	00H
	ORG $+4
	DQ	00000000000004e5H
	DD	0ffffffffH
	DD	01cH
	DD	00H
	ORG $+4
	DQ	00000000000004e9H
	DD	0ffffffffH
	DD	01bH
	DD	00H
	ORG $+4
	DQ	00000000000004eeH
	DD	0ffffffffH
	DD	01cH
	DD	00H
	ORG $+4
	DQ	00000000000004f2H
	DD	0ffffffffH
	DD	01eH
	DD	00H
	ORG $+4
	DQ	00000000000004f7H
	DD	0ffffffffH
	DD	01fH
	DD	00H
	ORG $+4
	DQ	00000000000004feH
	DD	0ffffffffH
	DD	01eH
	DD	00H
	ORG $+4
	DQ	0000000000000506H
	DD	0ffffffffH
	DD	01dH
	DD	00H
	ORG $+4
	DQ	000000000000050dH
	DD	0ffffffffH
	DD	01cH
	DD	00H
	ORG $+4
	DQ	0000000000000513H
	DD	0ffffffffH
	DD	01bH
	DD	00H
	ORG $+4
	DQ	0000000000000518H
	DD	0ffffffffH
	DD	01dH
	DD	00H
	ORG $+4
	DQ	000000000000051cH
	DD	0ffffffffH
	DD	01dH
	DD	00H
	ORG $+4
	DQ	0000000000000522H
	DD	0ffffffffH
	DD	01cH
	DD	00H
	ORG $+4
	DQ	0000000000000528H
	DD	0ffffffffH
	DD	01eH
	DD	00H
	ORG $+4
	DQ	000000000000052dH
	DD	0ffffffffH
	DD	01bH
	DD	00H
	ORG $+4
	DQ	0000000000000534H
	DD	0ffffffffH
	DD	013H
	DD	00H
	ORG $+4
	DQ	0000000000000538H
	DD	0ffffffffH
	DD	08H
	DD	00H
	ORG $+4
	DQ	0000000000000534H
	DD	0ffffffffH
	DD	01cH
	DD	00H
	ORG $+4
	DQ	0000000000000525H
	DD	0ffffffffH
	DD	01bH
	DD	00H
	ORG $+4
	DQ	000000000000052aH
	DD	0ffffffffH
	DD	03H
	DD	00H
	ORG $+4
	DQ	000000000000052eH
	DD	0ffffffffH
	DD	015H
	DD	00H
	ORG $+4
	DQ	000000000000051aH
	DD	0ffffffffH
	DD	012H
	DD	00H
	ORG $+4
	DQ	0000000000000518H
	DD	0ffffffffH
	DD	01dH
	DD	00H
	ORG $+4
	DQ	0000000000000513H
	DD	0ffffffffH
	DD	018H
	DD	00H
	ORG $+4
	DQ	0000000000000519H
	DD	0ffffffffH
	DD	0fH
	DD	00H
	ORG $+4
	DQ	000000000000051aH
	DD	0ffffffffH
	DD	01eH
	DD	00H
	ORG $+4
	DQ	0000000000000512H
	DD	0ffffffffH
	DD	05H
	DD	00H
	ORG $+4
	DQ	0000000000000519H
	DD	0ffffffffH
	DD	01dH
	DD	00H
	ORG $+4
	DQ	0000000000000507H
	DD	0ffffffffH
	DD	020H
	DD	00H
	ORG $+4
	DQ	000000000000050dH
	DD	0ffffffffH
	DD	017H
	DD	00H
	ORG $+4
	DQ	0000000000000516H
	DD	0ffffffffH
	DD	019H
	DD	00H
	ORG $+4
	DQ	0000000000000516H
	DD	0ffffffffH
	DD	014H
	DD	00H
	ORG $+4
	DQ	0000000000000518H
	DD	0ffffffffH
	DD	019H
	DD	00H
	ORG $+4
	DQ	0000000000000515H
	DD	0ffffffffH
	DD	014H
	DD	00H
	ORG $+4
	DQ	0000000000000517H
	DD	0ffffffffH
	DD	08H
	DD	00H
	ORG $+4
	DQ	0000000000000514H
	DD	0ffffffffH
	DD	013H
	DD	00H
	ORG $+4
	DQ	0000000000000505H
	DB	'ImageWindow', 00H, 'sigItemMoveFinished', 00H, 00H, 'sig'
	DB	'ItemRBtDoubleCliecked', 00H, 'QPointF&', 00H, 'sigItemSelectC'
	DB	'hanged', 00H, 'index', 00H, 'on_actionOpenImage_triggered', 00H
	DB	'checked', 00H, 'on_actionSaveImage_triggered', 00H, 'on_actio'
	DB	'nZoomIn_triggered', 00H, 'on_actionZoomOut_triggered', 00H, 'o'
	DB	'n_actionFullView_triggered', 00H, 'on_actionOriginalSize_trig'
	DB	'gered', 00H, 'on_actionDeleteAll_triggered', 00H, 'on_actionD'
	DB	'eleteSelect_triggered', 00H, 'on_actionSelectAll_triggered', 00H
	DB	'on_actionMoveUp_triggered', 00H, 'on_actionMoveDown_triggered'
	DB	00H, 'on_actionMoveRight_triggered', 00H, 'on_actionMoveLeft_t'
	DB	'riggered', 00H, 'on_actionMoveUpPix_triggered', 00H, 'on_acti'
	DB	'onMoveDownPix_triggered', 00H, 'on_actionMoveRightPix_trigger'
	DB	'ed', 00H, 'on_actionMoveLeftPix_triggered', 00H, 'on_actionCl'
	DB	'earImage_triggered', 00H, 'on_actionCopyShape_triggered', 00H
	DB	'on_actionCutShape_triggered', 00H, 'on_actionPasteShape_trigg'
	DB	'ered', 00H, 'on_actionSelectNext_triggered', 00H, 'on_actionS'
	DB	'electPre_triggered', 00H, 'on_actionCenterCross_triggered', 00H
	DB	'on_actionClearRoi_triggered', 00H, 'on_action_triggered', 00H
	DB	'QAction*', 00H, 'on_actionUndoStack_triggered', 00H, 'slotSta'
	DB	'tusBarShowCoordinate', 00H, 'pos', 00H, 'slotStatusBarShowGar'
	DB	'y', 00H, 'slotStatusBarScale', 00H, 'slotStatusBarImageSizeCh'
	DB	'angle', 00H, 'slotStatusBarSelectCount', 00H, 'slotTimerHandl'
	DB	'e', 00H, 'on_checkBox_arrow_stateChanged', 00H, 'state', 00H, 'o'
	DB	'n_checkBox_grid_stateChanged', 00H, 'on_toolButton_modifySize'
	DB	'_clicked', 00H, 'slot_showSelectItemData', 00H, 'on_action_co'
	DB	'lor_triggered', 00H, 'slotItemMoveFinished', 00H, 'slotItemRB'
	DB	'tDoubleCliecked', 00H, 'slotLineWidthChangle', 00H, 'strWidth'
	DB	00H, 'slotFontSizeChangle', 00H
	ORG $+7
$SG142486 DB	'C:\Qt\Qt5.9.3\5.9.3\msvc2015_64\include\QtCore/qmetatype'
	DB	'.h', 00H
	ORG $+13
$SG142487 DB	'qRegisterNormalizedMetaType was called with a not normal'
	DB	'ized type name, please call qRegisterMetaType instead.', 00H
	ORG $+1
$SG142488 DB	'qRegisterNormalizedMetaType', 00H
	ORG $+4
?qt_meta_data_ImageWindow@@3QBIB DD 07H			; qt_meta_data_ImageWindow
	DD	00H
	DD	00H
	DD	00H
	DD	02dH
	DD	0eH
	DD	00H
	DD	00H
	DD	00H
	DD	00H
	DD	00H
	DD	00H
	DD	00H
	DD	03H
	DD	01H
	DD	00H
	DD	0efH
	DD	02H
	DD	06H
	DD	03H
	DD	01H
	DD	0f0H
	DD	02H
	DD	06H
	DD	05H
	DD	01H
	DD	0f3H
	DD	02H
	DD	06H
	DD	07H
	DD	01H
	DD	0f6H
	DD	02H
	DD	09H
	DD	09H
	DD	01H
	DD	0f9H
	DD	02H
	DD	09H
	DD	0aH
	DD	01H
	DD	0fcH
	DD	02H
	DD	09H
	DD	0bH
	DD	01H
	DD	0ffH
	DD	02H
	DD	09H
	DD	0cH
	DD	01H
	DD	0102H
	DD	02H
	DD	09H
	DD	0dH
	DD	01H
	DD	0105H
	DD	02H
	DD	09H
	DD	0eH
	DD	01H
	DD	0108H
	DD	02H
	DD	09H
	DD	0fH
	DD	01H
	DD	010bH
	DD	02H
	DD	09H
	DD	010H
	DD	01H
	DD	010eH
	DD	02H
	DD	09H
	DD	011H
	DD	01H
	DD	0111H
	DD	02H
	DD	09H
	DD	012H
	DD	01H
	DD	0114H
	DD	02H
	DD	09H
	DD	013H
	DD	01H
	DD	0117H
	DD	02H
	DD	09H
	DD	014H
	DD	01H
	DD	011aH
	DD	02H
	DD	09H
	DD	015H
	DD	01H
	DD	011dH
	DD	02H
	DD	09H
	DD	016H
	DD	01H
	DD	0120H
	DD	02H
	DD	09H
	DD	017H
	DD	01H
	DD	0123H
	DD	02H
	DD	09H
	DD	018H
	DD	01H
	DD	0126H
	DD	02H
	DD	09H
	DD	019H
	DD	01H
	DD	0129H
	DD	02H
	DD	09H
	DD	01aH
	DD	01H
	DD	012cH
	DD	02H
	DD	09H
	DD	01bH
	DD	01H
	DD	012fH
	DD	02H
	DD	09H
	DD	01cH
	DD	01H
	DD	0132H
	DD	02H
	DD	09H
	DD	01dH
	DD	01H
	DD	0135H
	DD	02H
	DD	09H
	DD	01eH
	DD	01H
	DD	0138H
	DD	02H
	DD	09H
	DD	01fH
	DD	01H
	DD	013bH
	DD	02H
	DD	09H
	DD	020H
	DD	01H
	DD	013eH
	DD	02H
	DD	09H
	DD	021H
	DD	01H
	DD	0141H
	DD	02H
	DD	09H
	DD	023H
	DD	01H
	DD	0144H
	DD	02H
	DD	09H
	DD	024H
	DD	01H
	DD	0147H
	DD	02H
	DD	09H
	DD	026H
	DD	01H
	DD	014aH
	DD	02H
	DD	09H
	DD	027H
	DD	01H
	DD	014dH
	DD	02H
	DD	09H
	DD	028H
	DD	02H
	DD	0150H
	DD	02H
	DD	09H
	DD	029H
	DD	00H
	DD	0155H
	DD	02H
	DD	09H
	DD	02aH
	DD	00H
	DD	0156H
	DD	02H
	DD	09H
	DD	02bH
	DD	01H
	DD	0157H
	DD	02H
	DD	09H
	DD	02dH
	DD	01H
	DD	015aH
	DD	02H
	DD	09H
	DD	02eH
	DD	00H
	DD	015dH
	DD	02H
	DD	09H
	DD	02fH
	DD	00H
	DD	015eH
	DD	02H
	DD	09H
	DD	030H
	DD	01H
	DD	015fH
	DD	02H
	DD	09H
	DD	031H
	DD	00H
	DD	0162H
	DD	02H
	DD	09H
	DD	032H
	DD	01H
	DD	0163H
	DD	02H
	DD	09H
	DD	033H
	DD	01H
	DD	0166H
	DD	02H
	DD	09H
	DD	035H
	DD	01H
	DD	0169H
	DD	02H
	DD	09H
	DD	02bH
	DD	02bH
	DD	080000004H
	DD	02H
	DD	02bH
	DD	02H
	DD	06H
	DD	02bH
	DD	01H
	DD	08H
	DD	02bH
	DD	01H
	DD	08H
	DD	02bH
	DD	01H
	DD	08H
	DD	02bH
	DD	01H
	DD	08H
	DD	02bH
	DD	01H
	DD	08H
	DD	02bH
	DD	01H
	DD	08H
	DD	02bH
	DD	01H
	DD	08H
	DD	02bH
	DD	01H
	DD	08H
	DD	02bH
	DD	01H
	DD	08H
	DD	02bH
	DD	01H
	DD	08H
	DD	02bH
	DD	01H
	DD	08H
	DD	02bH
	DD	01H
	DD	08H
	DD	02bH
	DD	01H
	DD	08H
	DD	02bH
	DD	01H
	DD	08H
	DD	02bH
	DD	01H
	DD	08H
	DD	02bH
	DD	01H
	DD	08H
	DD	02bH
	DD	01H
	DD	08H
	DD	02bH
	DD	01H
	DD	08H
	DD	02bH
	DD	01H
	DD	08H
	DD	02bH
	DD	01H
	DD	08H
	DD	02bH
	DD	01H
	DD	08H
	DD	02bH
	DD	01H
	DD	08H
	DD	02bH
	DD	01H
	DD	08H
	DD	02bH
	DD	01H
	DD	08H
	DD	02bH
	DD	01H
	DD	08H
	DD	02bH
	DD	080000022H
	DD	02H
	DD	02bH
	DD	01H
	DD	08H
	DD	02bH
	DD	01aH
	DD	025H
	DD	02bH
	DD	019H
	DD	025H
	DD	02bH
	DD	06H
	DD	02H
	DD	02bH
	DD	02H
	DD	02H
	DD	02H
	DD	02H
	DD	02bH
	DD	02bH
	DD	02bH
	DD	02H
	DD	02cH
	DD	02bH
	DD	02H
	DD	02cH
	DD	02bH
	DD	02bH
	DD	02bH
	DD	01H
	DD	08H
	DD	02bH
	DD	02bH
	DD	080000004H
	DD	02H
	DD	02bH
	DD	0aH
	DD	034H
	DD	02bH
	DD	0aH
	DD	034H
	DD	00H
	ORG $+4
$SG145799 DB	'C:\Qt\Qt5.9.3\5.9.3\msvc2015_64\include\QtCore/qmetatype'
	DB	'.h', 00H
	ORG $+13
$SG145800 DB	'qRegisterNormalizedMetaType was called with a not normal'
	DB	'ized type name, please call qRegisterMetaType instead.', 00H
	ORG $+1
$SG145801 DB	'qRegisterNormalizedMetaType', 00H
	ORG $+4
$SG140737 DB	'C:\Qt\Qt5.9.3\5.9.3\msvc2015_64\include\QtCore/qmetatype'
	DB	'.h', 00H
	ORG $+5
$SG140738 DB	'qRegisterNormalizedMetaType was called with a not normal'
	DB	'ized type name, please call qRegisterMetaType instead.', 00H
	ORG $+1
$SG140739 DB	'qRegisterNormalizedMetaType', 00H
	ORG $+4
$SG142788 DB	'C:\Qt\Qt5.9.3\5.9.3\msvc2015_64\include\QtCore/qmetatype'
	DB	'.h', 00H
	ORG $+5
$SG142789 DB	'qRegisterNormalizedMetaType was called with a not normal'
	DB	'ized type name, please call qRegisterMetaType instead.', 00H
	ORG $+1
$SG142790 DB	'qRegisterNormalizedMetaType', 00H
	ORG $+4
$SG141039 DB	'C:\Qt\Qt5.9.3\5.9.3\msvc2015_64\include\QtCore/qmetatype'
	DB	'.h', 00H
	ORG $+5
$SG141040 DB	'qRegisterNormalizedMetaType was called with a not normal'
	DB	'ized type name, please call qRegisterMetaType instead.', 00H
	ORG $+1
$SG141041 DB	'qRegisterNormalizedMetaType', 00H
	ORG $+4
$SG144131 DB	'C:\Qt\Qt5.9.3\5.9.3\msvc2015_64\include\QtCore/qmetatype'
	DB	'.h', 00H
	ORG $+5
$SG144132 DB	'qRegisterNormalizedMetaType was called with a not normal'
	DB	'ized type name, please call qRegisterMetaType instead.', 00H
	ORG $+1
$SG144133 DB	'qRegisterNormalizedMetaType', 00H
	ORG $+4
$SG143125 DB	'C:\Qt\Qt5.9.3\5.9.3\msvc2015_64\include\QtCore/qmetatype'
	DB	'.h', 00H
	ORG $+5
$SG143126 DB	'qRegisterNormalizedMetaType was called with a not normal'
	DB	'ized type name, please call qRegisterMetaType instead.', 00H
	ORG $+1
$SG143127 DB	'qRegisterNormalizedMetaType', 00H
	ORG $+4
$SG142184 DB	'C:\Qt\Qt5.9.3\5.9.3\msvc2015_64\include\QtCore/qmetatype'
	DB	'.h', 00H
	ORG $+5
$SG142185 DB	'qRegisterNormalizedMetaType was called with a not normal'
	DB	'ized type name, please call qRegisterMetaType instead.', 00H
	ORG $+1
$SG142186 DB	'qRegisterNormalizedMetaType', 00H
CONST	ENDS
PUBLIC	?__empty_global_delete@@YAXPEAX@Z		; __empty_global_delete
PUBLIC	?__empty_global_delete@@YAXPEAX_K@Z		; __empty_global_delete
PUBLIC	??2@YAPEAX_KPEAX@Z				; operator new
PUBLIC	?qt_noop@@YAXXZ					; qt_noop
PUBLIC	??0QFlag@@QEAA@H@Z				; QFlag::QFlag
PUBLIC	??BQFlag@@QEBAHXZ				; QFlag::operator int
PUBLIC	?loadAcquire@?$QBasicAtomicInteger@H@@QEBAHXZ	; QBasicAtomicInteger<int>::loadAcquire
PUBLIC	?storeRelease@?$QBasicAtomicInteger@H@@QEAAXH@Z	; QBasicAtomicInteger<int>::storeRelease
PUBLIC	??8@YA_NAEBVQByteArray@@0@Z			; operator==
PUBLIC	??0?$QFlags@W4TypeFlag@QMetaType@@@@QEAA@VQFlag@@@Z ; QFlags<enum QMetaType::TypeFlag>::QFlags<enum QMetaType::TypeFlag>
PUBLIC	??_5?$QFlags@W4TypeFlag@QMetaType@@@@QEAAAEAV0@W4TypeFlag@QMetaType@@@Z ; QFlags<enum QMetaType::TypeFlag>::operator|=
PUBLIC	??C?$QScopedPointer@VQObjectData@@U?$QScopedPointerDeleter@VQObjectData@@@@@@QEBAPEAVQObjectData@@XZ ; QScopedPointer<QObjectData,QScopedPointerDeleter<QObjectData> >::operator->
PUBLIC	?metaObject@ImageWindow@@UEBAPEBUQMetaObject@@XZ ; ImageWindow::metaObject
PUBLIC	?qt_metacast@ImageWindow@@UEAAPEAXPEBD@Z	; ImageWindow::qt_metacast
PUBLIC	?qt_metacall@ImageWindow@@UEAAHW4Call@QMetaObject@@HPEAPEAX@Z ; ImageWindow::qt_metacall
PUBLIC	?qt_static_metacall@ImageWindow@@CAXPEAVQObject@@W4Call@QMetaObject@@HPEAPEAX@Z ; ImageWindow::qt_static_metacall
PUBLIC	?sigItemMoveFinished@ImageWindow@@QEAAXXZ	; ImageWindow::sigItemMoveFinished
PUBLIC	?sigItemRBtDoubleCliecked@ImageWindow@@QEAAXAEAVQPointF@@@Z ; ImageWindow::sigItemRBtDoubleCliecked
PUBLIC	?sigItemSelectChanged@ImageWindow@@QEAAXH@Z	; ImageWindow::sigItemSelectChanged
PUBLIC	??$qRegisterMetaType@PEAVQAction@@@@YAHXZ	; qRegisterMetaType<QAction * __ptr64>
PUBLIC	??$storeRelease@HH@?$QGenericAtomicOps@U?$QAtomicOpsBySize@$03@@@@SAXAEAHH@Z ; QGenericAtomicOps<QAtomicOpsBySize<4> >::storeRelease<int,int>
PUBLIC	??$loadAcquire@H@?$QGenericAtomicOps@U?$QAtomicOpsBySize@$03@@@@SAHAEBH@Z ; QGenericAtomicOps<QAtomicOpsBySize<4> >::loadAcquire<int>
PUBLIC	??$qMetaTypeId@PEAVQAction@@@@YAHXZ		; qMetaTypeId<QAction * __ptr64>
PUBLIC	??$releaseMemoryFence@H@?$QGenericAtomicOps@U?$QAtomicOpsBySize@$03@@@@SAXAEBH@Z ; QGenericAtomicOps<QAtomicOpsBySize<4> >::releaseMemoryFence<int>
PUBLIC	??$acquireMemoryFence@H@?$QGenericAtomicOps@U?$QAtomicOpsBySize@$03@@@@SAXAEBH@Z ; QGenericAtomicOps<QAtomicOpsBySize<4> >::acquireMemoryFence<int>
PUBLIC	?qt_metatype_id@?$QMetaTypeIdQObject@PEAVQAction@@$07@@SAHXZ ; QMetaTypeIdQObject<QAction * __ptr64,8>::qt_metatype_id
PUBLIC	?qt_metatype_id@?$QMetaTypeId2@PEAVQAction@@@@SAHXZ ; QMetaTypeId2<QAction * __ptr64>::qt_metatype_id
PUBLIC	??$orderedMemoryFence@H@?$QGenericAtomicOps@U?$QAtomicOpsBySize@$03@@@@SAXAEBH@Z ; QGenericAtomicOps<QAtomicOpsBySize<4> >::orderedMemoryFence<int>
PUBLIC	??$qRegisterNormalizedMetaType@PEAVQAction@@@@YAHAEBVQByteArray@@PEAPEAVQAction@@W4DefinedType@?$MetaTypeDefinedHelper@PEAVQAction@@$00@QtPrivate@@@Z ; qRegisterNormalizedMetaType<QAction * __ptr64>
PUBLIC	?qt_metatype_id@?$QMetaTypeIdHelper@PEAVQAction@@$00@QtPrivate@@SAHXZ ; QtPrivate::QMetaTypeIdHelper<QAction * __ptr64,1>::qt_metatype_id
PUBLIC	?Destruct@?$QMetaTypeFunctionHelper@PEAVQAction@@$00@QtMetaTypePrivate@@SAXPEAX@Z ; QtMetaTypePrivate::QMetaTypeFunctionHelper<QAction * __ptr64,1>::Destruct
PUBLIC	?Construct@?$QMetaTypeFunctionHelper@PEAVQAction@@$00@QtMetaTypePrivate@@SAPEAXPEAXPEBX@Z ; QtMetaTypePrivate::QMetaTypeFunctionHelper<QAction * __ptr64,1>::Construct
PUBLIC	?value@?$MetaObjectForType@PEAVQAction@@X@QtPrivate@@SAPEBUQMetaObject@@XZ ; QtPrivate::MetaObjectForType<QAction * __ptr64,void>::value
PUBLIC	?registerConverter@?$SequentialContainerConverterHelper@PEAVQAction@@$0A@@QtPrivate@@SA_NH@Z ; QtPrivate::SequentialContainerConverterHelper<QAction * __ptr64,0>::registerConverter
PUBLIC	?registerConverter@?$AssociativeContainerConverterHelper@PEAVQAction@@$0A@@QtPrivate@@SA_NH@Z ; QtPrivate::AssociativeContainerConverterHelper<QAction * __ptr64,0>::registerConverter
PUBLIC	?registerConverter@?$IsPair@PEAVQAction@@@QtPrivate@@SA_NH@Z ; QtPrivate::IsPair<QAction * __ptr64>::registerConverter
PUBLIC	?registerConverter@?$MetaTypeSmartPointerHelper@PEAVQAction@@X@QtPrivate@@SA_NH@Z ; QtPrivate::MetaTypeSmartPointerHelper<QAction * __ptr64,void>::registerConverter
PUBLIC	?staticMetaObject@ImageWindow@@2UQMetaObject@@B	; ImageWindow::staticMetaObject
PUBLIC	?metatype_id@?1??qt_metatype_id@?$QMetaTypeIdQObject@PEAVQAction@@$07@@SAHXZ@4V?$QBasicAtomicInteger@H@@A ; `QMetaTypeIdQObject<QAction * __ptr64,8>::qt_metatype_id'::`2'::metatype_id
EXTRN	memcmp:PROC
EXTRN	strcmp:PROC
EXTRN	strlen:PROC
EXTRN	__imp_?qt_assert_x@@YAXPEBD00H@Z:PROC
EXTRN	__imp_?className@QMetaObject@@QEBAPEBDXZ:PROC
EXTRN	__imp_?normalizedType@QMetaObject@@SA?AVQByteArray@@PEBD@Z:PROC
EXTRN	__imp_?activate@QMetaObject@@SAXPEAVQObject@@PEBU1@HPEAPEAX@Z:PROC
EXTRN	__imp_??0QByteArray@@QEAA@XZ:PROC
EXTRN	__imp_??1QByteArray@@QEAA@XZ:PROC
EXTRN	__imp_?size@QByteArray@@QEBAHXZ:PROC
EXTRN	__imp_?reserve@QByteArray@@QEAAXH@Z:PROC
EXTRN	__imp_?constData@QByteArray@@QEBAPEBDXZ:PROC
EXTRN	__imp_?append@QByteArray@@QEAAAEAV1@D@Z:PROC
EXTRN	__imp_?append@QByteArray@@QEAAAEAV1@PEBD@Z:PROC
EXTRN	__imp_?registerNormalizedType@QMetaType@@SAHAEBVQByteArray@@P6AXPEAX@ZP6APEAX1PEBX@ZHV?$QFlags@W4TypeFlag@QMetaType@@@@PEBUQMetaObject@@@Z:PROC
EXTRN	__imp_?registerNormalizedTypedef@QMetaType@@SAHAEBVQByteArray@@H@Z:PROC
EXTRN	__imp_?dynamicMetaObject@QObjectData@@QEBAPEAUQMetaObject@@XZ:PROC
EXTRN	__imp_?qt_metacast@QMainWindow@@UEAAPEAXPEBD@Z:PROC
EXTRN	__imp_?qt_metacall@QMainWindow@@UEAAHW4Call@QMetaObject@@HPEAPEAX@Z:PROC
EXTRN	?on_actionOpenImage_triggered@ImageWindow@@IEAAX_N@Z:PROC ; ImageWindow::on_actionOpenImage_triggered
EXTRN	?on_actionSaveImage_triggered@ImageWindow@@IEAAX_N@Z:PROC ; ImageWindow::on_actionSaveImage_triggered
EXTRN	?on_actionZoomIn_triggered@ImageWindow@@IEAAX_N@Z:PROC ; ImageWindow::on_actionZoomIn_triggered
EXTRN	?on_actionZoomOut_triggered@ImageWindow@@IEAAX_N@Z:PROC ; ImageWindow::on_actionZoomOut_triggered
EXTRN	?on_actionFullView_triggered@ImageWindow@@IEAAX_N@Z:PROC ; ImageWindow::on_actionFullView_triggered
EXTRN	?on_actionOriginalSize_triggered@ImageWindow@@IEAAX_N@Z:PROC ; ImageWindow::on_actionOriginalSize_triggered
EXTRN	?on_actionDeleteAll_triggered@ImageWindow@@IEAAX_N@Z:PROC ; ImageWindow::on_actionDeleteAll_triggered
EXTRN	?on_actionDeleteSelect_triggered@ImageWindow@@IEAAX_N@Z:PROC ; ImageWindow::on_actionDeleteSelect_triggered
EXTRN	?on_actionSelectAll_triggered@ImageWindow@@IEAAX_N@Z:PROC ; ImageWindow::on_actionSelectAll_triggered
EXTRN	?on_actionMoveUp_triggered@ImageWindow@@IEAAX_N@Z:PROC ; ImageWindow::on_actionMoveUp_triggered
EXTRN	?on_actionMoveDown_triggered@ImageWindow@@IEAAX_N@Z:PROC ; ImageWindow::on_actionMoveDown_triggered
EXTRN	?on_actionMoveRight_triggered@ImageWindow@@IEAAX_N@Z:PROC ; ImageWindow::on_actionMoveRight_triggered
EXTRN	?on_actionMoveLeft_triggered@ImageWindow@@IEAAX_N@Z:PROC ; ImageWindow::on_actionMoveLeft_triggered
EXTRN	?on_actionMoveUpPix_triggered@ImageWindow@@IEAAX_N@Z:PROC ; ImageWindow::on_actionMoveUpPix_triggered
EXTRN	?on_actionMoveDownPix_triggered@ImageWindow@@IEAAX_N@Z:PROC ; ImageWindow::on_actionMoveDownPix_triggered
EXTRN	?on_actionMoveRightPix_triggered@ImageWindow@@IEAAX_N@Z:PROC ; ImageWindow::on_actionMoveRightPix_triggered
EXTRN	?on_actionMoveLeftPix_triggered@ImageWindow@@IEAAX_N@Z:PROC ; ImageWindow::on_actionMoveLeftPix_triggered
EXTRN	?on_actionClearImage_triggered@ImageWindow@@IEAAX_N@Z:PROC ; ImageWindow::on_actionClearImage_triggered
EXTRN	?on_actionCopyShape_triggered@ImageWindow@@IEAAX_N@Z:PROC ; ImageWindow::on_actionCopyShape_triggered
EXTRN	?on_actionCutShape_triggered@ImageWindow@@IEAAX_N@Z:PROC ; ImageWindow::on_actionCutShape_triggered
EXTRN	?on_actionPasteShape_triggered@ImageWindow@@IEAAX_N@Z:PROC ; ImageWindow::on_actionPasteShape_triggered
EXTRN	?on_actionSelectNext_triggered@ImageWindow@@IEAAX_N@Z:PROC ; ImageWindow::on_actionSelectNext_triggered
EXTRN	?on_actionSelectPre_triggered@ImageWindow@@IEAAX_N@Z:PROC ; ImageWindow::on_actionSelectPre_triggered
EXTRN	?on_actionCenterCross_triggered@ImageWindow@@IEAAX_N@Z:PROC ; ImageWindow::on_actionCenterCross_triggered
EXTRN	?on_actionClearRoi_triggered@ImageWindow@@IEAAX_N@Z:PROC ; ImageWindow::on_actionClearRoi_triggered
EXTRN	?on_action_triggered@ImageWindow@@IEAAXPEAVQAction@@@Z:PROC ; ImageWindow::on_action_triggered
EXTRN	?on_actionUndoStack_triggered@ImageWindow@@IEAAX_N@Z:PROC ; ImageWindow::on_actionUndoStack_triggered
EXTRN	?slotStatusBarShowCoordinate@ImageWindow@@IEAAXVQPointF@@@Z:PROC ; ImageWindow::slotStatusBarShowCoordinate
EXTRN	?slotStatusBarShowGary@ImageWindow@@IEAAXVQPoint@@@Z:PROC ; ImageWindow::slotStatusBarShowGary
EXTRN	?slotStatusBarScale@ImageWindow@@IEAAXN@Z:PROC	; ImageWindow::slotStatusBarScale
EXTRN	?slotStatusBarImageSizeChangle@ImageWindow@@IEAAXHH@Z:PROC ; ImageWindow::slotStatusBarImageSizeChangle
EXTRN	?slotStatusBarSelectCount@ImageWindow@@IEAAXXZ:PROC ; ImageWindow::slotStatusBarSelectCount
EXTRN	?slotTimerHandle@ImageWindow@@IEAAXXZ:PROC	; ImageWindow::slotTimerHandle
EXTRN	?on_checkBox_arrow_stateChanged@ImageWindow@@IEAAXH@Z:PROC ; ImageWindow::on_checkBox_arrow_stateChanged
EXTRN	?on_checkBox_grid_stateChanged@ImageWindow@@IEAAXH@Z:PROC ; ImageWindow::on_checkBox_grid_stateChanged
EXTRN	?on_toolButton_modifySize_clicked@ImageWindow@@IEAAXXZ:PROC ; ImageWindow::on_toolButton_modifySize_clicked
EXTRN	?slot_showSelectItemData@ImageWindow@@IEAAXXZ:PROC ; ImageWindow::slot_showSelectItemData
EXTRN	?on_action_color_triggered@ImageWindow@@IEAAX_N@Z:PROC ; ImageWindow::on_action_color_triggered
EXTRN	?slotItemMoveFinished@ImageWindow@@IEAAXXZ:PROC	; ImageWindow::slotItemMoveFinished
EXTRN	?slotItemRBtDoubleCliecked@ImageWindow@@IEAAXAEAVQPointF@@@Z:PROC ; ImageWindow::slotItemRBtDoubleCliecked
EXTRN	?slotLineWidthChangle@ImageWindow@@IEAAXAEBVQString@@@Z:PROC ; ImageWindow::slotLineWidthChangle
EXTRN	?slotFontSizeChangle@ImageWindow@@IEAAXAEBVQString@@@Z:PROC ; ImageWindow::slotFontSizeChangle
EXTRN	__CxxFrameHandler3:PROC
EXTRN	__imp_?staticMetaObject@QMainWindow@@2UQMetaObject@@B:BYTE
EXTRN	__imp_?staticMetaObject@QAction@@2UQMetaObject@@B:BYTE
EXTRN	__ImageBase:BYTE
EXTRN	_fltused:DWORD
_BSS	SEGMENT
?staticMetaObject@ImageWindow@@2UQMetaObject@@B DB 030H DUP (?) ; ImageWindow::staticMetaObject
_BSS	ENDS
;	COMDAT ?metatype_id@?1??qt_metatype_id@?$QMetaTypeIdQObject@PEAVQAction@@$07@@SAHXZ@4V?$QBasicAtomicInteger@H@@A
_BSS	SEGMENT
?metatype_id@?1??qt_metatype_id@?$QMetaTypeIdQObject@PEAVQAction@@$07@@SAHXZ@4V?$QBasicAtomicInteger@H@@A DD 01H DUP (?) ; `QMetaTypeIdQObject<QAction * __ptr64,8>::qt_metatype_id'::`2'::metatype_id
_BSS	ENDS
;	COMDAT pdata
pdata	SEGMENT
$pdata$?loadAcquire@?$QBasicAtomicInteger@H@@QEBAHXZ DD imagerel $LN3
	DD	imagerel $LN3+27
	DD	imagerel $unwind$?loadAcquire@?$QBasicAtomicInteger@H@@QEBAHXZ
pdata	ENDS
;	COMDAT pdata
pdata	SEGMENT
$pdata$?storeRelease@?$QBasicAtomicInteger@H@@QEAAXH@Z DD imagerel $LN3
	DD	imagerel $LN3+35
	DD	imagerel $unwind$?storeRelease@?$QBasicAtomicInteger@H@@QEAAXH@Z
pdata	ENDS
;	COMDAT pdata
pdata	SEGMENT
$pdata$??8@YA_NAEBVQByteArray@@0@Z DD imagerel $LN5
	DD	imagerel $LN5+164
	DD	imagerel $unwind$??8@YA_NAEBVQByteArray@@0@Z
pdata	ENDS
;	COMDAT pdata
pdata	SEGMENT
$pdata$??0?$QFlags@W4TypeFlag@QMetaType@@@@QEAA@VQFlag@@@Z DD imagerel $LN3
	DD	imagerel $LN3+40
	DD	imagerel $unwind$??0?$QFlags@W4TypeFlag@QMetaType@@@@QEAA@VQFlag@@@Z
pdata	ENDS
pdata	SEGMENT
$pdata$?metaObject@ImageWindow@@UEBAPEBUQMetaObject@@XZ DD imagerel $LN5
	DD	imagerel $LN5+88
	DD	imagerel $unwind$?metaObject@ImageWindow@@UEBAPEBUQMetaObject@@XZ
$pdata$?qt_metacast@ImageWindow@@UEAAPEAXPEBD@Z DD imagerel $LN5
	DD	imagerel $LN5+75
	DD	imagerel $unwind$?qt_metacast@ImageWindow@@UEAAPEAXPEBD@Z
$pdata$?qt_metacall@ImageWindow@@UEAAHW4Call@QMetaObject@@HPEAPEAX@Z DD imagerel $LN9
	DD	imagerel $LN9+174
	DD	imagerel $unwind$?qt_metacall@ImageWindow@@UEAAHW4Call@QMetaObject@@HPEAPEAX@Z
$pdata$?qt_static_metacall@ImageWindow@@CAXPEAVQObject@@W4Call@QMetaObject@@HPEAPEAX@Z DD imagerel $LN77
	DD	imagerel $LN77+2568
	DD	imagerel $unwind$?qt_static_metacall@ImageWindow@@CAXPEAVQObject@@W4Call@QMetaObject@@HPEAPEAX@Z
$pdata$?sigItemMoveFinished@ImageWindow@@QEAAXXZ DD imagerel $LN3
	DD	imagerel $LN3+38
	DD	imagerel $unwind$?sigItemMoveFinished@ImageWindow@@QEAAXXZ
$pdata$?sigItemRBtDoubleCliecked@ImageWindow@@QEAAXAEAVQPointF@@@Z DD imagerel $LN3
	DD	imagerel $LN3+67
	DD	imagerel $unwind$?sigItemRBtDoubleCliecked@ImageWindow@@QEAAXAEAVQPointF@@@Z
$pdata$?sigItemSelectChanged@ImageWindow@@QEAAXH@Z DD imagerel $LN3
	DD	imagerel $LN3+66
	DD	imagerel $unwind$?sigItemSelectChanged@ImageWindow@@QEAAXH@Z
pdata	ENDS
;	COMDAT pdata
pdata	SEGMENT
$pdata$??$qRegisterMetaType@PEAVQAction@@@@YAHXZ DD imagerel $LN3
	DD	imagerel $LN3+14
	DD	imagerel $unwind$??$qRegisterMetaType@PEAVQAction@@@@YAHXZ
pdata	ENDS
;	COMDAT pdata
pdata	SEGMENT
$pdata$??$storeRelease@HH@?$QGenericAtomicOps@U?$QAtomicOpsBySize@$03@@@@SAXAEAHH@Z DD imagerel $LN3
	DD	imagerel $LN3+39
	DD	imagerel $unwind$??$storeRelease@HH@?$QGenericAtomicOps@U?$QAtomicOpsBySize@$03@@@@SAXAEAHH@Z
pdata	ENDS
;	COMDAT pdata
pdata	SEGMENT
$pdata$??$loadAcquire@H@?$QGenericAtomicOps@U?$QAtomicOpsBySize@$03@@@@SAHAEBH@Z DD imagerel $LN3
	DD	imagerel $LN3+39
	DD	imagerel $unwind$??$loadAcquire@H@?$QGenericAtomicOps@U?$QAtomicOpsBySize@$03@@@@SAHAEBH@Z
pdata	ENDS
;	COMDAT pdata
pdata	SEGMENT
$pdata$??$qMetaTypeId@PEAVQAction@@@@YAHXZ DD imagerel $LN3
	DD	imagerel $LN3+14
	DD	imagerel $unwind$??$qMetaTypeId@PEAVQAction@@@@YAHXZ
pdata	ENDS
;	COMDAT pdata
pdata	SEGMENT
$pdata$??$releaseMemoryFence@H@?$QGenericAtomicOps@U?$QAtomicOpsBySize@$03@@@@SAXAEBH@Z DD imagerel $LN3
	DD	imagerel $LN3+24
	DD	imagerel $unwind$??$releaseMemoryFence@H@?$QGenericAtomicOps@U?$QAtomicOpsBySize@$03@@@@SAXAEBH@Z
pdata	ENDS
;	COMDAT pdata
pdata	SEGMENT
$pdata$??$acquireMemoryFence@H@?$QGenericAtomicOps@U?$QAtomicOpsBySize@$03@@@@SAXAEBH@Z DD imagerel $LN3
	DD	imagerel $LN3+24
	DD	imagerel $unwind$??$acquireMemoryFence@H@?$QGenericAtomicOps@U?$QAtomicOpsBySize@$03@@@@SAXAEBH@Z
pdata	ENDS
;	COMDAT pdata
pdata	SEGMENT
$pdata$?qt_metatype_id@?$QMetaTypeIdQObject@PEAVQAction@@$07@@SAHXZ DD imagerel $LN5
	DD	imagerel $LN5+198
	DD	imagerel $unwind$?qt_metatype_id@?$QMetaTypeIdQObject@PEAVQAction@@$07@@SAHXZ
pdata	ENDS
;	COMDAT pdata
pdata	SEGMENT
$pdata$?dtor$0@?0??qt_metatype_id@?$QMetaTypeIdQObject@PEAVQAction@@$07@@SAHXZ@4HA DD imagerel ?dtor$0@?0??qt_metatype_id@?$QMetaTypeIdQObject@PEAVQAction@@$07@@SAHXZ@4HA
	DD	imagerel ?dtor$0@?0??qt_metatype_id@?$QMetaTypeIdQObject@PEAVQAction@@$07@@SAHXZ@4HA+25
	DD	imagerel $unwind$?dtor$0@?0??qt_metatype_id@?$QMetaTypeIdQObject@PEAVQAction@@$07@@SAHXZ@4HA
pdata	ENDS
;	COMDAT pdata
pdata	SEGMENT
$pdata$?qt_metatype_id@?$QMetaTypeId2@PEAVQAction@@@@SAHXZ DD imagerel $LN3
	DD	imagerel $LN3+14
	DD	imagerel $unwind$?qt_metatype_id@?$QMetaTypeId2@PEAVQAction@@@@SAHXZ
pdata	ENDS
;	COMDAT pdata
pdata	SEGMENT
$pdata$??$qRegisterNormalizedMetaType@PEAVQAction@@@@YAHAEBVQByteArray@@PEAPEAVQAction@@W4DefinedType@?$MetaTypeDefinedHelper@PEAVQAction@@$00@QtPrivate@@@Z DD imagerel $LN11
	DD	imagerel $LN11+401
	DD	imagerel $unwind$??$qRegisterNormalizedMetaType@PEAVQAction@@@@YAHAEBVQByteArray@@PEAPEAVQAction@@W4DefinedType@?$MetaTypeDefinedHelper@PEAVQAction@@$00@QtPrivate@@@Z
pdata	ENDS
;	COMDAT pdata
pdata	SEGMENT
$pdata$?dtor$0@?0???$qRegisterNormalizedMetaType@PEAVQAction@@@@YAHAEBVQByteArray@@PEAPEAVQAction@@W4DefinedType@?$MetaTypeDefinedHelper@PEAVQAction@@$00@QtPrivate@@@Z@4HA DD imagerel ?dtor$0@?0???$qRegisterNormalizedMetaType@PEAVQAction@@@@YAHAEBVQByteArray@@PEAPEAVQAction@@W4DefinedType@?$MetaTypeDefinedHelper@PEAVQAction@@$00@QtPrivate@@@Z@4HA
	DD	imagerel ?dtor$0@?0???$qRegisterNormalizedMetaType@PEAVQAction@@@@YAHAEBVQByteArray@@PEAPEAVQAction@@W4DefinedType@?$MetaTypeDefinedHelper@PEAVQAction@@$00@QtPrivate@@@Z@4HA+25
	DD	imagerel $unwind$?dtor$0@?0???$qRegisterNormalizedMetaType@PEAVQAction@@@@YAHAEBVQByteArray@@PEAPEAVQAction@@W4DefinedType@?$MetaTypeDefinedHelper@PEAVQAction@@$00@QtPrivate@@@Z@4HA
pdata	ENDS
;	COMDAT pdata
pdata	SEGMENT
$pdata$?qt_metatype_id@?$QMetaTypeIdHelper@PEAVQAction@@$00@QtPrivate@@SAHXZ DD imagerel $LN3
	DD	imagerel $LN3+14
	DD	imagerel $unwind$?qt_metatype_id@?$QMetaTypeIdHelper@PEAVQAction@@$00@QtPrivate@@SAHXZ
pdata	ENDS
;	COMDAT pdata
pdata	SEGMENT
$pdata$?Construct@?$QMetaTypeFunctionHelper@PEAVQAction@@$00@QtMetaTypePrivate@@SAPEAXPEAXPEBX@Z DD imagerel $LN6
	DD	imagerel $LN6+124
	DD	imagerel $unwind$?Construct@?$QMetaTypeFunctionHelper@PEAVQAction@@$00@QtMetaTypePrivate@@SAPEAXPEAXPEBX@Z
pdata	ENDS
CRT$XCU	SEGMENT
??staticMetaObject$initializer$@ImageWindow@@2P6AXXZEA@@3P6AXXZEA DQ FLAT:??__E?staticMetaObject@ImageWindow@@2UQMetaObject@@B@@YAXXZ ; ??staticMetaObject$initializer$@ImageWindow@@2P6AXXZEA@@3P6AXXZEA
CRT$XCU	ENDS
;	COMDAT xdata
xdata	SEGMENT
$unwind$?Construct@?$QMetaTypeFunctionHelper@PEAVQAction@@$00@QtMetaTypePrivate@@SAPEAXPEAXPEBX@Z DD 010e01H
	DD	0820eH
xdata	ENDS
;	COMDAT xdata
xdata	SEGMENT
$unwind$?qt_metatype_id@?$QMetaTypeIdHelper@PEAVQAction@@$00@QtPrivate@@SAHXZ DD 010401H
	DD	04204H
xdata	ENDS
;	COMDAT xdata
xdata	SEGMENT
$unwind$?dtor$0@?0???$qRegisterNormalizedMetaType@PEAVQAction@@@@YAHAEBVQByteArray@@PEAPEAVQAction@@W4DefinedType@?$MetaTypeDefinedHelper@PEAVQAction@@$00@QtPrivate@@@Z@4HA DD 020601H
	DD	050023206H
xdata	ENDS
;	COMDAT xdata
xdata	SEGMENT
$ip2state$??$qRegisterNormalizedMetaType@PEAVQAction@@@@YAHAEBVQByteArray@@PEAPEAVQAction@@W4DefinedType@?$MetaTypeDefinedHelper@PEAVQAction@@$00@QtPrivate@@@Z DD imagerel ??$qRegisterNormalizedMetaType@PEAVQAction@@@@YAHAEBVQByteArray@@PEAPEAVQAction@@W4DefinedType@?$MetaTypeDefinedHelper@PEAVQAction@@$00@QtPrivate@@@Z
	DD	0ffffffffH
	DD	imagerel ??$qRegisterNormalizedMetaType@PEAVQAction@@@@YAHAEBVQByteArray@@PEAPEAVQAction@@W4DefinedType@?$MetaTypeDefinedHelper@PEAVQAction@@$00@QtPrivate@@@Z+71
	DD	00H
	DD	imagerel ??$qRegisterNormalizedMetaType@PEAVQAction@@@@YAHAEBVQByteArray@@PEAPEAVQAction@@W4DefinedType@?$MetaTypeDefinedHelper@PEAVQAction@@$00@QtPrivate@@@Z+152
	DD	0ffffffffH
xdata	ENDS
;	COMDAT xdata
xdata	SEGMENT
$stateUnwindMap$??$qRegisterNormalizedMetaType@PEAVQAction@@@@YAHAEBVQByteArray@@PEAPEAVQAction@@W4DefinedType@?$MetaTypeDefinedHelper@PEAVQAction@@$00@QtPrivate@@@Z DD 0ffffffffH
	DD	imagerel ?dtor$0@?0???$qRegisterNormalizedMetaType@PEAVQAction@@@@YAHAEBVQByteArray@@PEAPEAVQAction@@W4DefinedType@?$MetaTypeDefinedHelper@PEAVQAction@@$00@QtPrivate@@@Z@4HA
xdata	ENDS
;	COMDAT CONST
CONST	SEGMENT
$cppxdata$??$qRegisterNormalizedMetaType@PEAVQAction@@@@YAHAEBVQByteArray@@PEAPEAVQAction@@W4DefinedType@?$MetaTypeDefinedHelper@PEAVQAction@@$00@QtPrivate@@@Z DD 019930522H
	DD	01H
	DD	imagerel $stateUnwindMap$??$qRegisterNormalizedMetaType@PEAVQAction@@@@YAHAEBVQByteArray@@PEAPEAVQAction@@W4DefinedType@?$MetaTypeDefinedHelper@PEAVQAction@@$00@QtPrivate@@@Z
	DD	00H
	DD	00H
	DD	03H
	DD	imagerel $ip2state$??$qRegisterNormalizedMetaType@PEAVQAction@@@@YAHAEBVQByteArray@@PEAPEAVQAction@@W4DefinedType@?$MetaTypeDefinedHelper@PEAVQAction@@$00@QtPrivate@@@Z
	DD	068H
	DD	00H
	DD	01H
CONST	ENDS
;	COMDAT xdata
xdata	SEGMENT
$unwind$??$qRegisterNormalizedMetaType@PEAVQAction@@@@YAHAEBVQByteArray@@PEAPEAVQAction@@W4DefinedType@?$MetaTypeDefinedHelper@PEAVQAction@@$00@QtPrivate@@@Z DD 011c11H
	DD	0e213H
	DD	imagerel __CxxFrameHandler3
	DD	imagerel $cppxdata$??$qRegisterNormalizedMetaType@PEAVQAction@@@@YAHAEBVQByteArray@@PEAPEAVQAction@@W4DefinedType@?$MetaTypeDefinedHelper@PEAVQAction@@$00@QtPrivate@@@Z
xdata	ENDS
;	COMDAT xdata
xdata	SEGMENT
$unwind$?qt_metatype_id@?$QMetaTypeId2@PEAVQAction@@@@SAHXZ DD 010401H
	DD	04204H
xdata	ENDS
;	COMDAT xdata
xdata	SEGMENT
$unwind$?dtor$0@?0??qt_metatype_id@?$QMetaTypeIdQObject@PEAVQAction@@$07@@SAHXZ@4HA DD 020601H
	DD	050023206H
xdata	ENDS
;	COMDAT xdata
xdata	SEGMENT
$ip2state$?qt_metatype_id@?$QMetaTypeIdQObject@PEAVQAction@@$07@@SAHXZ DD imagerel ?qt_metatype_id@?$QMetaTypeIdQObject@PEAVQAction@@$07@@SAHXZ
	DD	0ffffffffH
	DD	imagerel ?qt_metatype_id@?$QMetaTypeIdQObject@PEAVQAction@@$07@@SAHXZ+75
	DD	00H
	DD	imagerel ?qt_metatype_id@?$QMetaTypeIdQObject@PEAVQAction@@$07@@SAHXZ+178
	DD	0ffffffffH
xdata	ENDS
;	COMDAT xdata
xdata	SEGMENT
$stateUnwindMap$?qt_metatype_id@?$QMetaTypeIdQObject@PEAVQAction@@$07@@SAHXZ DD 0ffffffffH
	DD	imagerel ?dtor$0@?0??qt_metatype_id@?$QMetaTypeIdQObject@PEAVQAction@@$07@@SAHXZ@4HA
xdata	ENDS
;	COMDAT CONST
CONST	SEGMENT
$cppxdata$?qt_metatype_id@?$QMetaTypeIdQObject@PEAVQAction@@$07@@SAHXZ DD 019930522H
	DD	01H
	DD	imagerel $stateUnwindMap$?qt_metatype_id@?$QMetaTypeIdQObject@PEAVQAction@@$07@@SAHXZ
	DD	00H
	DD	00H
	DD	03H
	DD	imagerel $ip2state$?qt_metatype_id@?$QMetaTypeIdQObject@PEAVQAction@@$07@@SAHXZ
	DD	040H
	DD	00H
	DD	01H
CONST	ENDS
;	COMDAT xdata
xdata	SEGMENT
$unwind$?qt_metatype_id@?$QMetaTypeIdQObject@PEAVQAction@@$07@@SAHXZ DD 010d11H
	DD	0a204H
	DD	imagerel __CxxFrameHandler3
	DD	imagerel $cppxdata$?qt_metatype_id@?$QMetaTypeIdQObject@PEAVQAction@@$07@@SAHXZ
xdata	ENDS
;	COMDAT xdata
xdata	SEGMENT
$unwind$??$acquireMemoryFence@H@?$QGenericAtomicOps@U?$QAtomicOpsBySize@$03@@@@SAXAEBH@Z DD 010901H
	DD	04209H
xdata	ENDS
;	COMDAT xdata
xdata	SEGMENT
$unwind$??$releaseMemoryFence@H@?$QGenericAtomicOps@U?$QAtomicOpsBySize@$03@@@@SAXAEBH@Z DD 010901H
	DD	04209H
xdata	ENDS
;	COMDAT xdata
xdata	SEGMENT
$unwind$??$qMetaTypeId@PEAVQAction@@@@YAHXZ DD 010401H
	DD	04204H
xdata	ENDS
;	COMDAT xdata
xdata	SEGMENT
$unwind$??$loadAcquire@H@?$QGenericAtomicOps@U?$QAtomicOpsBySize@$03@@@@SAHAEBH@Z DD 010901H
	DD	06209H
xdata	ENDS
;	COMDAT xdata
xdata	SEGMENT
$unwind$??$storeRelease@HH@?$QGenericAtomicOps@U?$QAtomicOpsBySize@$03@@@@SAXAEAHH@Z DD 010d01H
	DD	0420dH
xdata	ENDS
;	COMDAT xdata
xdata	SEGMENT
$unwind$??$qRegisterMetaType@PEAVQAction@@@@YAHXZ DD 010401H
	DD	04204H
xdata	ENDS
xdata	SEGMENT
$unwind$?metaObject@ImageWindow@@UEBAPEBUQMetaObject@@XZ DD 010901H
	DD	06209H
$unwind$?qt_metacast@ImageWindow@@UEAAPEAXPEBD@Z DD 010e01H
	DD	0420eH
$unwind$?qt_metacall@ImageWindow@@UEAAHW4Call@QMetaObject@@HPEAPEAX@Z DD 011701H
	DD	04217H
$unwind$?qt_static_metacall@ImageWindow@@CAXPEAVQObject@@W4Call@QMetaObject@@HPEAPEAX@Z DD 041c01H
	DD	013011cH
	DD	060147015H
$unwind$?sigItemMoveFinished@ImageWindow@@QEAAXXZ DD 010901H
	DD	04209H
$unwind$?sigItemRBtDoubleCliecked@ImageWindow@@QEAAXAEAVQPointF@@@Z DD 010e01H
	DD	0620eH
$unwind$?sigItemSelectChanged@ImageWindow@@QEAAXH@Z DD 010d01H
	DD	0620dH
xdata	ENDS
;	COMDAT xdata
xdata	SEGMENT
$unwind$??0?$QFlags@W4TypeFlag@QMetaType@@@@QEAA@VQFlag@@@Z DD 010d01H
	DD	0420dH
xdata	ENDS
;	COMDAT xdata
xdata	SEGMENT
$ip2state$??8@YA_NAEBVQByteArray@@0@Z DD imagerel ??8@YA_NAEBVQByteArray@@0@Z
	DD	0ffffffffH
xdata	ENDS
;	COMDAT CONST
CONST	SEGMENT
$cppxdata$??8@YA_NAEBVQByteArray@@0@Z DD 019930522H
	DD	00H
	DD	00H
	DD	00H
	DD	00H
	DD	01H
	DD	imagerel $ip2state$??8@YA_NAEBVQByteArray@@0@Z
	DD	038H
	DD	00H
	DD	05H
CONST	ENDS
;	COMDAT xdata
xdata	SEGMENT
$unwind$??8@YA_NAEBVQByteArray@@0@Z DD 011719H
	DD	0820eH
	DD	imagerel __CxxFrameHandler3
	DD	imagerel $cppxdata$??8@YA_NAEBVQByteArray@@0@Z
xdata	ENDS
;	COMDAT xdata
xdata	SEGMENT
$unwind$?storeRelease@?$QBasicAtomicInteger@H@@QEAAXH@Z DD 010d01H
	DD	0420dH
xdata	ENDS
;	COMDAT xdata
xdata	SEGMENT
$unwind$?loadAcquire@?$QBasicAtomicInteger@H@@QEBAHXZ DD 010901H
	DD	04209H
xdata	ENDS
; Function compile flags: /Odtp
;	COMDAT ?registerConverter@?$MetaTypeSmartPointerHelper@PEAVQAction@@X@QtPrivate@@SA_NH@Z
_TEXT	SEGMENT
__formal$ = 8
?registerConverter@?$MetaTypeSmartPointerHelper@PEAVQAction@@X@QtPrivate@@SA_NH@Z PROC ; QtPrivate::MetaTypeSmartPointerHelper<QAction * __ptr64,void>::registerConverter, COMDAT
; File c:\qt\qt5.9.3\5.9.3\msvc2015_64\include\qtcore\qmetatype.h
; Line 1572
	mov	DWORD PTR [rsp+8], ecx
	xor	al, al
	ret	0
?registerConverter@?$MetaTypeSmartPointerHelper@PEAVQAction@@X@QtPrivate@@SA_NH@Z ENDP ; QtPrivate::MetaTypeSmartPointerHelper<QAction * __ptr64,void>::registerConverter
_TEXT	ENDS
; Function compile flags: /Odtp
;	COMDAT ?registerConverter@?$IsPair@PEAVQAction@@@QtPrivate@@SA_NH@Z
_TEXT	SEGMENT
__formal$ = 8
?registerConverter@?$IsPair@PEAVQAction@@@QtPrivate@@SA_NH@Z PROC ; QtPrivate::IsPair<QAction * __ptr64>::registerConverter, COMDAT
; File c:\qt\qt5.9.3\5.9.3\msvc2015_64\include\qtcore\qmetatype.h
; Line 1557
	mov	DWORD PTR [rsp+8], ecx
; Line 1558
	xor	al, al
; Line 1559
	ret	0
?registerConverter@?$IsPair@PEAVQAction@@@QtPrivate@@SA_NH@Z ENDP ; QtPrivate::IsPair<QAction * __ptr64>::registerConverter
_TEXT	ENDS
; Function compile flags: /Odtp
;	COMDAT ?registerConverter@?$AssociativeContainerConverterHelper@PEAVQAction@@$0A@@QtPrivate@@SA_NH@Z
_TEXT	SEGMENT
__formal$ = 8
?registerConverter@?$AssociativeContainerConverterHelper@PEAVQAction@@$0A@@QtPrivate@@SA_NH@Z PROC ; QtPrivate::AssociativeContainerConverterHelper<QAction * __ptr64,0>::registerConverter, COMDAT
; File c:\qt\qt5.9.3\5.9.3\msvc2015_64\include\qtcore\qmetatype.h
; Line 1504
	mov	DWORD PTR [rsp+8], ecx
; Line 1505
	xor	al, al
; Line 1506
	ret	0
?registerConverter@?$AssociativeContainerConverterHelper@PEAVQAction@@$0A@@QtPrivate@@SA_NH@Z ENDP ; QtPrivate::AssociativeContainerConverterHelper<QAction * __ptr64,0>::registerConverter
_TEXT	ENDS
; Function compile flags: /Odtp
;	COMDAT ?registerConverter@?$SequentialContainerConverterHelper@PEAVQAction@@$0A@@QtPrivate@@SA_NH@Z
_TEXT	SEGMENT
__formal$ = 8
?registerConverter@?$SequentialContainerConverterHelper@PEAVQAction@@$0A@@QtPrivate@@SA_NH@Z PROC ; QtPrivate::SequentialContainerConverterHelper<QAction * __ptr64,0>::registerConverter, COMDAT
; File c:\qt\qt5.9.3\5.9.3\msvc2015_64\include\qtcore\qmetatype.h
; Line 1481
	mov	DWORD PTR [rsp+8], ecx
; Line 1482
	xor	al, al
; Line 1483
	ret	0
?registerConverter@?$SequentialContainerConverterHelper@PEAVQAction@@$0A@@QtPrivate@@SA_NH@Z ENDP ; QtPrivate::SequentialContainerConverterHelper<QAction * __ptr64,0>::registerConverter
_TEXT	ENDS
; Function compile flags: /Odtp
;	COMDAT ?value@?$MetaObjectForType@PEAVQAction@@X@QtPrivate@@SAPEBUQMetaObject@@XZ
_TEXT	SEGMENT
?value@?$MetaObjectForType@PEAVQAction@@X@QtPrivate@@SAPEBUQMetaObject@@XZ PROC ; QtPrivate::MetaObjectForType<QAction * __ptr64,void>::value, COMDAT
; File c:\qt\qt5.9.3\5.9.3\msvc2015_64\include\qtcore\qmetatype.h
; Line 1418
	mov	rax, QWORD PTR __imp_?staticMetaObject@QAction@@2UQMetaObject@@B
	ret	0
?value@?$MetaObjectForType@PEAVQAction@@X@QtPrivate@@SAPEBUQMetaObject@@XZ ENDP ; QtPrivate::MetaObjectForType<QAction * __ptr64,void>::value
_TEXT	ENDS
; Function compile flags: /Odtp
;	COMDAT ?Construct@?$QMetaTypeFunctionHelper@PEAVQAction@@$00@QtMetaTypePrivate@@SAPEAXPEAXPEBX@Z
_TEXT	SEGMENT
$T1 = 32
tv72 = 40
$T2 = 48
where$ = 80
t$ = 88
?Construct@?$QMetaTypeFunctionHelper@PEAVQAction@@$00@QtMetaTypePrivate@@SAPEAXPEAXPEBX@Z PROC ; QtMetaTypePrivate::QMetaTypeFunctionHelper<QAction * __ptr64,1>::Construct, COMDAT
; File c:\qt\qt5.9.3\5.9.3\msvc2015_64\include\qtcore\qmetatype.h
; Line 763
$LN6:
	mov	QWORD PTR [rsp+16], rdx
	mov	QWORD PTR [rsp+8], rcx
	sub	rsp, 72					; 00000048H
; Line 764
	cmp	QWORD PTR t$[rsp], 0
	je	SHORT $LN2@Construct
; Line 765
	mov	rdx, QWORD PTR where$[rsp]
	mov	ecx, 8
	call	??2@YAPEAX_KPEAX@Z			; operator new
	mov	QWORD PTR $T1[rsp], rax
	cmp	QWORD PTR $T1[rsp], 0
	je	SHORT $LN4@Construct
	mov	rax, QWORD PTR $T1[rsp]
	mov	rcx, QWORD PTR t$[rsp]
	mov	rcx, QWORD PTR [rcx]
	mov	QWORD PTR [rax], rcx
	mov	rax, QWORD PTR $T1[rsp]
	mov	QWORD PTR tv72[rsp], rax
	jmp	SHORT $LN5@Construct
$LN4@Construct:
	mov	QWORD PTR tv72[rsp], 0
$LN5@Construct:
	mov	rax, QWORD PTR tv72[rsp]
	jmp	SHORT $LN1@Construct
$LN2@Construct:
; Line 766
	mov	rdx, QWORD PTR where$[rsp]
	mov	ecx, 8
	call	??2@YAPEAX_KPEAX@Z			; operator new
	mov	QWORD PTR $T2[rsp], rax
	mov	rax, QWORD PTR $T2[rsp]
$LN1@Construct:
; Line 767
	add	rsp, 72					; 00000048H
	ret	0
?Construct@?$QMetaTypeFunctionHelper@PEAVQAction@@$00@QtMetaTypePrivate@@SAPEAXPEAXPEBX@Z ENDP ; QtMetaTypePrivate::QMetaTypeFunctionHelper<QAction * __ptr64,1>::Construct
_TEXT	ENDS
; Function compile flags: /Odtp
;	COMDAT ?Destruct@?$QMetaTypeFunctionHelper@PEAVQAction@@$00@QtMetaTypePrivate@@SAXPEAX@Z
_TEXT	SEGMENT
t$ = 8
?Destruct@?$QMetaTypeFunctionHelper@PEAVQAction@@$00@QtMetaTypePrivate@@SAXPEAX@Z PROC ; QtMetaTypePrivate::QMetaTypeFunctionHelper<QAction * __ptr64,1>::Destruct, COMDAT
; File c:\qt\qt5.9.3\5.9.3\msvc2015_64\include\qtcore\qmetatype.h
; Line 757
	mov	QWORD PTR [rsp+8], rcx
; Line 760
	ret	0
?Destruct@?$QMetaTypeFunctionHelper@PEAVQAction@@$00@QtMetaTypePrivate@@SAXPEAX@Z ENDP ; QtMetaTypePrivate::QMetaTypeFunctionHelper<QAction * __ptr64,1>::Destruct
_TEXT	ENDS
; Function compile flags: /Odtp
;	COMDAT ?qt_metatype_id@?$QMetaTypeIdHelper@PEAVQAction@@$00@QtPrivate@@SAHXZ
_TEXT	SEGMENT
?qt_metatype_id@?$QMetaTypeIdHelper@PEAVQAction@@$00@QtPrivate@@SAHXZ PROC ; QtPrivate::QMetaTypeIdHelper<QAction * __ptr64,1>::qt_metatype_id, COMDAT
; File c:\qt\qt5.9.3\5.9.3\msvc2015_64\include\qtcore\qmetatype.h
; Line 1611
$LN3:
	sub	rsp, 40					; 00000028H
	call	?qt_metatype_id@?$QMetaTypeId2@PEAVQAction@@@@SAHXZ ; QMetaTypeId2<QAction * __ptr64>::qt_metatype_id
	add	rsp, 40					; 00000028H
	ret	0
?qt_metatype_id@?$QMetaTypeIdHelper@PEAVQAction@@$00@QtPrivate@@SAHXZ ENDP ; QtPrivate::QMetaTypeIdHelper<QAction * __ptr64,1>::qt_metatype_id
_TEXT	ENDS
; Function compile flags: /Odtp
;	COMDAT ??$qRegisterNormalizedMetaType@PEAVQAction@@@@YAHAEBVQByteArray@@PEAPEAVQAction@@W4DefinedType@?$MetaTypeDefinedHelper@PEAVQAction@@$00@QtPrivate@@@Z
_TEXT	SEGMENT
id$ = 48
tv83 = 52
typedefOf$ = 56
flags$ = 60
tv80 = 64
$T1 = 68
tv145 = 72
tv144 = 80
$T2 = 88
$T3 = 96
$T4 = 104
normalizedTypeName$ = 128
dummy$ = 136
defined$ = 144
??$qRegisterNormalizedMetaType@PEAVQAction@@@@YAHAEBVQByteArray@@PEAPEAVQAction@@W4DefinedType@?$MetaTypeDefinedHelper@PEAVQAction@@$00@QtPrivate@@@Z PROC ; qRegisterNormalizedMetaType<QAction * __ptr64>, COMDAT
; File c:\qt\qt5.9.3\5.9.3\msvc2015_64\include\qtcore\qmetatype.h
; Line 1669
$LN11:
	mov	DWORD PTR [rsp+24], r8d
	mov	QWORD PTR [rsp+16], rdx
	mov	QWORD PTR [rsp+8], rcx
	sub	rsp, 120				; 00000078H
	mov	QWORD PTR $T4[rsp], -2
; Line 1671
	mov	rcx, QWORD PTR normalizedTypeName$[rsp]
	call	QWORD PTR __imp_?constData@QByteArray@@QEBAPEBDXZ
	mov	rdx, rax
	lea	rcx, QWORD PTR $T2[rsp]
	call	QWORD PTR __imp_?normalizedType@QMetaObject@@SA?AVQByteArray@@PEBD@Z
	mov	QWORD PTR tv145[rsp], rax
	mov	rax, QWORD PTR tv145[rsp]
	mov	QWORD PTR tv144[rsp], rax
	mov	rdx, QWORD PTR tv144[rsp]
	mov	rcx, QWORD PTR normalizedTypeName$[rsp]
	call	??8@YA_NAEBVQByteArray@@0@Z		; operator==
	movzx	eax, al
	test	eax, eax
	jne	SHORT $LN6@qRegisterN
	mov	r9d, 1671				; 00000687H
	lea	r8, OFFSET FLAT:$SG145799
	lea	rdx, OFFSET FLAT:$SG145800
	lea	rcx, OFFSET FLAT:$SG145801
	call	QWORD PTR __imp_?qt_assert_x@@YAXPEBD00H@Z
	mov	DWORD PTR tv80[rsp], 0
	jmp	SHORT $LN7@qRegisterN
$LN6@qRegisterN:
	call	?qt_noop@@YAXXZ				; qt_noop
	mov	DWORD PTR tv80[rsp], 0
$LN7@qRegisterN:
	lea	rcx, QWORD PTR $T2[rsp]
	call	QWORD PTR __imp_??1QByteArray@@QEAA@XZ
; Line 1673
	cmp	QWORD PTR dummy$[rsp], 0
	je	SHORT $LN8@qRegisterN
	mov	DWORD PTR tv83[rsp], -1
	jmp	SHORT $LN9@qRegisterN
$LN8@qRegisterN:
	call	?qt_metatype_id@?$QMetaTypeIdHelper@PEAVQAction@@$00@QtPrivate@@SAHXZ ; QtPrivate::QMetaTypeIdHelper<QAction * __ptr64,1>::qt_metatype_id
	mov	DWORD PTR tv83[rsp], eax
$LN9@qRegisterN:
	mov	eax, DWORD PTR tv83[rsp]
	mov	DWORD PTR typedefOf$[rsp], eax
; Line 1674
	cmp	DWORD PTR typedefOf$[rsp], -1
	je	SHORT $LN2@qRegisterN
; Line 1675
	mov	edx, DWORD PTR typedefOf$[rsp]
	mov	rcx, QWORD PTR normalizedTypeName$[rsp]
	call	QWORD PTR __imp_?registerNormalizedTypedef@QMetaType@@SAHAEBVQByteArray@@H@Z
	jmp	$LN1@qRegisterN
$LN2@qRegisterN:
; Line 1677
	lea	rax, QWORD PTR $T1[rsp]
	mov	QWORD PTR $T3[rsp], rax
	mov	edx, 12
	mov	rcx, QWORD PTR $T3[rsp]
	call	??0QFlag@@QEAA@H@Z			; QFlag::QFlag
	mov	edx, DWORD PTR [rax]
	lea	rcx, QWORD PTR flags$[rsp]
	call	??0?$QFlags@W4TypeFlag@QMetaType@@@@QEAA@VQFlag@@@Z ; QFlags<enum QMetaType::TypeFlag>::QFlags<enum QMetaType::TypeFlag>
; Line 1679
	cmp	DWORD PTR defined$[rsp], 0
	je	SHORT $LN3@qRegisterN
; Line 1680
	mov	edx, 256				; 00000100H
	lea	rcx, QWORD PTR flags$[rsp]
	call	??_5?$QFlags@W4TypeFlag@QMetaType@@@@QEAAAEAV0@W4TypeFlag@QMetaType@@@Z ; QFlags<enum QMetaType::TypeFlag>::operator|=
$LN3@qRegisterN:
; Line 1682
	call	?value@?$MetaObjectForType@PEAVQAction@@X@QtPrivate@@SAPEBUQMetaObject@@XZ ; QtPrivate::MetaObjectForType<QAction * __ptr64,void>::value
	mov	QWORD PTR [rsp+40], rax
	mov	eax, DWORD PTR flags$[rsp]
	mov	DWORD PTR [rsp+32], eax
	mov	r9d, 8
	lea	r8, OFFSET FLAT:?Construct@?$QMetaTypeFunctionHelper@PEAVQAction@@$00@QtMetaTypePrivate@@SAPEAXPEAXPEBX@Z ; QtMetaTypePrivate::QMetaTypeFunctionHelper<QAction * __ptr64,1>::Construct
	lea	rdx, OFFSET FLAT:?Destruct@?$QMetaTypeFunctionHelper@PEAVQAction@@$00@QtMetaTypePrivate@@SAXPEAX@Z ; QtMetaTypePrivate::QMetaTypeFunctionHelper<QAction * __ptr64,1>::Destruct
	mov	rcx, QWORD PTR normalizedTypeName$[rsp]
	call	QWORD PTR __imp_?registerNormalizedType@QMetaType@@SAHAEBVQByteArray@@P6AXPEAX@ZP6APEAX1PEBX@ZHV?$QFlags@W4TypeFlag@QMetaType@@@@PEBUQMetaObject@@@Z
	mov	DWORD PTR id$[rsp], eax
; Line 1689
	cmp	DWORD PTR id$[rsp], 0
	jle	SHORT $LN4@qRegisterN
; Line 1690
	mov	ecx, DWORD PTR id$[rsp]
	call	?registerConverter@?$SequentialContainerConverterHelper@PEAVQAction@@$0A@@QtPrivate@@SA_NH@Z ; QtPrivate::SequentialContainerConverterHelper<QAction * __ptr64,0>::registerConverter
; Line 1691
	mov	ecx, DWORD PTR id$[rsp]
	call	?registerConverter@?$AssociativeContainerConverterHelper@PEAVQAction@@$0A@@QtPrivate@@SA_NH@Z ; QtPrivate::AssociativeContainerConverterHelper<QAction * __ptr64,0>::registerConverter
; Line 1692
	mov	ecx, DWORD PTR id$[rsp]
	call	?registerConverter@?$IsPair@PEAVQAction@@@QtPrivate@@SA_NH@Z ; QtPrivate::IsPair<QAction * __ptr64>::registerConverter
; Line 1693
	mov	ecx, DWORD PTR id$[rsp]
	call	?registerConverter@?$MetaTypeSmartPointerHelper@PEAVQAction@@X@QtPrivate@@SA_NH@Z ; QtPrivate::MetaTypeSmartPointerHelper<QAction * __ptr64,void>::registerConverter
$LN4@qRegisterN:
; Line 1696
	mov	eax, DWORD PTR id$[rsp]
$LN1@qRegisterN:
; Line 1697
	add	rsp, 120				; 00000078H
	ret	0
??$qRegisterNormalizedMetaType@PEAVQAction@@@@YAHAEBVQByteArray@@PEAPEAVQAction@@W4DefinedType@?$MetaTypeDefinedHelper@PEAVQAction@@$00@QtPrivate@@@Z ENDP ; qRegisterNormalizedMetaType<QAction * __ptr64>
_TEXT	ENDS
;	COMDAT text$x
text$x	SEGMENT
id$ = 48
tv83 = 52
typedefOf$ = 56
flags$ = 60
tv80 = 64
$T1 = 68
tv145 = 72
tv144 = 80
$T2 = 88
$T3 = 96
$T4 = 104
normalizedTypeName$ = 128
dummy$ = 136
defined$ = 144
?dtor$0@?0???$qRegisterNormalizedMetaType@PEAVQAction@@@@YAHAEBVQByteArray@@PEAPEAVQAction@@W4DefinedType@?$MetaTypeDefinedHelper@PEAVQAction@@$00@QtPrivate@@@Z@4HA PROC ; `qRegisterNormalizedMetaType<QAction * __ptr64>'::`1'::dtor$0
	push	rbp
	sub	rsp, 32					; 00000020H
	mov	rbp, rdx
	lea	rcx, QWORD PTR $T2[rbp]
	call	QWORD PTR __imp_??1QByteArray@@QEAA@XZ
	add	rsp, 32					; 00000020H
	pop	rbp
	ret	0
?dtor$0@?0???$qRegisterNormalizedMetaType@PEAVQAction@@@@YAHAEBVQByteArray@@PEAPEAVQAction@@W4DefinedType@?$MetaTypeDefinedHelper@PEAVQAction@@$00@QtPrivate@@@Z@4HA ENDP ; `qRegisterNormalizedMetaType<QAction * __ptr64>'::`1'::dtor$0
text$x	ENDS
; Function compile flags: /Odtp
;	COMDAT text$x
text$x	SEGMENT
id$ = 48
tv83 = 52
typedefOf$ = 56
flags$ = 60
tv80 = 64
$T1 = 68
tv145 = 72
tv144 = 80
$T2 = 88
$T3 = 96
$T4 = 104
normalizedTypeName$ = 128
dummy$ = 136
defined$ = 144
?dtor$0@?0???$qRegisterNormalizedMetaType@PEAVQAction@@@@YAHAEBVQByteArray@@PEAPEAVQAction@@W4DefinedType@?$MetaTypeDefinedHelper@PEAVQAction@@$00@QtPrivate@@@Z@4HA PROC ; `qRegisterNormalizedMetaType<QAction * __ptr64>'::`1'::dtor$0
	push	rbp
	sub	rsp, 32					; 00000020H
	mov	rbp, rdx
	lea	rcx, QWORD PTR $T2[rbp]
	call	QWORD PTR __imp_??1QByteArray@@QEAA@XZ
	add	rsp, 32					; 00000020H
	pop	rbp
	ret	0
?dtor$0@?0???$qRegisterNormalizedMetaType@PEAVQAction@@@@YAHAEBVQByteArray@@PEAPEAVQAction@@W4DefinedType@?$MetaTypeDefinedHelper@PEAVQAction@@$00@QtPrivate@@@Z@4HA ENDP ; `qRegisterNormalizedMetaType<QAction * __ptr64>'::`1'::dtor$0
text$x	ENDS
; Function compile flags: /Odtp
;	COMDAT ??$orderedMemoryFence@H@?$QGenericAtomicOps@U?$QAtomicOpsBySize@$03@@@@SAXAEBH@Z
_TEXT	SEGMENT
__formal$ = 8
??$orderedMemoryFence@H@?$QGenericAtomicOps@U?$QAtomicOpsBySize@$03@@@@SAXAEBH@Z PROC ; QGenericAtomicOps<QAtomicOpsBySize<4> >::orderedMemoryFence<int>, COMDAT
; File c:\qt\qt5.9.3\5.9.3\msvc2015_64\include\qtcore\qgenericatomic.h
; Line 84
	mov	QWORD PTR [rsp+8], rcx
; Line 85
	ret	0
??$orderedMemoryFence@H@?$QGenericAtomicOps@U?$QAtomicOpsBySize@$03@@@@SAXAEBH@Z ENDP ; QGenericAtomicOps<QAtomicOpsBySize<4> >::orderedMemoryFence<int>
_TEXT	ENDS
; Function compile flags: /Odtp
;	COMDAT ?qt_metatype_id@?$QMetaTypeId2@PEAVQAction@@@@SAHXZ
_TEXT	SEGMENT
?qt_metatype_id@?$QMetaTypeId2@PEAVQAction@@@@SAHXZ PROC ; QMetaTypeId2<QAction * __ptr64>::qt_metatype_id, COMDAT
; File c:\qt\qt5.9.3\5.9.3\msvc2015_64\include\qtcore\qmetatype.h
; Line 1598
$LN3:
	sub	rsp, 40					; 00000028H
	call	?qt_metatype_id@?$QMetaTypeIdQObject@PEAVQAction@@$07@@SAHXZ ; QMetaTypeIdQObject<QAction * __ptr64,8>::qt_metatype_id
	add	rsp, 40					; 00000028H
	ret	0
?qt_metatype_id@?$QMetaTypeId2@PEAVQAction@@@@SAHXZ ENDP ; QMetaTypeId2<QAction * __ptr64>::qt_metatype_id
_TEXT	ENDS
; Function compile flags: /Odtp
;	COMDAT ?qt_metatype_id@?$QMetaTypeIdQObject@PEAVQAction@@$07@@SAHXZ
_TEXT	SEGMENT
id$1 = 32
newId$ = 36
$T2 = 40
typeName$ = 48
cName$ = 56
$T3 = 64
?qt_metatype_id@?$QMetaTypeIdQObject@PEAVQAction@@$07@@SAHXZ PROC ; QMetaTypeIdQObject<QAction * __ptr64,8>::qt_metatype_id, COMDAT
; File c:\qt\qt5.9.3\5.9.3\msvc2015_64\include\qtcore\qmetatype.h
; Line 1763
$LN5:
	sub	rsp, 88					; 00000058H
	mov	QWORD PTR $T3[rsp], -2
; Line 1765
	lea	rcx, OFFSET FLAT:?metatype_id@?1??qt_metatype_id@?$QMetaTypeIdQObject@PEAVQAction@@$07@@SAHXZ@4V?$QBasicAtomicInteger@H@@A ; `QMetaTypeIdQObject<QAction * __ptr64,8>::qt_metatype_id'::`2'::metatype_id
	call	?loadAcquire@?$QBasicAtomicInteger@H@@QEBAHXZ ; QBasicAtomicInteger<int>::loadAcquire
	mov	DWORD PTR id$1[rsp], eax
	cmp	DWORD PTR id$1[rsp], 0
	je	SHORT $LN2@qt_metatyp
; Line 1766
	mov	eax, DWORD PTR id$1[rsp]
	jmp	$LN1@qt_metatyp
$LN2@qt_metatyp:
; Line 1767
	mov	rcx, QWORD PTR __imp_?staticMetaObject@QAction@@2UQMetaObject@@B
	call	QWORD PTR __imp_?className@QMetaObject@@QEBAPEBDXZ
	mov	QWORD PTR cName$[rsp], rax
; Line 1768
	lea	rcx, QWORD PTR typeName$[rsp]
	call	QWORD PTR __imp_??0QByteArray@@QEAA@XZ
	npad	1
; Line 1769
	mov	rcx, QWORD PTR cName$[rsp]
	call	strlen
	inc	eax
	mov	edx, eax
	lea	rcx, QWORD PTR typeName$[rsp]
	call	QWORD PTR __imp_?reserve@QByteArray@@QEAAXH@Z
; Line 1770
	mov	rdx, QWORD PTR cName$[rsp]
	lea	rcx, QWORD PTR typeName$[rsp]
	call	QWORD PTR __imp_?append@QByteArray@@QEAAAEAV1@PEBD@Z
	mov	dl, 42					; 0000002aH
	mov	rcx, rax
	call	QWORD PTR __imp_?append@QByteArray@@QEAAAEAV1@D@Z
; Line 1771
	mov	r8d, 1
	mov	rdx, -1
	lea	rcx, QWORD PTR typeName$[rsp]
	call	??$qRegisterNormalizedMetaType@PEAVQAction@@@@YAHAEBVQByteArray@@PEAPEAVQAction@@W4DefinedType@?$MetaTypeDefinedHelper@PEAVQAction@@$00@QtPrivate@@@Z ; qRegisterNormalizedMetaType<QAction * __ptr64>
	mov	DWORD PTR newId$[rsp], eax
; Line 1774
	mov	edx, DWORD PTR newId$[rsp]
	lea	rcx, OFFSET FLAT:?metatype_id@?1??qt_metatype_id@?$QMetaTypeIdQObject@PEAVQAction@@$07@@SAHXZ@4V?$QBasicAtomicInteger@H@@A ; `QMetaTypeIdQObject<QAction * __ptr64,8>::qt_metatype_id'::`2'::metatype_id
	call	?storeRelease@?$QBasicAtomicInteger@H@@QEAAXH@Z ; QBasicAtomicInteger<int>::storeRelease
; Line 1775
	mov	eax, DWORD PTR newId$[rsp]
	mov	DWORD PTR $T2[rsp], eax
	lea	rcx, QWORD PTR typeName$[rsp]
	call	QWORD PTR __imp_??1QByteArray@@QEAA@XZ
	mov	eax, DWORD PTR $T2[rsp]
$LN1@qt_metatyp:
; Line 1776
	add	rsp, 88					; 00000058H
	ret	0
?qt_metatype_id@?$QMetaTypeIdQObject@PEAVQAction@@$07@@SAHXZ ENDP ; QMetaTypeIdQObject<QAction * __ptr64,8>::qt_metatype_id
_TEXT	ENDS
;	COMDAT text$x
text$x	SEGMENT
id$1 = 32
newId$ = 36
$T2 = 40
typeName$ = 48
cName$ = 56
$T3 = 64
?dtor$0@?0??qt_metatype_id@?$QMetaTypeIdQObject@PEAVQAction@@$07@@SAHXZ@4HA PROC ; `QMetaTypeIdQObject<QAction * __ptr64,8>::qt_metatype_id'::`1'::dtor$0
	push	rbp
	sub	rsp, 32					; 00000020H
	mov	rbp, rdx
	lea	rcx, QWORD PTR typeName$[rbp]
	call	QWORD PTR __imp_??1QByteArray@@QEAA@XZ
	add	rsp, 32					; 00000020H
	pop	rbp
	ret	0
?dtor$0@?0??qt_metatype_id@?$QMetaTypeIdQObject@PEAVQAction@@$07@@SAHXZ@4HA ENDP ; `QMetaTypeIdQObject<QAction * __ptr64,8>::qt_metatype_id'::`1'::dtor$0
text$x	ENDS
; Function compile flags: /Odtp
;	COMDAT text$x
text$x	SEGMENT
id$1 = 32
newId$ = 36
$T2 = 40
typeName$ = 48
cName$ = 56
$T3 = 64
?dtor$0@?0??qt_metatype_id@?$QMetaTypeIdQObject@PEAVQAction@@$07@@SAHXZ@4HA PROC ; `QMetaTypeIdQObject<QAction * __ptr64,8>::qt_metatype_id'::`1'::dtor$0
	push	rbp
	sub	rsp, 32					; 00000020H
	mov	rbp, rdx
	lea	rcx, QWORD PTR typeName$[rbp]
	call	QWORD PTR __imp_??1QByteArray@@QEAA@XZ
	add	rsp, 32					; 00000020H
	pop	rbp
	ret	0
?dtor$0@?0??qt_metatype_id@?$QMetaTypeIdQObject@PEAVQAction@@$07@@SAHXZ@4HA ENDP ; `QMetaTypeIdQObject<QAction * __ptr64,8>::qt_metatype_id'::`1'::dtor$0
text$x	ENDS
; Function compile flags: /Odtp
;	COMDAT ??$acquireMemoryFence@H@?$QGenericAtomicOps@U?$QAtomicOpsBySize@$03@@@@SAXAEBH@Z
_TEXT	SEGMENT
_q_value$ = 48
??$acquireMemoryFence@H@?$QGenericAtomicOps@U?$QAtomicOpsBySize@$03@@@@SAXAEBH@Z PROC ; QGenericAtomicOps<QAtomicOpsBySize<4> >::acquireMemoryFence<int>, COMDAT
; File c:\qt\qt5.9.3\5.9.3\msvc2015_64\include\qtcore\qgenericatomic.h
; Line 76
$LN3:
	mov	QWORD PTR [rsp+8], rcx
	sub	rsp, 40					; 00000028H
; Line 77
	mov	rcx, QWORD PTR _q_value$[rsp]
	call	??$orderedMemoryFence@H@?$QGenericAtomicOps@U?$QAtomicOpsBySize@$03@@@@SAXAEBH@Z ; QGenericAtomicOps<QAtomicOpsBySize<4> >::orderedMemoryFence<int>
; Line 78
	add	rsp, 40					; 00000028H
	ret	0
??$acquireMemoryFence@H@?$QGenericAtomicOps@U?$QAtomicOpsBySize@$03@@@@SAXAEBH@Z ENDP ; QGenericAtomicOps<QAtomicOpsBySize<4> >::acquireMemoryFence<int>
_TEXT	ENDS
; Function compile flags: /Odtp
;	COMDAT ??$releaseMemoryFence@H@?$QGenericAtomicOps@U?$QAtomicOpsBySize@$03@@@@SAXAEBH@Z
_TEXT	SEGMENT
_q_value$ = 48
??$releaseMemoryFence@H@?$QGenericAtomicOps@U?$QAtomicOpsBySize@$03@@@@SAXAEBH@Z PROC ; QGenericAtomicOps<QAtomicOpsBySize<4> >::releaseMemoryFence<int>, COMDAT
; File c:\qt\qt5.9.3\5.9.3\msvc2015_64\include\qtcore\qgenericatomic.h
; Line 80
$LN3:
	mov	QWORD PTR [rsp+8], rcx
	sub	rsp, 40					; 00000028H
; Line 81
	mov	rcx, QWORD PTR _q_value$[rsp]
	call	??$orderedMemoryFence@H@?$QGenericAtomicOps@U?$QAtomicOpsBySize@$03@@@@SAXAEBH@Z ; QGenericAtomicOps<QAtomicOpsBySize<4> >::orderedMemoryFence<int>
; Line 82
	add	rsp, 40					; 00000028H
	ret	0
??$releaseMemoryFence@H@?$QGenericAtomicOps@U?$QAtomicOpsBySize@$03@@@@SAXAEBH@Z ENDP ; QGenericAtomicOps<QAtomicOpsBySize<4> >::releaseMemoryFence<int>
_TEXT	ENDS
; Function compile flags: /Odtp
;	COMDAT ??$qMetaTypeId@PEAVQAction@@@@YAHXZ
_TEXT	SEGMENT
??$qMetaTypeId@PEAVQAction@@@@YAHXZ PROC		; qMetaTypeId<QAction * __ptr64>, COMDAT
; File c:\qt\qt5.9.3\5.9.3\msvc2015_64\include\qtcore\qmetatype.h
; Line 1731
$LN3:
	sub	rsp, 40					; 00000028H
; Line 1733
	call	?qt_metatype_id@?$QMetaTypeId2@PEAVQAction@@@@SAHXZ ; QMetaTypeId2<QAction * __ptr64>::qt_metatype_id
; Line 1734
	add	rsp, 40					; 00000028H
	ret	0
??$qMetaTypeId@PEAVQAction@@@@YAHXZ ENDP		; qMetaTypeId<QAction * __ptr64>
_TEXT	ENDS
; Function compile flags: /Odtp
;	COMDAT ??$loadAcquire@H@?$QGenericAtomicOps@U?$QAtomicOpsBySize@$03@@@@SAHAEBH@Z
_TEXT	SEGMENT
tmp$ = 32
_q_value$ = 64
??$loadAcquire@H@?$QGenericAtomicOps@U?$QAtomicOpsBySize@$03@@@@SAHAEBH@Z PROC ; QGenericAtomicOps<QAtomicOpsBySize<4> >::loadAcquire<int>, COMDAT
; File c:\qt\qt5.9.3\5.9.3\msvc2015_64\include\qtcore\qgenericatomic.h
; Line 101
$LN3:
	mov	QWORD PTR [rsp+8], rcx
	sub	rsp, 56					; 00000038H
; Line 102
	mov	rax, QWORD PTR _q_value$[rsp]
	mov	eax, DWORD PTR [rax]
	mov	DWORD PTR tmp$[rsp], eax
; Line 103
	mov	rcx, QWORD PTR _q_value$[rsp]
	call	??$acquireMemoryFence@H@?$QGenericAtomicOps@U?$QAtomicOpsBySize@$03@@@@SAXAEBH@Z ; QGenericAtomicOps<QAtomicOpsBySize<4> >::acquireMemoryFence<int>
; Line 104
	mov	eax, DWORD PTR tmp$[rsp]
; Line 105
	add	rsp, 56					; 00000038H
	ret	0
??$loadAcquire@H@?$QGenericAtomicOps@U?$QAtomicOpsBySize@$03@@@@SAHAEBH@Z ENDP ; QGenericAtomicOps<QAtomicOpsBySize<4> >::loadAcquire<int>
_TEXT	ENDS
; Function compile flags: /Odtp
;	COMDAT ??$storeRelease@HH@?$QGenericAtomicOps@U?$QAtomicOpsBySize@$03@@@@SAXAEAHH@Z
_TEXT	SEGMENT
_q_value$ = 48
newValue$ = 56
??$storeRelease@HH@?$QGenericAtomicOps@U?$QAtomicOpsBySize@$03@@@@SAXAEAHH@Z PROC ; QGenericAtomicOps<QAtomicOpsBySize<4> >::storeRelease<int,int>, COMDAT
; File c:\qt\qt5.9.3\5.9.3\msvc2015_64\include\qtcore\qgenericatomic.h
; Line 109
$LN3:
	mov	DWORD PTR [rsp+16], edx
	mov	QWORD PTR [rsp+8], rcx
	sub	rsp, 40					; 00000028H
; Line 110
	mov	rcx, QWORD PTR _q_value$[rsp]
	call	??$releaseMemoryFence@H@?$QGenericAtomicOps@U?$QAtomicOpsBySize@$03@@@@SAXAEBH@Z ; QGenericAtomicOps<QAtomicOpsBySize<4> >::releaseMemoryFence<int>
; Line 111
	mov	rax, QWORD PTR _q_value$[rsp]
	mov	ecx, DWORD PTR newValue$[rsp]
	mov	DWORD PTR [rax], ecx
; Line 112
	add	rsp, 40					; 00000028H
	ret	0
??$storeRelease@HH@?$QGenericAtomicOps@U?$QAtomicOpsBySize@$03@@@@SAXAEAHH@Z ENDP ; QGenericAtomicOps<QAtomicOpsBySize<4> >::storeRelease<int,int>
_TEXT	ENDS
; Function compile flags: /Odtp
;	COMDAT ??__E?staticMetaObject@ImageWindow@@2UQMetaObject@@B@@YAXXZ
text$di	SEGMENT
??__E?staticMetaObject@ImageWindow@@2UQMetaObject@@B@@YAXXZ PROC ; `dynamic initializer for 'ImageWindow::staticMetaObject'', COMDAT
; File e:\g12_work\weidali_code\b\g12_4_b\ui\src\visionimageuitool\x64\debug\moc\moc_imagewindow.cpp
; Line 340
	mov	rax, QWORD PTR __imp_?staticMetaObject@QMainWindow@@2UQMetaObject@@B
	mov	QWORD PTR ?staticMetaObject@ImageWindow@@2UQMetaObject@@B, rax
	lea	rax, OFFSET FLAT:?qt_meta_stringdata_ImageWindow@@3Uqt_meta_stringdata_ImageWindow_t@@B
	mov	QWORD PTR ?staticMetaObject@ImageWindow@@2UQMetaObject@@B+8, rax
; Line 341
	lea	rax, OFFSET FLAT:?qt_meta_data_ImageWindow@@3QBIB
	mov	QWORD PTR ?staticMetaObject@ImageWindow@@2UQMetaObject@@B+16, rax
	lea	rax, OFFSET FLAT:?qt_static_metacall@ImageWindow@@CAXPEAVQObject@@W4Call@QMetaObject@@HPEAPEAX@Z ; ImageWindow::qt_static_metacall
	mov	QWORD PTR ?staticMetaObject@ImageWindow@@2UQMetaObject@@B+24, rax
	mov	QWORD PTR ?staticMetaObject@ImageWindow@@2UQMetaObject@@B+32, 0
	mov	QWORD PTR ?staticMetaObject@ImageWindow@@2UQMetaObject@@B+40, 0
	ret	0
??__E?staticMetaObject@ImageWindow@@2UQMetaObject@@B@@YAXXZ ENDP ; `dynamic initializer for 'ImageWindow::staticMetaObject''
text$di	ENDS
; Function compile flags: /Odtp
;	COMDAT ??$qRegisterMetaType@PEAVQAction@@@@YAHXZ
_TEXT	SEGMENT
??$qRegisterMetaType@PEAVQAction@@@@YAHXZ PROC		; qRegisterMetaType<QAction * __ptr64>, COMDAT
; File c:\qt\qt5.9.3\5.9.3\msvc2015_64\include\qtcore\qmetatype.h
; Line 1738
$LN3:
	sub	rsp, 40					; 00000028H
; Line 1739
	call	??$qMetaTypeId@PEAVQAction@@@@YAHXZ	; qMetaTypeId<QAction * __ptr64>
; Line 1740
	add	rsp, 40					; 00000028H
	ret	0
??$qRegisterMetaType@PEAVQAction@@@@YAHXZ ENDP		; qRegisterMetaType<QAction * __ptr64>
_TEXT	ENDS
; Function compile flags: /Odtp
_TEXT	SEGMENT
_a$ = 32
this$ = 64
_t1$ = 72
?sigItemSelectChanged@ImageWindow@@QEAAXH@Z PROC	; ImageWindow::sigItemSelectChanged
; File e:\g12_work\weidali_code\b\g12_4_b\ui\src\visionimageuitool\x64\debug\moc\moc_imagewindow.cpp
; Line 390
$LN3:
	mov	DWORD PTR [rsp+16], edx
	mov	QWORD PTR [rsp+8], rcx
	sub	rsp, 56					; 00000038H
; Line 391
	mov	QWORD PTR _a$[rsp], 0
	lea	rax, QWORD PTR _t1$[rsp]
	mov	QWORD PTR _a$[rsp+8], rax
; Line 392
	lea	r9, QWORD PTR _a$[rsp]
	mov	r8d, 2
	lea	rdx, OFFSET FLAT:?staticMetaObject@ImageWindow@@2UQMetaObject@@B ; ImageWindow::staticMetaObject
	mov	rcx, QWORD PTR this$[rsp]
	call	QWORD PTR __imp_?activate@QMetaObject@@SAXPEAVQObject@@PEBU1@HPEAPEAX@Z
; Line 393
	add	rsp, 56					; 00000038H
	ret	0
?sigItemSelectChanged@ImageWindow@@QEAAXH@Z ENDP	; ImageWindow::sigItemSelectChanged
_TEXT	ENDS
; Function compile flags: /Odtp
_TEXT	SEGMENT
_a$ = 32
this$ = 64
_t1$ = 72
?sigItemRBtDoubleCliecked@ImageWindow@@QEAAXAEAVQPointF@@@Z PROC ; ImageWindow::sigItemRBtDoubleCliecked
; File e:\g12_work\weidali_code\b\g12_4_b\ui\src\visionimageuitool\x64\debug\moc\moc_imagewindow.cpp
; Line 383
$LN3:
	mov	QWORD PTR [rsp+16], rdx
	mov	QWORD PTR [rsp+8], rcx
	sub	rsp, 56					; 00000038H
; Line 384
	mov	QWORD PTR _a$[rsp], 0
	mov	rax, QWORD PTR _t1$[rsp]
	mov	QWORD PTR _a$[rsp+8], rax
; Line 385
	lea	r9, QWORD PTR _a$[rsp]
	mov	r8d, 1
	lea	rdx, OFFSET FLAT:?staticMetaObject@ImageWindow@@2UQMetaObject@@B ; ImageWindow::staticMetaObject
	mov	rcx, QWORD PTR this$[rsp]
	call	QWORD PTR __imp_?activate@QMetaObject@@SAXPEAVQObject@@PEBU1@HPEAPEAX@Z
; Line 386
	add	rsp, 56					; 00000038H
	ret	0
?sigItemRBtDoubleCliecked@ImageWindow@@QEAAXAEAVQPointF@@@Z ENDP ; ImageWindow::sigItemRBtDoubleCliecked
_TEXT	ENDS
; Function compile flags: /Odtp
_TEXT	SEGMENT
this$ = 48
?sigItemMoveFinished@ImageWindow@@QEAAXXZ PROC		; ImageWindow::sigItemMoveFinished
; File e:\g12_work\weidali_code\b\g12_4_b\ui\src\visionimageuitool\x64\debug\moc\moc_imagewindow.cpp
; Line 377
$LN3:
	mov	QWORD PTR [rsp+8], rcx
	sub	rsp, 40					; 00000028H
; Line 378
	xor	r9d, r9d
	xor	r8d, r8d
	lea	rdx, OFFSET FLAT:?staticMetaObject@ImageWindow@@2UQMetaObject@@B ; ImageWindow::staticMetaObject
	mov	rcx, QWORD PTR this$[rsp]
	call	QWORD PTR __imp_?activate@QMetaObject@@SAXPEAVQObject@@PEBU1@HPEAPEAX@Z
; Line 379
	add	rsp, 40					; 00000028H
	ret	0
?sigItemMoveFinished@ImageWindow@@QEAAXXZ ENDP		; ImageWindow::sigItemMoveFinished
_TEXT	ENDS
; Function compile flags: /Odtp
_TEXT	SEGMENT
_t$1 = 32
tv69 = 40
tv338 = 44
tv352 = 48
tv366 = 52
tv306 = 56
tv313 = 60
result$2 = 64
$T3 = 72
$T4 = 88
$T5 = 104
$T6 = 128
_o$ = 176
_c$ = 184
_id$ = 192
_a$ = 200
?qt_static_metacall@ImageWindow@@CAXPEAVQObject@@W4Call@QMetaObject@@HPEAPEAX@Z PROC ; ImageWindow::qt_static_metacall
; File e:\g12_work\weidali_code\b\g12_4_b\ui\src\visionimageuitool\x64\debug\moc\moc_imagewindow.cpp
; Line 250
$LN77:
	mov	QWORD PTR [rsp+32], r9
	mov	DWORD PTR [rsp+24], r8d
	mov	DWORD PTR [rsp+16], edx
	mov	QWORD PTR [rsp+8], rcx
	push	rsi
	push	rdi
	sub	rsp, 152				; 00000098H
; Line 251
	cmp	DWORD PTR _c$[rsp], 0
	jne	$LN8@qt_static_
; Line 252
	mov	rax, QWORD PTR _o$[rsp]
	mov	QWORD PTR _t$1[rsp], rax
; Line 254
	mov	eax, DWORD PTR _id$[rsp]
	mov	DWORD PTR tv69[rsp], eax
	cmp	DWORD PTR tv69[rsp], 44			; 0000002cH
	ja	$LN55@qt_static_
	movsxd	rax, DWORD PTR tv69[rsp]
	lea	rcx, OFFSET FLAT:__ImageBase
	mov	eax, DWORD PTR $LN76@qt_static_[rcx+rax*4]
	add	rax, rcx
	jmp	rax
$LN10@qt_static_:
; Line 255
	mov	rcx, QWORD PTR _t$1[rsp]
	call	?sigItemMoveFinished@ImageWindow@@QEAAXXZ ; ImageWindow::sigItemMoveFinished
	jmp	$LN2@qt_static_
$LN11@qt_static_:
; Line 256
	mov	eax, 8
	imul	rax, rax, 1
	mov	rcx, QWORD PTR _a$[rsp]
	mov	rdx, QWORD PTR [rcx+rax]
	mov	rcx, QWORD PTR _t$1[rsp]
	call	?sigItemRBtDoubleCliecked@ImageWindow@@QEAAXAEAVQPointF@@@Z ; ImageWindow::sigItemRBtDoubleCliecked
	jmp	$LN2@qt_static_
$LN12@qt_static_:
; Line 257
	mov	eax, 8
	imul	rax, rax, 1
	mov	rcx, QWORD PTR _a$[rsp]
	mov	rax, QWORD PTR [rcx+rax]
	mov	edx, DWORD PTR [rax]
	mov	rcx, QWORD PTR _t$1[rsp]
	call	?sigItemSelectChanged@ImageWindow@@QEAAXH@Z ; ImageWindow::sigItemSelectChanged
	jmp	$LN2@qt_static_
$LN13@qt_static_:
; Line 258
	mov	eax, 8
	imul	rax, rax, 1
	mov	rcx, QWORD PTR _a$[rsp]
	mov	rax, QWORD PTR [rcx+rax]
	movzx	edx, BYTE PTR [rax]
	mov	rcx, QWORD PTR _t$1[rsp]
	call	?on_actionOpenImage_triggered@ImageWindow@@IEAAX_N@Z ; ImageWindow::on_actionOpenImage_triggered
	jmp	$LN2@qt_static_
$LN14@qt_static_:
; Line 259
	mov	eax, 8
	imul	rax, rax, 1
	mov	rcx, QWORD PTR _a$[rsp]
	mov	rax, QWORD PTR [rcx+rax]
	movzx	edx, BYTE PTR [rax]
	mov	rcx, QWORD PTR _t$1[rsp]
	call	?on_actionSaveImage_triggered@ImageWindow@@IEAAX_N@Z ; ImageWindow::on_actionSaveImage_triggered
	jmp	$LN2@qt_static_
$LN15@qt_static_:
; Line 260
	mov	eax, 8
	imul	rax, rax, 1
	mov	rcx, QWORD PTR _a$[rsp]
	mov	rax, QWORD PTR [rcx+rax]
	movzx	edx, BYTE PTR [rax]
	mov	rcx, QWORD PTR _t$1[rsp]
	call	?on_actionZoomIn_triggered@ImageWindow@@IEAAX_N@Z ; ImageWindow::on_actionZoomIn_triggered
	jmp	$LN2@qt_static_
$LN16@qt_static_:
; Line 261
	mov	eax, 8
	imul	rax, rax, 1
	mov	rcx, QWORD PTR _a$[rsp]
	mov	rax, QWORD PTR [rcx+rax]
	movzx	edx, BYTE PTR [rax]
	mov	rcx, QWORD PTR _t$1[rsp]
	call	?on_actionZoomOut_triggered@ImageWindow@@IEAAX_N@Z ; ImageWindow::on_actionZoomOut_triggered
	jmp	$LN2@qt_static_
$LN17@qt_static_:
; Line 262
	mov	eax, 8
	imul	rax, rax, 1
	mov	rcx, QWORD PTR _a$[rsp]
	mov	rax, QWORD PTR [rcx+rax]
	movzx	edx, BYTE PTR [rax]
	mov	rcx, QWORD PTR _t$1[rsp]
	call	?on_actionFullView_triggered@ImageWindow@@IEAAX_N@Z ; ImageWindow::on_actionFullView_triggered
	jmp	$LN2@qt_static_
$LN18@qt_static_:
; Line 263
	mov	eax, 8
	imul	rax, rax, 1
	mov	rcx, QWORD PTR _a$[rsp]
	mov	rax, QWORD PTR [rcx+rax]
	movzx	edx, BYTE PTR [rax]
	mov	rcx, QWORD PTR _t$1[rsp]
	call	?on_actionOriginalSize_triggered@ImageWindow@@IEAAX_N@Z ; ImageWindow::on_actionOriginalSize_triggered
	jmp	$LN2@qt_static_
$LN19@qt_static_:
; Line 264
	mov	eax, 8
	imul	rax, rax, 1
	mov	rcx, QWORD PTR _a$[rsp]
	mov	rax, QWORD PTR [rcx+rax]
	movzx	edx, BYTE PTR [rax]
	mov	rcx, QWORD PTR _t$1[rsp]
	call	?on_actionDeleteAll_triggered@ImageWindow@@IEAAX_N@Z ; ImageWindow::on_actionDeleteAll_triggered
	jmp	$LN2@qt_static_
$LN20@qt_static_:
; Line 265
	mov	eax, 8
	imul	rax, rax, 1
	mov	rcx, QWORD PTR _a$[rsp]
	mov	rax, QWORD PTR [rcx+rax]
	movzx	edx, BYTE PTR [rax]
	mov	rcx, QWORD PTR _t$1[rsp]
	call	?on_actionDeleteSelect_triggered@ImageWindow@@IEAAX_N@Z ; ImageWindow::on_actionDeleteSelect_triggered
	jmp	$LN2@qt_static_
$LN21@qt_static_:
; Line 266
	mov	eax, 8
	imul	rax, rax, 1
	mov	rcx, QWORD PTR _a$[rsp]
	mov	rax, QWORD PTR [rcx+rax]
	movzx	edx, BYTE PTR [rax]
	mov	rcx, QWORD PTR _t$1[rsp]
	call	?on_actionSelectAll_triggered@ImageWindow@@IEAAX_N@Z ; ImageWindow::on_actionSelectAll_triggered
	jmp	$LN2@qt_static_
$LN22@qt_static_:
; Line 267
	mov	eax, 8
	imul	rax, rax, 1
	mov	rcx, QWORD PTR _a$[rsp]
	mov	rax, QWORD PTR [rcx+rax]
	movzx	edx, BYTE PTR [rax]
	mov	rcx, QWORD PTR _t$1[rsp]
	call	?on_actionMoveUp_triggered@ImageWindow@@IEAAX_N@Z ; ImageWindow::on_actionMoveUp_triggered
	jmp	$LN2@qt_static_
$LN23@qt_static_:
; Line 268
	mov	eax, 8
	imul	rax, rax, 1
	mov	rcx, QWORD PTR _a$[rsp]
	mov	rax, QWORD PTR [rcx+rax]
	movzx	edx, BYTE PTR [rax]
	mov	rcx, QWORD PTR _t$1[rsp]
	call	?on_actionMoveDown_triggered@ImageWindow@@IEAAX_N@Z ; ImageWindow::on_actionMoveDown_triggered
	jmp	$LN2@qt_static_
$LN24@qt_static_:
; Line 269
	mov	eax, 8
	imul	rax, rax, 1
	mov	rcx, QWORD PTR _a$[rsp]
	mov	rax, QWORD PTR [rcx+rax]
	movzx	edx, BYTE PTR [rax]
	mov	rcx, QWORD PTR _t$1[rsp]
	call	?on_actionMoveRight_triggered@ImageWindow@@IEAAX_N@Z ; ImageWindow::on_actionMoveRight_triggered
	jmp	$LN2@qt_static_
$LN25@qt_static_:
; Line 270
	mov	eax, 8
	imul	rax, rax, 1
	mov	rcx, QWORD PTR _a$[rsp]
	mov	rax, QWORD PTR [rcx+rax]
	movzx	edx, BYTE PTR [rax]
	mov	rcx, QWORD PTR _t$1[rsp]
	call	?on_actionMoveLeft_triggered@ImageWindow@@IEAAX_N@Z ; ImageWindow::on_actionMoveLeft_triggered
	jmp	$LN2@qt_static_
$LN26@qt_static_:
; Line 271
	mov	eax, 8
	imul	rax, rax, 1
	mov	rcx, QWORD PTR _a$[rsp]
	mov	rax, QWORD PTR [rcx+rax]
	movzx	edx, BYTE PTR [rax]
	mov	rcx, QWORD PTR _t$1[rsp]
	call	?on_actionMoveUpPix_triggered@ImageWindow@@IEAAX_N@Z ; ImageWindow::on_actionMoveUpPix_triggered
	jmp	$LN2@qt_static_
$LN27@qt_static_:
; Line 272
	mov	eax, 8
	imul	rax, rax, 1
	mov	rcx, QWORD PTR _a$[rsp]
	mov	rax, QWORD PTR [rcx+rax]
	movzx	edx, BYTE PTR [rax]
	mov	rcx, QWORD PTR _t$1[rsp]
	call	?on_actionMoveDownPix_triggered@ImageWindow@@IEAAX_N@Z ; ImageWindow::on_actionMoveDownPix_triggered
	jmp	$LN2@qt_static_
$LN28@qt_static_:
; Line 273
	mov	eax, 8
	imul	rax, rax, 1
	mov	rcx, QWORD PTR _a$[rsp]
	mov	rax, QWORD PTR [rcx+rax]
	movzx	edx, BYTE PTR [rax]
	mov	rcx, QWORD PTR _t$1[rsp]
	call	?on_actionMoveRightPix_triggered@ImageWindow@@IEAAX_N@Z ; ImageWindow::on_actionMoveRightPix_triggered
	jmp	$LN2@qt_static_
$LN29@qt_static_:
; Line 274
	mov	eax, 8
	imul	rax, rax, 1
	mov	rcx, QWORD PTR _a$[rsp]
	mov	rax, QWORD PTR [rcx+rax]
	movzx	edx, BYTE PTR [rax]
	mov	rcx, QWORD PTR _t$1[rsp]
	call	?on_actionMoveLeftPix_triggered@ImageWindow@@IEAAX_N@Z ; ImageWindow::on_actionMoveLeftPix_triggered
	jmp	$LN2@qt_static_
$LN30@qt_static_:
; Line 275
	mov	eax, 8
	imul	rax, rax, 1
	mov	rcx, QWORD PTR _a$[rsp]
	mov	rax, QWORD PTR [rcx+rax]
	movzx	edx, BYTE PTR [rax]
	mov	rcx, QWORD PTR _t$1[rsp]
	call	?on_actionClearImage_triggered@ImageWindow@@IEAAX_N@Z ; ImageWindow::on_actionClearImage_triggered
	jmp	$LN2@qt_static_
$LN31@qt_static_:
; Line 276
	mov	eax, 8
	imul	rax, rax, 1
	mov	rcx, QWORD PTR _a$[rsp]
	mov	rax, QWORD PTR [rcx+rax]
	movzx	edx, BYTE PTR [rax]
	mov	rcx, QWORD PTR _t$1[rsp]
	call	?on_actionCopyShape_triggered@ImageWindow@@IEAAX_N@Z ; ImageWindow::on_actionCopyShape_triggered
	jmp	$LN2@qt_static_
$LN32@qt_static_:
; Line 277
	mov	eax, 8
	imul	rax, rax, 1
	mov	rcx, QWORD PTR _a$[rsp]
	mov	rax, QWORD PTR [rcx+rax]
	movzx	edx, BYTE PTR [rax]
	mov	rcx, QWORD PTR _t$1[rsp]
	call	?on_actionCutShape_triggered@ImageWindow@@IEAAX_N@Z ; ImageWindow::on_actionCutShape_triggered
	jmp	$LN2@qt_static_
$LN33@qt_static_:
; Line 278
	mov	eax, 8
	imul	rax, rax, 1
	mov	rcx, QWORD PTR _a$[rsp]
	mov	rax, QWORD PTR [rcx+rax]
	movzx	edx, BYTE PTR [rax]
	mov	rcx, QWORD PTR _t$1[rsp]
	call	?on_actionPasteShape_triggered@ImageWindow@@IEAAX_N@Z ; ImageWindow::on_actionPasteShape_triggered
	jmp	$LN2@qt_static_
$LN34@qt_static_:
; Line 279
	mov	eax, 8
	imul	rax, rax, 1
	mov	rcx, QWORD PTR _a$[rsp]
	mov	rax, QWORD PTR [rcx+rax]
	movzx	edx, BYTE PTR [rax]
	mov	rcx, QWORD PTR _t$1[rsp]
	call	?on_actionSelectNext_triggered@ImageWindow@@IEAAX_N@Z ; ImageWindow::on_actionSelectNext_triggered
	jmp	$LN2@qt_static_
$LN35@qt_static_:
; Line 280
	mov	eax, 8
	imul	rax, rax, 1
	mov	rcx, QWORD PTR _a$[rsp]
	mov	rax, QWORD PTR [rcx+rax]
	movzx	edx, BYTE PTR [rax]
	mov	rcx, QWORD PTR _t$1[rsp]
	call	?on_actionSelectPre_triggered@ImageWindow@@IEAAX_N@Z ; ImageWindow::on_actionSelectPre_triggered
	jmp	$LN2@qt_static_
$LN36@qt_static_:
; Line 281
	mov	eax, 8
	imul	rax, rax, 1
	mov	rcx, QWORD PTR _a$[rsp]
	mov	rax, QWORD PTR [rcx+rax]
	movzx	edx, BYTE PTR [rax]
	mov	rcx, QWORD PTR _t$1[rsp]
	call	?on_actionCenterCross_triggered@ImageWindow@@IEAAX_N@Z ; ImageWindow::on_actionCenterCross_triggered
	jmp	$LN2@qt_static_
$LN37@qt_static_:
; Line 282
	mov	eax, 8
	imul	rax, rax, 1
	mov	rcx, QWORD PTR _a$[rsp]
	mov	rax, QWORD PTR [rcx+rax]
	movzx	edx, BYTE PTR [rax]
	mov	rcx, QWORD PTR _t$1[rsp]
	call	?on_actionClearRoi_triggered@ImageWindow@@IEAAX_N@Z ; ImageWindow::on_actionClearRoi_triggered
	jmp	$LN2@qt_static_
$LN38@qt_static_:
; Line 283
	mov	eax, 8
	imul	rax, rax, 1
	mov	rcx, QWORD PTR _a$[rsp]
	mov	rax, QWORD PTR [rcx+rax]
	mov	rdx, QWORD PTR [rax]
	mov	rcx, QWORD PTR _t$1[rsp]
	call	?on_action_triggered@ImageWindow@@IEAAXPEAVQAction@@@Z ; ImageWindow::on_action_triggered
	jmp	$LN2@qt_static_
$LN39@qt_static_:
; Line 284
	mov	eax, 8
	imul	rax, rax, 1
	mov	rcx, QWORD PTR _a$[rsp]
	mov	rax, QWORD PTR [rcx+rax]
	movzx	edx, BYTE PTR [rax]
	mov	rcx, QWORD PTR _t$1[rsp]
	call	?on_actionUndoStack_triggered@ImageWindow@@IEAAX_N@Z ; ImageWindow::on_actionUndoStack_triggered
	jmp	$LN2@qt_static_
$LN40@qt_static_:
; Line 285
	mov	eax, 8
	imul	rax, rax, 1
	mov	rcx, QWORD PTR _a$[rsp]
	mov	rax, QWORD PTR [rcx+rax]
	lea	rcx, QWORD PTR $T6[rsp]
	mov	rdi, rcx
	mov	rsi, rax
	mov	ecx, 16
	rep movsb
	lea	rdx, QWORD PTR $T6[rsp]
	mov	rcx, QWORD PTR _t$1[rsp]
	call	?slotStatusBarShowCoordinate@ImageWindow@@IEAAXVQPointF@@@Z ; ImageWindow::slotStatusBarShowCoordinate
	jmp	$LN2@qt_static_
$LN41@qt_static_:
; Line 286
	mov	eax, 8
	imul	rax, rax, 1
	mov	rcx, QWORD PTR _a$[rsp]
	mov	rax, QWORD PTR [rcx+rax]
	mov	rdx, QWORD PTR [rax]
	mov	rcx, QWORD PTR _t$1[rsp]
	call	?slotStatusBarShowGary@ImageWindow@@IEAAXVQPoint@@@Z ; ImageWindow::slotStatusBarShowGary
	jmp	$LN2@qt_static_
$LN42@qt_static_:
; Line 287
	mov	eax, 8
	imul	rax, rax, 1
	mov	rcx, QWORD PTR _a$[rsp]
	mov	rax, QWORD PTR [rcx+rax]
	movsd	xmm0, QWORD PTR [rax]
	movaps	xmm1, xmm0
	mov	rcx, QWORD PTR _t$1[rsp]
	call	?slotStatusBarScale@ImageWindow@@IEAAXN@Z ; ImageWindow::slotStatusBarScale
	jmp	$LN2@qt_static_
$LN43@qt_static_:
; Line 288
	mov	eax, 8
	imul	rax, rax, 2
	mov	rcx, QWORD PTR _a$[rsp]
	mov	rax, QWORD PTR [rcx+rax]
	mov	ecx, 8
	imul	rcx, rcx, 1
	mov	rdx, QWORD PTR _a$[rsp]
	mov	rcx, QWORD PTR [rdx+rcx]
	mov	r8d, DWORD PTR [rax]
	mov	edx, DWORD PTR [rcx]
	mov	rcx, QWORD PTR _t$1[rsp]
	call	?slotStatusBarImageSizeChangle@ImageWindow@@IEAAXHH@Z ; ImageWindow::slotStatusBarImageSizeChangle
	jmp	$LN2@qt_static_
$LN44@qt_static_:
; Line 289
	mov	rcx, QWORD PTR _t$1[rsp]
	call	?slotStatusBarSelectCount@ImageWindow@@IEAAXXZ ; ImageWindow::slotStatusBarSelectCount
	jmp	$LN2@qt_static_
$LN45@qt_static_:
; Line 290
	mov	rcx, QWORD PTR _t$1[rsp]
	call	?slotTimerHandle@ImageWindow@@IEAAXXZ	; ImageWindow::slotTimerHandle
	jmp	$LN2@qt_static_
$LN46@qt_static_:
; Line 291
	mov	eax, 8
	imul	rax, rax, 1
	mov	rcx, QWORD PTR _a$[rsp]
	mov	rax, QWORD PTR [rcx+rax]
	mov	edx, DWORD PTR [rax]
	mov	rcx, QWORD PTR _t$1[rsp]
	call	?on_checkBox_arrow_stateChanged@ImageWindow@@IEAAXH@Z ; ImageWindow::on_checkBox_arrow_stateChanged
	jmp	$LN2@qt_static_
$LN47@qt_static_:
; Line 292
	mov	eax, 8
	imul	rax, rax, 1
	mov	rcx, QWORD PTR _a$[rsp]
	mov	rax, QWORD PTR [rcx+rax]
	mov	edx, DWORD PTR [rax]
	mov	rcx, QWORD PTR _t$1[rsp]
	call	?on_checkBox_grid_stateChanged@ImageWindow@@IEAAXH@Z ; ImageWindow::on_checkBox_grid_stateChanged
	jmp	$LN2@qt_static_
$LN48@qt_static_:
; Line 293
	mov	rcx, QWORD PTR _t$1[rsp]
	call	?on_toolButton_modifySize_clicked@ImageWindow@@IEAAXXZ ; ImageWindow::on_toolButton_modifySize_clicked
	jmp	$LN2@qt_static_
$LN49@qt_static_:
; Line 294
	mov	rcx, QWORD PTR _t$1[rsp]
	call	?slot_showSelectItemData@ImageWindow@@IEAAXXZ ; ImageWindow::slot_showSelectItemData
	jmp	$LN2@qt_static_
$LN50@qt_static_:
; Line 295
	mov	eax, 8
	imul	rax, rax, 1
	mov	rcx, QWORD PTR _a$[rsp]
	mov	rax, QWORD PTR [rcx+rax]
	movzx	edx, BYTE PTR [rax]
	mov	rcx, QWORD PTR _t$1[rsp]
	call	?on_action_color_triggered@ImageWindow@@IEAAX_N@Z ; ImageWindow::on_action_color_triggered
	jmp	SHORT $LN2@qt_static_
$LN51@qt_static_:
; Line 296
	mov	rcx, QWORD PTR _t$1[rsp]
	call	?slotItemMoveFinished@ImageWindow@@IEAAXXZ ; ImageWindow::slotItemMoveFinished
	jmp	SHORT $LN2@qt_static_
$LN52@qt_static_:
; Line 297
	mov	eax, 8
	imul	rax, rax, 1
	mov	rcx, QWORD PTR _a$[rsp]
	mov	rdx, QWORD PTR [rcx+rax]
	mov	rcx, QWORD PTR _t$1[rsp]
	call	?slotItemRBtDoubleCliecked@ImageWindow@@IEAAXAEAVQPointF@@@Z ; ImageWindow::slotItemRBtDoubleCliecked
	jmp	SHORT $LN2@qt_static_
$LN53@qt_static_:
; Line 298
	mov	eax, 8
	imul	rax, rax, 1
	mov	rcx, QWORD PTR _a$[rsp]
	mov	rdx, QWORD PTR [rcx+rax]
	mov	rcx, QWORD PTR _t$1[rsp]
	call	?slotLineWidthChangle@ImageWindow@@IEAAXAEBVQString@@@Z ; ImageWindow::slotLineWidthChangle
	jmp	SHORT $LN2@qt_static_
$LN54@qt_static_:
; Line 299
	mov	eax, 8
	imul	rax, rax, 1
	mov	rcx, QWORD PTR _a$[rsp]
	mov	rdx, QWORD PTR [rcx+rax]
	mov	rcx, QWORD PTR _t$1[rsp]
	call	?slotFontSizeChangle@ImageWindow@@IEAAXAEBVQString@@@Z ; ImageWindow::slotFontSizeChangle
$LN55@qt_static_:
$LN2@qt_static_:
; Line 302
	jmp	$LN9@qt_static_
$LN8@qt_static_:
	cmp	DWORD PTR _c$[rsp], 12
	jne	$LN56@qt_static_
; Line 303
	mov	eax, DWORD PTR _id$[rsp]
	mov	DWORD PTR tv306[rsp], eax
	cmp	DWORD PTR tv306[rsp], 28
	je	SHORT $LN59@qt_static_
; Line 304
	mov	eax, 8
	imul	rax, rax, 0
	mov	rcx, QWORD PTR _a$[rsp]
	mov	rax, QWORD PTR [rcx+rax]
	mov	DWORD PTR [rax], -1
	jmp	SHORT $LN4@qt_static_
$LN59@qt_static_:
; Line 306
	mov	eax, 8
	imul	rax, rax, 1
	mov	rcx, QWORD PTR _a$[rsp]
	mov	rax, QWORD PTR [rcx+rax]
	mov	eax, DWORD PTR [rax]
	mov	DWORD PTR tv313[rsp], eax
	cmp	DWORD PTR tv313[rsp], 0
	je	SHORT $LN61@qt_static_
; Line 307
	mov	eax, 8
	imul	rax, rax, 0
	mov	rcx, QWORD PTR _a$[rsp]
	mov	rax, QWORD PTR [rcx+rax]
	mov	DWORD PTR [rax], -1
	jmp	SHORT $LN6@qt_static_
$LN61@qt_static_:
; Line 309
	call	??$qRegisterMetaType@PEAVQAction@@@@YAHXZ ; qRegisterMetaType<QAction * __ptr64>
	mov	ecx, 8
	imul	rcx, rcx, 0
	mov	rdx, QWORD PTR _a$[rsp]
	mov	rcx, QWORD PTR [rdx+rcx]
	mov	DWORD PTR [rcx], eax
$LN6@qt_static_:
$LN4@qt_static_:
; Line 313
	jmp	$LN57@qt_static_
$LN56@qt_static_:
	cmp	DWORD PTR _c$[rsp], 10
	jne	$LN62@qt_static_
; Line 314
	mov	eax, 8
	imul	rax, rax, 0
	mov	rcx, QWORD PTR _a$[rsp]
	mov	rax, QWORD PTR [rcx+rax]
	mov	QWORD PTR result$2[rsp], rax
; Line 317
	lea	rax, OFFSET FLAT:?sigItemMoveFinished@ImageWindow@@QEAAXXZ ; ImageWindow::sigItemMoveFinished
	mov	QWORD PTR $T3[rsp], rax
	mov	DWORD PTR $T3[rsp+8], 0
	mov	eax, 8
	imul	rax, rax, 1
	mov	rcx, QWORD PTR _a$[rsp]
	mov	rax, QWORD PTR [rcx+rax]
	mov	rcx, QWORD PTR $T3[rsp]
	cmp	QWORD PTR [rax], rcx
	jne	SHORT $LN68@qt_static_
	mov	eax, 8
	imul	rax, rax, 1
	mov	rcx, QWORD PTR _a$[rsp]
	mov	rax, QWORD PTR [rcx+rax]
	cmp	QWORD PTR [rax], 0
	je	SHORT $LN67@qt_static_
	mov	eax, 8
	imul	rax, rax, 1
	mov	rcx, QWORD PTR _a$[rsp]
	mov	rax, QWORD PTR [rcx+rax]
	mov	ecx, DWORD PTR $T3[rsp+8]
	cmp	DWORD PTR [rax+8], ecx
	jne	SHORT $LN68@qt_static_
$LN67@qt_static_:
	mov	DWORD PTR tv338[rsp], 1
	jmp	SHORT $LN69@qt_static_
$LN68@qt_static_:
	mov	DWORD PTR tv338[rsp], 0
$LN69@qt_static_:
	cmp	DWORD PTR tv338[rsp], 0
	je	SHORT $LN63@qt_static_
; Line 318
	mov	rax, QWORD PTR result$2[rsp]
	mov	DWORD PTR [rax], 0
; Line 319
	jmp	$LN1@qt_static_
$LN63@qt_static_:
; Line 324
	lea	rax, OFFSET FLAT:?sigItemRBtDoubleCliecked@ImageWindow@@QEAAXAEAVQPointF@@@Z ; ImageWindow::sigItemRBtDoubleCliecked
	mov	QWORD PTR $T4[rsp], rax
	mov	DWORD PTR $T4[rsp+8], 0
	mov	eax, 8
	imul	rax, rax, 1
	mov	rcx, QWORD PTR _a$[rsp]
	mov	rax, QWORD PTR [rcx+rax]
	mov	rcx, QWORD PTR $T4[rsp]
	cmp	QWORD PTR [rax], rcx
	jne	SHORT $LN71@qt_static_
	mov	eax, 8
	imul	rax, rax, 1
	mov	rcx, QWORD PTR _a$[rsp]
	mov	rax, QWORD PTR [rcx+rax]
	cmp	QWORD PTR [rax], 0
	je	SHORT $LN70@qt_static_
	mov	eax, 8
	imul	rax, rax, 1
	mov	rcx, QWORD PTR _a$[rsp]
	mov	rax, QWORD PTR [rcx+rax]
	mov	ecx, DWORD PTR $T4[rsp+8]
	cmp	DWORD PTR [rax+8], ecx
	jne	SHORT $LN71@qt_static_
$LN70@qt_static_:
	mov	DWORD PTR tv352[rsp], 1
	jmp	SHORT $LN72@qt_static_
$LN71@qt_static_:
	mov	DWORD PTR tv352[rsp], 0
$LN72@qt_static_:
	cmp	DWORD PTR tv352[rsp], 0
	je	SHORT $LN64@qt_static_
; Line 325
	mov	rax, QWORD PTR result$2[rsp]
	mov	DWORD PTR [rax], 1
; Line 326
	jmp	$LN1@qt_static_
$LN64@qt_static_:
; Line 331
	lea	rax, OFFSET FLAT:?sigItemSelectChanged@ImageWindow@@QEAAXH@Z ; ImageWindow::sigItemSelectChanged
	mov	QWORD PTR $T5[rsp], rax
	mov	DWORD PTR $T5[rsp+8], 0
	mov	eax, 8
	imul	rax, rax, 1
	mov	rcx, QWORD PTR _a$[rsp]
	mov	rax, QWORD PTR [rcx+rax]
	mov	rcx, QWORD PTR $T5[rsp]
	cmp	QWORD PTR [rax], rcx
	jne	SHORT $LN74@qt_static_
	mov	eax, 8
	imul	rax, rax, 1
	mov	rcx, QWORD PTR _a$[rsp]
	mov	rax, QWORD PTR [rcx+rax]
	cmp	QWORD PTR [rax], 0
	je	SHORT $LN73@qt_static_
	mov	eax, 8
	imul	rax, rax, 1
	mov	rcx, QWORD PTR _a$[rsp]
	mov	rax, QWORD PTR [rcx+rax]
	mov	ecx, DWORD PTR $T5[rsp+8]
	cmp	DWORD PTR [rax+8], ecx
	jne	SHORT $LN74@qt_static_
$LN73@qt_static_:
	mov	DWORD PTR tv366[rsp], 1
	jmp	SHORT $LN75@qt_static_
$LN74@qt_static_:
	mov	DWORD PTR tv366[rsp], 0
$LN75@qt_static_:
	cmp	DWORD PTR tv366[rsp], 0
	je	SHORT $LN65@qt_static_
; Line 332
	mov	rax, QWORD PTR result$2[rsp]
	mov	DWORD PTR [rax], 2
$LN65@qt_static_:
$LN62@qt_static_:
$LN57@qt_static_:
$LN9@qt_static_:
$LN1@qt_static_:
; Line 337
	add	rsp, 152				; 00000098H
	pop	rdi
	pop	rsi
	ret	0
	npad	1
$LN76@qt_static_:
	DD	$LN10@qt_static_
	DD	$LN11@qt_static_
	DD	$LN12@qt_static_
	DD	$LN13@qt_static_
	DD	$LN14@qt_static_
	DD	$LN15@qt_static_
	DD	$LN16@qt_static_
	DD	$LN17@qt_static_
	DD	$LN18@qt_static_
	DD	$LN19@qt_static_
	DD	$LN20@qt_static_
	DD	$LN21@qt_static_
	DD	$LN22@qt_static_
	DD	$LN23@qt_static_
	DD	$LN24@qt_static_
	DD	$LN25@qt_static_
	DD	$LN26@qt_static_
	DD	$LN27@qt_static_
	DD	$LN28@qt_static_
	DD	$LN29@qt_static_
	DD	$LN30@qt_static_
	DD	$LN31@qt_static_
	DD	$LN32@qt_static_
	DD	$LN33@qt_static_
	DD	$LN34@qt_static_
	DD	$LN35@qt_static_
	DD	$LN36@qt_static_
	DD	$LN37@qt_static_
	DD	$LN38@qt_static_
	DD	$LN39@qt_static_
	DD	$LN40@qt_static_
	DD	$LN41@qt_static_
	DD	$LN42@qt_static_
	DD	$LN43@qt_static_
	DD	$LN44@qt_static_
	DD	$LN45@qt_static_
	DD	$LN46@qt_static_
	DD	$LN47@qt_static_
	DD	$LN48@qt_static_
	DD	$LN49@qt_static_
	DD	$LN50@qt_static_
	DD	$LN51@qt_static_
	DD	$LN52@qt_static_
	DD	$LN53@qt_static_
	DD	$LN54@qt_static_
?qt_static_metacall@ImageWindow@@CAXPEAVQObject@@W4Call@QMetaObject@@HPEAPEAX@Z ENDP ; ImageWindow::qt_static_metacall
_TEXT	ENDS
; Function compile flags: /Odtp
_TEXT	SEGMENT
this$ = 48
_c$ = 56
_id$ = 64
_a$ = 72
?qt_metacall@ImageWindow@@UEAAHW4Call@QMetaObject@@HPEAPEAX@Z PROC ; ImageWindow::qt_metacall
; File e:\g12_work\weidali_code\b\g12_4_b\ui\src\visionimageuitool\x64\debug\moc\moc_imagewindow.cpp
; Line 359
$LN9:
	mov	QWORD PTR [rsp+32], r9
	mov	DWORD PTR [rsp+24], r8d
	mov	DWORD PTR [rsp+16], edx
	mov	QWORD PTR [rsp+8], rcx
	sub	rsp, 40					; 00000028H
; Line 360
	mov	r9, QWORD PTR _a$[rsp]
	mov	r8d, DWORD PTR _id$[rsp]
	mov	edx, DWORD PTR _c$[rsp]
	mov	rcx, QWORD PTR this$[rsp]
	call	QWORD PTR __imp_?qt_metacall@QMainWindow@@UEAAHW4Call@QMetaObject@@HPEAPEAX@Z
	mov	DWORD PTR _id$[rsp], eax
; Line 361
	cmp	DWORD PTR _id$[rsp], 0
	jge	SHORT $LN2@qt_metacal
; Line 362
	mov	eax, DWORD PTR _id$[rsp]
	jmp	SHORT $LN1@qt_metacal
$LN2@qt_metacal:
; Line 363
	cmp	DWORD PTR _c$[rsp], 0
	jne	SHORT $LN3@qt_metacal
; Line 364
	cmp	DWORD PTR _id$[rsp], 45			; 0000002dH
	jge	SHORT $LN5@qt_metacal
; Line 365
	mov	r9, QWORD PTR _a$[rsp]
	mov	r8d, DWORD PTR _id$[rsp]
	mov	edx, DWORD PTR _c$[rsp]
	mov	rcx, QWORD PTR this$[rsp]
	call	?qt_static_metacall@ImageWindow@@CAXPEAVQObject@@W4Call@QMetaObject@@HPEAPEAX@Z ; ImageWindow::qt_static_metacall
$LN5@qt_metacal:
; Line 366
	mov	eax, DWORD PTR _id$[rsp]
	sub	eax, 45					; 0000002dH
	mov	DWORD PTR _id$[rsp], eax
	jmp	SHORT $LN4@qt_metacal
$LN3@qt_metacal:
; Line 367
	cmp	DWORD PTR _c$[rsp], 12
	jne	SHORT $LN6@qt_metacal
; Line 368
	cmp	DWORD PTR _id$[rsp], 45			; 0000002dH
	jge	SHORT $LN7@qt_metacal
; Line 369
	mov	r9, QWORD PTR _a$[rsp]
	mov	r8d, DWORD PTR _id$[rsp]
	mov	edx, DWORD PTR _c$[rsp]
	mov	rcx, QWORD PTR this$[rsp]
	call	?qt_static_metacall@ImageWindow@@CAXPEAVQObject@@W4Call@QMetaObject@@HPEAPEAX@Z ; ImageWindow::qt_static_metacall
$LN7@qt_metacal:
; Line 370
	mov	eax, DWORD PTR _id$[rsp]
	sub	eax, 45					; 0000002dH
	mov	DWORD PTR _id$[rsp], eax
$LN6@qt_metacal:
$LN4@qt_metacal:
; Line 372
	mov	eax, DWORD PTR _id$[rsp]
$LN1@qt_metacal:
; Line 373
	add	rsp, 40					; 00000028H
	ret	0
?qt_metacall@ImageWindow@@UEAAHW4Call@QMetaObject@@HPEAPEAX@Z ENDP ; ImageWindow::qt_metacall
_TEXT	ENDS
; Function compile flags: /Odtp
_TEXT	SEGMENT
this$ = 48
_clname$ = 56
?qt_metacast@ImageWindow@@UEAAPEAXPEBD@Z PROC		; ImageWindow::qt_metacast
; File e:\g12_work\weidali_code\b\g12_4_b\ui\src\visionimageuitool\x64\debug\moc\moc_imagewindow.cpp
; Line 351
$LN5:
	mov	QWORD PTR [rsp+16], rdx
	mov	QWORD PTR [rsp+8], rcx
	sub	rsp, 40					; 00000028H
; Line 352
	cmp	QWORD PTR _clname$[rsp], 0
	jne	SHORT $LN2@qt_metacas
	xor	eax, eax
	jmp	SHORT $LN1@qt_metacas
$LN2@qt_metacas:
; Line 353
	lea	rdx, OFFSET FLAT:?qt_meta_stringdata_ImageWindow@@3Uqt_meta_stringdata_ImageWindow_t@@B+1296
	mov	rcx, QWORD PTR _clname$[rsp]
	call	strcmp
	test	eax, eax
	jne	SHORT $LN3@qt_metacas
; Line 354
	mov	rax, QWORD PTR this$[rsp]
	jmp	SHORT $LN1@qt_metacas
$LN3@qt_metacas:
; Line 355
	mov	rdx, QWORD PTR _clname$[rsp]
	mov	rcx, QWORD PTR this$[rsp]
	call	QWORD PTR __imp_?qt_metacast@QMainWindow@@UEAAPEAXPEBD@Z
$LN1@qt_metacas:
; Line 356
	add	rsp, 40					; 00000028H
	ret	0
?qt_metacast@ImageWindow@@UEAAPEAXPEBD@Z ENDP		; ImageWindow::qt_metacast
_TEXT	ENDS
; Function compile flags: /Odtp
_TEXT	SEGMENT
tv82 = 32
this$ = 64
?metaObject@ImageWindow@@UEBAPEBUQMetaObject@@XZ PROC	; ImageWindow::metaObject
; File e:\g12_work\weidali_code\b\g12_4_b\ui\src\visionimageuitool\x64\debug\moc\moc_imagewindow.cpp
; Line 346
$LN5:
	mov	QWORD PTR [rsp+8], rcx
	sub	rsp, 56					; 00000038H
; Line 347
	mov	rax, QWORD PTR this$[rsp]
	add	rax, 8
	mov	rcx, rax
	call	??C?$QScopedPointer@VQObjectData@@U?$QScopedPointerDeleter@VQObjectData@@@@@@QEBAPEAVQObjectData@@XZ ; QScopedPointer<QObjectData,QScopedPointerDeleter<QObjectData> >::operator->
	cmp	QWORD PTR [rax+40], 0
	je	SHORT $LN3@metaObject
	mov	rax, QWORD PTR this$[rsp]
	add	rax, 8
	mov	rcx, rax
	call	??C?$QScopedPointer@VQObjectData@@U?$QScopedPointerDeleter@VQObjectData@@@@@@QEBAPEAVQObjectData@@XZ ; QScopedPointer<QObjectData,QScopedPointerDeleter<QObjectData> >::operator->
	mov	rcx, rax
	call	QWORD PTR __imp_?dynamicMetaObject@QObjectData@@QEBAPEAUQMetaObject@@XZ
	mov	QWORD PTR tv82[rsp], rax
	jmp	SHORT $LN4@metaObject
$LN3@metaObject:
	lea	rax, OFFSET FLAT:?staticMetaObject@ImageWindow@@2UQMetaObject@@B ; ImageWindow::staticMetaObject
	mov	QWORD PTR tv82[rsp], rax
$LN4@metaObject:
	mov	rax, QWORD PTR tv82[rsp]
; Line 348
	add	rsp, 56					; 00000038H
	ret	0
?metaObject@ImageWindow@@UEBAPEBUQMetaObject@@XZ ENDP	; ImageWindow::metaObject
_TEXT	ENDS
; Function compile flags: /Odtp
;	COMDAT ??C?$QScopedPointer@VQObjectData@@U?$QScopedPointerDeleter@VQObjectData@@@@@@QEBAPEAVQObjectData@@XZ
_TEXT	SEGMENT
this$ = 8
??C?$QScopedPointer@VQObjectData@@U?$QScopedPointerDeleter@VQObjectData@@@@@@QEBAPEAVQObjectData@@XZ PROC ; QScopedPointer<QObjectData,QScopedPointerDeleter<QObjectData> >::operator->, COMDAT
; File c:\qt\qt5.9.3\5.9.3\msvc2015_64\include\qtcore\qscopedpointer.h
; Line 117
	mov	QWORD PTR [rsp+8], rcx
; Line 118
	mov	rax, QWORD PTR this$[rsp]
	mov	rax, QWORD PTR [rax]
; Line 119
	ret	0
??C?$QScopedPointer@VQObjectData@@U?$QScopedPointerDeleter@VQObjectData@@@@@@QEBAPEAVQObjectData@@XZ ENDP ; QScopedPointer<QObjectData,QScopedPointerDeleter<QObjectData> >::operator->
_TEXT	ENDS
; Function compile flags: /Odtp
;	COMDAT ??_5?$QFlags@W4TypeFlag@QMetaType@@@@QEAAAEAV0@W4TypeFlag@QMetaType@@@Z
_TEXT	SEGMENT
this$ = 8
f$ = 16
??_5?$QFlags@W4TypeFlag@QMetaType@@@@QEAAAEAV0@W4TypeFlag@QMetaType@@@Z PROC ; QFlags<enum QMetaType::TypeFlag>::operator|=, COMDAT
; File c:\qt\qt5.9.3\5.9.3\msvc2015_64\include\qtcore\qflags.h
; Line 133
	mov	DWORD PTR [rsp+16], edx
	mov	QWORD PTR [rsp+8], rcx
	mov	rax, QWORD PTR this$[rsp]
	mov	ecx, DWORD PTR f$[rsp]
	mov	eax, DWORD PTR [rax]
	or	eax, ecx
	mov	rcx, QWORD PTR this$[rsp]
	mov	DWORD PTR [rcx], eax
	mov	rax, QWORD PTR this$[rsp]
	ret	0
??_5?$QFlags@W4TypeFlag@QMetaType@@@@QEAAAEAV0@W4TypeFlag@QMetaType@@@Z ENDP ; QFlags<enum QMetaType::TypeFlag>::operator|=
_TEXT	ENDS
; Function compile flags: /Odtp
;	COMDAT ??0?$QFlags@W4TypeFlag@QMetaType@@@@QEAA@VQFlag@@@Z
_TEXT	SEGMENT
this$ = 48
f$ = 56
??0?$QFlags@W4TypeFlag@QMetaType@@@@QEAA@VQFlag@@@Z PROC ; QFlags<enum QMetaType::TypeFlag>::QFlags<enum QMetaType::TypeFlag>, COMDAT
; File c:\qt\qt5.9.3\5.9.3\msvc2015_64\include\qtcore\qflags.h
; Line 122
$LN3:
	mov	DWORD PTR [rsp+16], edx
	mov	QWORD PTR [rsp+8], rcx
	sub	rsp, 40					; 00000028H
	lea	rcx, QWORD PTR f$[rsp]
	call	??BQFlag@@QEBAHXZ			; QFlag::operator int
	mov	rcx, QWORD PTR this$[rsp]
	mov	DWORD PTR [rcx], eax
	mov	rax, QWORD PTR this$[rsp]
	add	rsp, 40					; 00000028H
	ret	0
??0?$QFlags@W4TypeFlag@QMetaType@@@@QEAA@VQFlag@@@Z ENDP ; QFlags<enum QMetaType::TypeFlag>::QFlags<enum QMetaType::TypeFlag>
_TEXT	ENDS
; Function compile flags: /Odtp
;	COMDAT ??8@YA_NAEBVQByteArray@@0@Z
_TEXT	SEGMENT
tv81 = 32
tv65 = 36
tv72 = 40
tv75 = 48
$T1 = 56
a1$ = 80
a2$ = 88
??8@YA_NAEBVQByteArray@@0@Z PROC			; operator==, COMDAT
; File c:\qt\qt5.9.3\5.9.3\msvc2015_64\include\qtcore\qbytearray.h
; Line 595
$LN5:
	mov	QWORD PTR [rsp+16], rdx
	mov	QWORD PTR [rsp+8], rcx
	sub	rsp, 72					; 00000048H
	mov	QWORD PTR $T1[rsp], -2
	mov	rcx, QWORD PTR a1$[rsp]
	call	QWORD PTR __imp_?size@QByteArray@@QEBAHXZ
	npad	1
	mov	DWORD PTR tv65[rsp], eax
	mov	rcx, QWORD PTR a2$[rsp]
	call	QWORD PTR __imp_?size@QByteArray@@QEBAHXZ
	npad	1
	mov	ecx, DWORD PTR tv65[rsp]
	cmp	ecx, eax
	jne	SHORT $LN3@operator
	mov	rcx, QWORD PTR a1$[rsp]
	call	QWORD PTR __imp_?size@QByteArray@@QEBAHXZ
	npad	1
	cdqe
	mov	QWORD PTR tv72[rsp], rax
	mov	rcx, QWORD PTR a2$[rsp]
	call	QWORD PTR __imp_?constData@QByteArray@@QEBAPEBDXZ
	npad	1
	mov	QWORD PTR tv75[rsp], rax
	mov	rcx, QWORD PTR a1$[rsp]
	call	QWORD PTR __imp_?constData@QByteArray@@QEBAPEBDXZ
	npad	1
	mov	rcx, QWORD PTR tv72[rsp]
	mov	r8, rcx
	mov	rcx, QWORD PTR tv75[rsp]
	mov	rdx, rcx
	mov	rcx, rax
	call	memcmp
	npad	1
	test	eax, eax
	jne	SHORT $LN3@operator
	mov	DWORD PTR tv81[rsp], 1
	jmp	SHORT $LN4@operator
$LN3@operator:
	mov	DWORD PTR tv81[rsp], 0
$LN4@operator:
	movzx	eax, BYTE PTR tv81[rsp]
	add	rsp, 72					; 00000048H
	ret	0
??8@YA_NAEBVQByteArray@@0@Z ENDP			; operator==
_TEXT	ENDS
; Function compile flags: /Odtp
;	COMDAT ?storeRelease@?$QBasicAtomicInteger@H@@QEAAXH@Z
_TEXT	SEGMENT
this$ = 48
newValue$ = 56
?storeRelease@?$QBasicAtomicInteger@H@@QEAAXH@Z PROC	; QBasicAtomicInteger<int>::storeRelease, COMDAT
; File c:\qt\qt5.9.3\5.9.3\msvc2015_64\include\qtcore\qbasicatomic.h
; Line 106
$LN3:
	mov	DWORD PTR [rsp+16], edx
	mov	QWORD PTR [rsp+8], rcx
	sub	rsp, 40					; 00000028H
	mov	rax, QWORD PTR this$[rsp]
	mov	edx, DWORD PTR newValue$[rsp]
	mov	rcx, rax
	call	??$storeRelease@HH@?$QGenericAtomicOps@U?$QAtomicOpsBySize@$03@@@@SAXAEAHH@Z ; QGenericAtomicOps<QAtomicOpsBySize<4> >::storeRelease<int,int>
	add	rsp, 40					; 00000028H
	ret	0
?storeRelease@?$QBasicAtomicInteger@H@@QEAAXH@Z ENDP	; QBasicAtomicInteger<int>::storeRelease
_TEXT	ENDS
; Function compile flags: /Odtp
;	COMDAT ?loadAcquire@?$QBasicAtomicInteger@H@@QEBAHXZ
_TEXT	SEGMENT
this$ = 48
?loadAcquire@?$QBasicAtomicInteger@H@@QEBAHXZ PROC	; QBasicAtomicInteger<int>::loadAcquire, COMDAT
; File c:\qt\qt5.9.3\5.9.3\msvc2015_64\include\qtcore\qbasicatomic.h
; Line 105
$LN3:
	mov	QWORD PTR [rsp+8], rcx
	sub	rsp, 40					; 00000028H
	mov	rax, QWORD PTR this$[rsp]
	mov	rcx, rax
	call	??$loadAcquire@H@?$QGenericAtomicOps@U?$QAtomicOpsBySize@$03@@@@SAHAEBH@Z ; QGenericAtomicOps<QAtomicOpsBySize<4> >::loadAcquire<int>
	add	rsp, 40					; 00000028H
	ret	0
?loadAcquire@?$QBasicAtomicInteger@H@@QEBAHXZ ENDP	; QBasicAtomicInteger<int>::loadAcquire
_TEXT	ENDS
; Function compile flags: /Odtp
;	COMDAT ??BQFlag@@QEBAHXZ
_TEXT	SEGMENT
this$ = 8
??BQFlag@@QEBAHXZ PROC					; QFlag::operator int, COMDAT
; File c:\qt\qt5.9.3\5.9.3\msvc2015_64\include\qtcore\qflags.h
; Line 58
	mov	QWORD PTR [rsp+8], rcx
	mov	rax, QWORD PTR this$[rsp]
	mov	eax, DWORD PTR [rax]
	ret	0
??BQFlag@@QEBAHXZ ENDP					; QFlag::operator int
_TEXT	ENDS
; Function compile flags: /Odtp
;	COMDAT ??0QFlag@@QEAA@H@Z
_TEXT	SEGMENT
this$ = 8
ai$ = 16
??0QFlag@@QEAA@H@Z PROC					; QFlag::QFlag, COMDAT
; File c:\qt\qt5.9.3\5.9.3\msvc2015_64\include\qtcore\qflags.h
; Line 57
	mov	DWORD PTR [rsp+16], edx
	mov	QWORD PTR [rsp+8], rcx
	mov	rax, QWORD PTR this$[rsp]
	mov	ecx, DWORD PTR ai$[rsp]
	mov	DWORD PTR [rax], ecx
	mov	rax, QWORD PTR this$[rsp]
	ret	0
??0QFlag@@QEAA@H@Z ENDP					; QFlag::QFlag
_TEXT	ENDS
; Function compile flags: /Odtp
;	COMDAT ?qt_noop@@YAXXZ
_TEXT	SEGMENT
?qt_noop@@YAXXZ PROC					; qt_noop, COMDAT
; File c:\qt\qt5.9.3\5.9.3\msvc2015_64\include\qtcore\qglobal.h
; Line 623
	ret	0
?qt_noop@@YAXXZ ENDP					; qt_noop
_TEXT	ENDS
; Function compile flags: /Odtp
;	COMDAT ??2@YAPEAX_KPEAX@Z
_TEXT	SEGMENT
_Size$ = 8
_Where$ = 16
??2@YAPEAX_KPEAX@Z PROC					; operator new, COMDAT
; File c:\program files (x86)\microsoft visual studio 14.0\vc\include\vcruntime_new.h
; Line 87
	mov	QWORD PTR [rsp+16], rdx
	mov	QWORD PTR [rsp+8], rcx
; Line 89
	mov	rax, QWORD PTR _Where$[rsp]
; Line 90
	ret	0
??2@YAPEAX_KPEAX@Z ENDP					; operator new
_TEXT	ENDS
; Function compile flags: /Odtp
;	COMDAT ?__empty_global_delete@@YAXPEAX_K@Z
_TEXT	SEGMENT
__formal$ = 8
__formal$ = 16
?__empty_global_delete@@YAXPEAX_K@Z PROC		; __empty_global_delete, COMDAT
; File e:\g12_work\weidali_code\b\g12_4_b\ui\src\visionimageuitool\x64\debug\moc\moc_imagewindow.cpp
; Line 396
	mov	QWORD PTR [rsp+16], rdx
	mov	QWORD PTR [rsp+8], rcx
	ret	0
?__empty_global_delete@@YAXPEAX_K@Z ENDP		; __empty_global_delete
_TEXT	ENDS
; Function compile flags: /Odtp
;	COMDAT ?__empty_global_delete@@YAXPEAX@Z
_TEXT	SEGMENT
__formal$ = 8
?__empty_global_delete@@YAXPEAX@Z PROC			; __empty_global_delete, COMDAT
; File e:\g12_work\weidali_code\b\g12_4_b\ui\src\visionimageuitool\x64\debug\moc\moc_imagewindow.cpp
; Line 396
	mov	QWORD PTR [rsp+8], rcx
	ret	0
?__empty_global_delete@@YAXPEAX@Z ENDP			; __empty_global_delete
_TEXT	ENDS
END
