; Listing generated by Microsoft (R) Optimizing Compiler Version 19.00.24215.1 

include listing.inc

INCLUDELIB MSVCRTD
INCLUDELIB OLDNAMES

CONST	SEGMENT
$SG107694 DB	'C:\Qt\Qt5.9.3\5.9.3\msvc2015_64\include\QtCore/qmetatype'
	DB	'.h', 00H
	ORG $+5
$SG107695 DB	'qRegisterNormalizedMetaType was called with a not normal'
	DB	'ized type name, please call qRegisterMetaType instead.', 00H
	ORG $+1
$SG107696 DB	'qRegisterNormalizedMetaType', 00H
	ORG $+4
$SG106700 DB	'C:\Qt\Qt5.9.3\5.9.3\msvc2015_64\include\QtCore/qmetatype'
	DB	'.h', 00H
	ORG $+5
$SG106701 DB	'qRegisterNormalizedMetaType was called with a not normal'
	DB	'ized type name, please call qRegisterMetaType instead.', 00H
	ORG $+1
$SG106702 DB	'qRegisterNormalizedMetaType', 00H
	ORG $+4
$SG107002 DB	'C:\Qt\Qt5.9.3\5.9.3\msvc2015_64\include\QtCore/qmetatype'
	DB	'.h', 00H
	ORG $+5
$SG107003 DB	'qRegisterNormalizedMetaType was called with a not normal'
	DB	'ized type name, please call qRegisterMetaType instead.', 00H
	ORG $+1
$SG107004 DB	'qRegisterNormalizedMetaType', 00H
	ORG $+4
$SG107304 DB	'C:\Qt\Qt5.9.3\5.9.3\msvc2015_64\include\QtCore/qmetatype'
	DB	'.h', 00H
	ORG $+5
$SG107305 DB	'qRegisterNormalizedMetaType was called with a not normal'
	DB	'ized type name, please call qRegisterMetaType instead.', 00H
	ORG $+1
$SG107306 DB	'qRegisterNormalizedMetaType', 00H
	ORG $+4
?qt_meta_stringdata_GraphWidget@@3Uqt_meta_stringdata_GraphWidget_t@@B DD 0ffffffffH ; qt_meta_stringdata_GraphWidget
	DD	0bH
	DD	00H
	ORG $+4
	DQ	0000000000000078H
	DD	0ffffffffH
	DD	0fH
	DD	00H
	ORG $+4
	DQ	000000000000006cH
	DD	0ffffffffH
	DD	00H
	DD	00H
	ORG $+4
	DQ	0000000000000064H
	DD	0ffffffffH
	DD	0bH
	DD	00H
	ORG $+4
	DQ	000000000000004dH
	DD	0ffffffffH
	DD	0cH
	DD	00H
	ORG $+4
	DQ	0000000000000041H
	DB	'GraphWidget', 00H, 'sigScaleChanged', 00H, 00H, 'slot_zo'
	DB	'omIn', 00H, 'slot_zoomOut', 00H
	ORG $+2
?qt_meta_data_GraphWidget@@3QBIB DD 07H			; qt_meta_data_GraphWidget
	DD	00H
	DD	00H
	DD	00H
	DD	03H
	DD	0eH
	DD	00H
	DD	00H
	DD	00H
	DD	00H
	DD	00H
	DD	00H
	DD	00H
	DD	01H
	DD	01H
	DD	01H
	DD	01dH
	DD	02H
	DD	06H
	DD	03H
	DD	00H
	DD	020H
	DD	02H
	DD	0aH
	DD	04H
	DD	00H
	DD	021H
	DD	02H
	DD	0aH
	DD	02bH
	DD	06H
	DD	02H
	DD	02bH
	DD	02bH
	DD	00H
CONST	ENDS
PUBLIC	?__empty_global_delete@@YAXPEAX@Z		; __empty_global_delete
PUBLIC	?__empty_global_delete@@YAXPEAX_K@Z		; __empty_global_delete
PUBLIC	??C?$QScopedPointer@VQObjectData@@U?$QScopedPointerDeleter@VQObjectData@@@@@@QEBAPEAVQObjectData@@XZ ; QScopedPointer<QObjectData,QScopedPointerDeleter<QObjectData> >::operator->
PUBLIC	?metaObject@GraphWidget@@UEBAPEBUQMetaObject@@XZ ; GraphWidget::metaObject
PUBLIC	?qt_metacast@GraphWidget@@UEAAPEAXPEBD@Z	; GraphWidget::qt_metacast
PUBLIC	?qt_metacall@GraphWidget@@UEAAHW4Call@QMetaObject@@HPEAPEAX@Z ; GraphWidget::qt_metacall
PUBLIC	?qt_static_metacall@GraphWidget@@CAXPEAVQObject@@W4Call@QMetaObject@@HPEAPEAX@Z ; GraphWidget::qt_static_metacall
PUBLIC	?sigScaleChanged@GraphWidget@@QEAAXN@Z		; GraphWidget::sigScaleChanged
PUBLIC	?staticMetaObject@GraphWidget@@2UQMetaObject@@B	; GraphWidget::staticMetaObject
EXTRN	strcmp:PROC
EXTRN	__imp_?activate@QMetaObject@@SAXPEAVQObject@@PEBU1@HPEAPEAX@Z:PROC
EXTRN	__imp_?dynamicMetaObject@QObjectData@@QEBAPEAUQMetaObject@@XZ:PROC
EXTRN	__imp_?qt_metacast@QGraphicsView@@UEAAPEAXPEBD@Z:PROC
EXTRN	__imp_?qt_metacall@QGraphicsView@@UEAAHW4Call@QMetaObject@@HPEAPEAX@Z:PROC
EXTRN	?slot_zoomIn@GraphWidget@@QEAAXXZ:PROC		; GraphWidget::slot_zoomIn
EXTRN	?slot_zoomOut@GraphWidget@@QEAAXXZ:PROC		; GraphWidget::slot_zoomOut
EXTRN	__imp_?staticMetaObject@QGraphicsView@@2UQMetaObject@@B:BYTE
EXTRN	_fltused:DWORD
_BSS	SEGMENT
?staticMetaObject@GraphWidget@@2UQMetaObject@@B DB 030H DUP (?) ; GraphWidget::staticMetaObject
_BSS	ENDS
pdata	SEGMENT
$pdata$?metaObject@GraphWidget@@UEBAPEBUQMetaObject@@XZ DD imagerel $LN5
	DD	imagerel $LN5+88
	DD	imagerel $unwind$?metaObject@GraphWidget@@UEBAPEBUQMetaObject@@XZ
$pdata$?qt_metacast@GraphWidget@@UEAAPEAXPEBD@Z DD imagerel $LN5
	DD	imagerel $LN5+75
	DD	imagerel $unwind$?qt_metacast@GraphWidget@@UEAAPEAXPEBD@Z
$pdata$?qt_metacall@GraphWidget@@UEAAHW4Call@QMetaObject@@HPEAPEAX@Z DD imagerel $LN9
	DD	imagerel $LN9+174
	DD	imagerel $unwind$?qt_metacall@GraphWidget@@UEAAHW4Call@QMetaObject@@HPEAPEAX@Z
$pdata$?qt_static_metacall@GraphWidget@@CAXPEAVQObject@@W4Call@QMetaObject@@HPEAPEAX@Z DD imagerel $LN16
	DD	imagerel $LN16+309
	DD	imagerel $unwind$?qt_static_metacall@GraphWidget@@CAXPEAVQObject@@W4Call@QMetaObject@@HPEAPEAX@Z
$pdata$?sigScaleChanged@GraphWidget@@QEAAXN@Z DD imagerel $LN3
	DD	imagerel $LN3+65
	DD	imagerel $unwind$?sigScaleChanged@GraphWidget@@QEAAXN@Z
pdata	ENDS
CRT$XCU	SEGMENT
??staticMetaObject$initializer$@GraphWidget@@2P6AXXZEA@@3P6AXXZEA DQ FLAT:??__E?staticMetaObject@GraphWidget@@2UQMetaObject@@B@@YAXXZ ; ??staticMetaObject$initializer$@GraphWidget@@2P6AXXZEA@@3P6AXXZEA
CRT$XCU	ENDS
xdata	SEGMENT
$unwind$?metaObject@GraphWidget@@UEBAPEBUQMetaObject@@XZ DD 010901H
	DD	06209H
$unwind$?qt_metacast@GraphWidget@@UEAAPEAXPEBD@Z DD 010e01H
	DD	0420eH
$unwind$?qt_metacall@GraphWidget@@UEAAHW4Call@QMetaObject@@HPEAPEAX@Z DD 011701H
	DD	04217H
$unwind$?qt_static_metacall@GraphWidget@@CAXPEAVQObject@@W4Call@QMetaObject@@HPEAPEAX@Z DD 011701H
	DD	0a217H
$unwind$?sigScaleChanged@GraphWidget@@QEAAXN@Z DD 010f01H
	DD	0620fH
xdata	ENDS
; Function compile flags: /Odtp
;	COMDAT ??__E?staticMetaObject@GraphWidget@@2UQMetaObject@@B@@YAXXZ
text$di	SEGMENT
??__E?staticMetaObject@GraphWidget@@2UQMetaObject@@B@@YAXXZ PROC ; `dynamic initializer for 'GraphWidget::staticMetaObject'', COMDAT
; File e:\g12_work\weidali_code\b\g12_4_b\ui\src\visionimageuitool\x64\debug\moc\moc_graphwidget.cpp
; Line 100
	mov	rax, QWORD PTR __imp_?staticMetaObject@QGraphicsView@@2UQMetaObject@@B
	mov	QWORD PTR ?staticMetaObject@GraphWidget@@2UQMetaObject@@B, rax
	lea	rax, OFFSET FLAT:?qt_meta_stringdata_GraphWidget@@3Uqt_meta_stringdata_GraphWidget_t@@B
	mov	QWORD PTR ?staticMetaObject@GraphWidget@@2UQMetaObject@@B+8, rax
; Line 101
	lea	rax, OFFSET FLAT:?qt_meta_data_GraphWidget@@3QBIB
	mov	QWORD PTR ?staticMetaObject@GraphWidget@@2UQMetaObject@@B+16, rax
	lea	rax, OFFSET FLAT:?qt_static_metacall@GraphWidget@@CAXPEAVQObject@@W4Call@QMetaObject@@HPEAPEAX@Z ; GraphWidget::qt_static_metacall
	mov	QWORD PTR ?staticMetaObject@GraphWidget@@2UQMetaObject@@B+24, rax
	mov	QWORD PTR ?staticMetaObject@GraphWidget@@2UQMetaObject@@B+32, 0
	mov	QWORD PTR ?staticMetaObject@GraphWidget@@2UQMetaObject@@B+40, 0
	ret	0
??__E?staticMetaObject@GraphWidget@@2UQMetaObject@@B@@YAXXZ ENDP ; `dynamic initializer for 'GraphWidget::staticMetaObject''
text$di	ENDS
; Function compile flags: /Odtp
_TEXT	SEGMENT
_a$ = 32
this$ = 64
_t1$ = 72
?sigScaleChanged@GraphWidget@@QEAAXN@Z PROC		; GraphWidget::sigScaleChanged
; File e:\g12_work\weidali_code\b\g12_4_b\ui\src\visionimageuitool\x64\debug\moc\moc_graphwidget.cpp
; Line 137
$LN3:
	movsd	QWORD PTR [rsp+16], xmm1
	mov	QWORD PTR [rsp+8], rcx
	sub	rsp, 56					; 00000038H
; Line 138
	mov	QWORD PTR _a$[rsp], 0
	lea	rax, QWORD PTR _t1$[rsp]
	mov	QWORD PTR _a$[rsp+8], rax
; Line 139
	lea	r9, QWORD PTR _a$[rsp]
	xor	r8d, r8d
	lea	rdx, OFFSET FLAT:?staticMetaObject@GraphWidget@@2UQMetaObject@@B ; GraphWidget::staticMetaObject
	mov	rcx, QWORD PTR this$[rsp]
	call	QWORD PTR __imp_?activate@QMetaObject@@SAXPEAVQObject@@PEBU1@HPEAPEAX@Z
; Line 140
	add	rsp, 56					; 00000038H
	ret	0
?sigScaleChanged@GraphWidget@@QEAAXN@Z ENDP		; GraphWidget::sigScaleChanged
_TEXT	ENDS
; Function compile flags: /Odtp
_TEXT	SEGMENT
tv69 = 32
tv128 = 36
_t$1 = 40
result$2 = 48
$T3 = 56
_o$ = 96
_c$ = 104
_id$ = 112
_a$ = 120
?qt_static_metacall@GraphWidget@@CAXPEAVQObject@@W4Call@QMetaObject@@HPEAPEAX@Z PROC ; GraphWidget::qt_static_metacall
; File e:\g12_work\weidali_code\b\g12_4_b\ui\src\visionimageuitool\x64\debug\moc\moc_graphwidget.cpp
; Line 77
$LN16:
	mov	QWORD PTR [rsp+32], r9
	mov	DWORD PTR [rsp+24], r8d
	mov	DWORD PTR [rsp+16], edx
	mov	QWORD PTR [rsp+8], rcx
	sub	rsp, 88					; 00000058H
; Line 78
	cmp	DWORD PTR _c$[rsp], 0
	jne	SHORT $LN4@qt_static_
; Line 79
	mov	rax, QWORD PTR _o$[rsp]
	mov	QWORD PTR _t$1[rsp], rax
; Line 81
	mov	eax, DWORD PTR _id$[rsp]
	mov	DWORD PTR tv69[rsp], eax
	cmp	DWORD PTR tv69[rsp], 0
	je	SHORT $LN6@qt_static_
	cmp	DWORD PTR tv69[rsp], 1
	je	SHORT $LN7@qt_static_
	cmp	DWORD PTR tv69[rsp], 2
	je	SHORT $LN8@qt_static_
	jmp	SHORT $LN9@qt_static_
$LN6@qt_static_:
; Line 82
	mov	eax, 8
	imul	rax, rax, 1
	mov	rcx, QWORD PTR _a$[rsp]
	mov	rax, QWORD PTR [rcx+rax]
	movsd	xmm0, QWORD PTR [rax]
	movaps	xmm1, xmm0
	mov	rcx, QWORD PTR _t$1[rsp]
	call	?sigScaleChanged@GraphWidget@@QEAAXN@Z	; GraphWidget::sigScaleChanged
	jmp	SHORT $LN2@qt_static_
$LN7@qt_static_:
; Line 83
	mov	rcx, QWORD PTR _t$1[rsp]
	call	?slot_zoomIn@GraphWidget@@QEAAXXZ	; GraphWidget::slot_zoomIn
	jmp	SHORT $LN2@qt_static_
$LN8@qt_static_:
; Line 84
	mov	rcx, QWORD PTR _t$1[rsp]
	call	?slot_zoomOut@GraphWidget@@QEAAXXZ	; GraphWidget::slot_zoomOut
$LN9@qt_static_:
$LN2@qt_static_:
; Line 87
	jmp	$LN5@qt_static_
$LN4@qt_static_:
	cmp	DWORD PTR _c$[rsp], 10
	jne	$LN10@qt_static_
; Line 88
	mov	eax, 8
	imul	rax, rax, 0
	mov	rcx, QWORD PTR _a$[rsp]
	mov	rax, QWORD PTR [rcx+rax]
	mov	QWORD PTR result$2[rsp], rax
; Line 91
	lea	rax, OFFSET FLAT:?sigScaleChanged@GraphWidget@@QEAAXN@Z ; GraphWidget::sigScaleChanged
	mov	QWORD PTR $T3[rsp], rax
	mov	DWORD PTR $T3[rsp+8], 0
	mov	eax, 8
	imul	rax, rax, 1
	mov	rcx, QWORD PTR _a$[rsp]
	mov	rax, QWORD PTR [rcx+rax]
	mov	rcx, QWORD PTR $T3[rsp]
	cmp	QWORD PTR [rax], rcx
	jne	SHORT $LN14@qt_static_
	mov	eax, 8
	imul	rax, rax, 1
	mov	rcx, QWORD PTR _a$[rsp]
	mov	rax, QWORD PTR [rcx+rax]
	cmp	QWORD PTR [rax], 0
	je	SHORT $LN13@qt_static_
	mov	eax, 8
	imul	rax, rax, 1
	mov	rcx, QWORD PTR _a$[rsp]
	mov	rax, QWORD PTR [rcx+rax]
	mov	ecx, DWORD PTR $T3[rsp+8]
	cmp	DWORD PTR [rax+8], ecx
	jne	SHORT $LN14@qt_static_
$LN13@qt_static_:
	mov	DWORD PTR tv128[rsp], 1
	jmp	SHORT $LN15@qt_static_
$LN14@qt_static_:
	mov	DWORD PTR tv128[rsp], 0
$LN15@qt_static_:
	cmp	DWORD PTR tv128[rsp], 0
	je	SHORT $LN11@qt_static_
; Line 92
	mov	rax, QWORD PTR result$2[rsp]
	mov	DWORD PTR [rax], 0
$LN11@qt_static_:
$LN10@qt_static_:
$LN5@qt_static_:
; Line 97
	add	rsp, 88					; 00000058H
	ret	0
?qt_static_metacall@GraphWidget@@CAXPEAVQObject@@W4Call@QMetaObject@@HPEAPEAX@Z ENDP ; GraphWidget::qt_static_metacall
_TEXT	ENDS
; Function compile flags: /Odtp
_TEXT	SEGMENT
this$ = 48
_c$ = 56
_id$ = 64
_a$ = 72
?qt_metacall@GraphWidget@@UEAAHW4Call@QMetaObject@@HPEAPEAX@Z PROC ; GraphWidget::qt_metacall
; File e:\g12_work\weidali_code\b\g12_4_b\ui\src\visionimageuitool\x64\debug\moc\moc_graphwidget.cpp
; Line 119
$LN9:
	mov	QWORD PTR [rsp+32], r9
	mov	DWORD PTR [rsp+24], r8d
	mov	DWORD PTR [rsp+16], edx
	mov	QWORD PTR [rsp+8], rcx
	sub	rsp, 40					; 00000028H
; Line 120
	mov	r9, QWORD PTR _a$[rsp]
	mov	r8d, DWORD PTR _id$[rsp]
	mov	edx, DWORD PTR _c$[rsp]
	mov	rcx, QWORD PTR this$[rsp]
	call	QWORD PTR __imp_?qt_metacall@QGraphicsView@@UEAAHW4Call@QMetaObject@@HPEAPEAX@Z
	mov	DWORD PTR _id$[rsp], eax
; Line 121
	cmp	DWORD PTR _id$[rsp], 0
	jge	SHORT $LN2@qt_metacal
; Line 122
	mov	eax, DWORD PTR _id$[rsp]
	jmp	SHORT $LN1@qt_metacal
$LN2@qt_metacal:
; Line 123
	cmp	DWORD PTR _c$[rsp], 0
	jne	SHORT $LN3@qt_metacal
; Line 124
	cmp	DWORD PTR _id$[rsp], 3
	jge	SHORT $LN5@qt_metacal
; Line 125
	mov	r9, QWORD PTR _a$[rsp]
	mov	r8d, DWORD PTR _id$[rsp]
	mov	edx, DWORD PTR _c$[rsp]
	mov	rcx, QWORD PTR this$[rsp]
	call	?qt_static_metacall@GraphWidget@@CAXPEAVQObject@@W4Call@QMetaObject@@HPEAPEAX@Z ; GraphWidget::qt_static_metacall
$LN5@qt_metacal:
; Line 126
	mov	eax, DWORD PTR _id$[rsp]
	sub	eax, 3
	mov	DWORD PTR _id$[rsp], eax
	jmp	SHORT $LN4@qt_metacal
$LN3@qt_metacal:
; Line 127
	cmp	DWORD PTR _c$[rsp], 12
	jne	SHORT $LN6@qt_metacal
; Line 128
	cmp	DWORD PTR _id$[rsp], 3
	jge	SHORT $LN7@qt_metacal
; Line 129
	mov	eax, 8
	imul	rax, rax, 0
	mov	rcx, QWORD PTR _a$[rsp]
	mov	rax, QWORD PTR [rcx+rax]
	mov	DWORD PTR [rax], -1
$LN7@qt_metacal:
; Line 130
	mov	eax, DWORD PTR _id$[rsp]
	sub	eax, 3
	mov	DWORD PTR _id$[rsp], eax
$LN6@qt_metacal:
$LN4@qt_metacal:
; Line 132
	mov	eax, DWORD PTR _id$[rsp]
$LN1@qt_metacal:
; Line 133
	add	rsp, 40					; 00000028H
	ret	0
?qt_metacall@GraphWidget@@UEAAHW4Call@QMetaObject@@HPEAPEAX@Z ENDP ; GraphWidget::qt_metacall
_TEXT	ENDS
; Function compile flags: /Odtp
_TEXT	SEGMENT
this$ = 48
_clname$ = 56
?qt_metacast@GraphWidget@@UEAAPEAXPEBD@Z PROC		; GraphWidget::qt_metacast
; File e:\g12_work\weidali_code\b\g12_4_b\ui\src\visionimageuitool\x64\debug\moc\moc_graphwidget.cpp
; Line 111
$LN5:
	mov	QWORD PTR [rsp+16], rdx
	mov	QWORD PTR [rsp+8], rcx
	sub	rsp, 40					; 00000028H
; Line 112
	cmp	QWORD PTR _clname$[rsp], 0
	jne	SHORT $LN2@qt_metacas
	xor	eax, eax
	jmp	SHORT $LN1@qt_metacas
$LN2@qt_metacas:
; Line 113
	lea	rdx, OFFSET FLAT:?qt_meta_stringdata_GraphWidget@@3Uqt_meta_stringdata_GraphWidget_t@@B+120
	mov	rcx, QWORD PTR _clname$[rsp]
	call	strcmp
	test	eax, eax
	jne	SHORT $LN3@qt_metacas
; Line 114
	mov	rax, QWORD PTR this$[rsp]
	jmp	SHORT $LN1@qt_metacas
$LN3@qt_metacas:
; Line 115
	mov	rdx, QWORD PTR _clname$[rsp]
	mov	rcx, QWORD PTR this$[rsp]
	call	QWORD PTR __imp_?qt_metacast@QGraphicsView@@UEAAPEAXPEBD@Z
$LN1@qt_metacas:
; Line 116
	add	rsp, 40					; 00000028H
	ret	0
?qt_metacast@GraphWidget@@UEAAPEAXPEBD@Z ENDP		; GraphWidget::qt_metacast
_TEXT	ENDS
; Function compile flags: /Odtp
_TEXT	SEGMENT
tv82 = 32
this$ = 64
?metaObject@GraphWidget@@UEBAPEBUQMetaObject@@XZ PROC	; GraphWidget::metaObject
; File e:\g12_work\weidali_code\b\g12_4_b\ui\src\visionimageuitool\x64\debug\moc\moc_graphwidget.cpp
; Line 106
$LN5:
	mov	QWORD PTR [rsp+8], rcx
	sub	rsp, 56					; 00000038H
; Line 107
	mov	rax, QWORD PTR this$[rsp]
	add	rax, 8
	mov	rcx, rax
	call	??C?$QScopedPointer@VQObjectData@@U?$QScopedPointerDeleter@VQObjectData@@@@@@QEBAPEAVQObjectData@@XZ ; QScopedPointer<QObjectData,QScopedPointerDeleter<QObjectData> >::operator->
	cmp	QWORD PTR [rax+40], 0
	je	SHORT $LN3@metaObject
	mov	rax, QWORD PTR this$[rsp]
	add	rax, 8
	mov	rcx, rax
	call	??C?$QScopedPointer@VQObjectData@@U?$QScopedPointerDeleter@VQObjectData@@@@@@QEBAPEAVQObjectData@@XZ ; QScopedPointer<QObjectData,QScopedPointerDeleter<QObjectData> >::operator->
	mov	rcx, rax
	call	QWORD PTR __imp_?dynamicMetaObject@QObjectData@@QEBAPEAUQMetaObject@@XZ
	mov	QWORD PTR tv82[rsp], rax
	jmp	SHORT $LN4@metaObject
$LN3@metaObject:
	lea	rax, OFFSET FLAT:?staticMetaObject@GraphWidget@@2UQMetaObject@@B ; GraphWidget::staticMetaObject
	mov	QWORD PTR tv82[rsp], rax
$LN4@metaObject:
	mov	rax, QWORD PTR tv82[rsp]
; Line 108
	add	rsp, 56					; 00000038H
	ret	0
?metaObject@GraphWidget@@UEBAPEBUQMetaObject@@XZ ENDP	; GraphWidget::metaObject
_TEXT	ENDS
; Function compile flags: /Odtp
;	COMDAT ??C?$QScopedPointer@VQObjectData@@U?$QScopedPointerDeleter@VQObjectData@@@@@@QEBAPEAVQObjectData@@XZ
_TEXT	SEGMENT
this$ = 8
??C?$QScopedPointer@VQObjectData@@U?$QScopedPointerDeleter@VQObjectData@@@@@@QEBAPEAVQObjectData@@XZ PROC ; QScopedPointer<QObjectData,QScopedPointerDeleter<QObjectData> >::operator->, COMDAT
; File c:\qt\qt5.9.3\5.9.3\msvc2015_64\include\qtcore\qscopedpointer.h
; Line 117
	mov	QWORD PTR [rsp+8], rcx
; Line 118
	mov	rax, QWORD PTR this$[rsp]
	mov	rax, QWORD PTR [rax]
; Line 119
	ret	0
??C?$QScopedPointer@VQObjectData@@U?$QScopedPointerDeleter@VQObjectData@@@@@@QEBAPEAVQObjectData@@XZ ENDP ; QScopedPointer<QObjectData,QScopedPointerDeleter<QObjectData> >::operator->
_TEXT	ENDS
; Function compile flags: /Odtp
;	COMDAT ?__empty_global_delete@@YAXPEAX_K@Z
_TEXT	SEGMENT
__formal$ = 8
__formal$ = 16
?__empty_global_delete@@YAXPEAX_K@Z PROC		; __empty_global_delete, COMDAT
; File e:\g12_work\weidali_code\b\g12_4_b\ui\src\visionimageuitool\x64\debug\moc\moc_graphwidget.cpp
; Line 143
	mov	QWORD PTR [rsp+16], rdx
	mov	QWORD PTR [rsp+8], rcx
	ret	0
?__empty_global_delete@@YAXPEAX_K@Z ENDP		; __empty_global_delete
_TEXT	ENDS
; Function compile flags: /Odtp
;	COMDAT ?__empty_global_delete@@YAXPEAX@Z
_TEXT	SEGMENT
__formal$ = 8
?__empty_global_delete@@YAXPEAX@Z PROC			; __empty_global_delete, COMDAT
; File e:\g12_work\weidali_code\b\g12_4_b\ui\src\visionimageuitool\x64\debug\moc\moc_graphwidget.cpp
; Line 143
	mov	QWORD PTR [rsp+8], rcx
	ret	0
?__empty_global_delete@@YAXPEAX@Z ENDP			; __empty_global_delete
_TEXT	ENDS
END
