; Listing generated by Microsoft (R) Optimizing Compiler Version 19.00.24215.1 

include listing.inc

INCLUDELIB MSVCRTD
INCLUDELIB OLDNAMES

qtmetadata	SEGMENT
?qt_pluginMetaData@@3QBEB DB 051H			; qt_pluginMetaData
	DB	054H
	DB	04dH
	DB	045H
	DB	054H
	DB	041H
	DB	044H
	DB	041H
	DB	054H
	DB	041H
	DB	020H
	DB	020H
	DB	071H
	DB	062H
	DB	06aH
	DB	073H
	DB	01H
	DB	00H
	DB	00H
	DB	00H
	DB	0a4H
	DB	00H
	DB	00H
	DB	00H
	DB	0bH
	DB	00H
	DB	00H
	DB	00H
	DB	090H
	DB	00H
	DB	00H
	DB	00H
	DB	01bH
	DB	03H
	DB	00H
	DB	00H
	DB	03H
	DB	00H
	DB	049H
	DB	049H
	DB	044H
	DB	00H
	DB	00H
	DB	00H
	DB	019H
	DB	00H
	DB	063H
	DB	06fH
	DB	06dH
	DB	02eH
	DB	062H
	DB	06aH
	DB	02eH
	DB	050H
	DB	06cH
	DB	075H
	DB	067H
	DB	069H
	DB	06eH
	DB	02eH
	DB	049H
	DB	04eH
	DB	06fH
	DB	074H
	DB	069H
	DB	066H
	DB	079H
	DB	02fH
	DB	031H
	DB	02eH
	DB	030H
	DB	00H
	DB	095H
	DB	08H
	DB	00H
	DB	00H
	DB	08H
	DB	00H
	DB	04dH
	DB	065H
	DB	074H
	DB	061H
	DB	044H
	DB	061H
	DB	074H
	DB	061H
	DB	00H
	DB	00H
	DB	0cH
	DB	00H
	DB	00H
	DB	00H
	DB	00H
	DB	00H
	DB	00H
	DB	00H
	DB	00H
	DB	00H
	DB	00H
	DB	00H
	DB	01bH
	DB	0cH
	DB	00H
	DB	00H
	DB	09H
	DB	00H
	DB	063H
	DB	06cH
	DB	061H
	DB	073H
	DB	073H
	DB	04eH
	DB	061H
	DB	06dH
	DB	065H
	DB	00H
	DB	010H
	DB	00H
	DB	043H
	DB	043H
	DB	061H
	DB	06dH
	DB	065H
	DB	072H
	DB	061H
	DB	053H
	DB	065H
	DB	074H
	DB	074H
	DB	069H
	DB	06eH
	DB	067H
	DB	055H
	DB	049H
	DB	00H
	DB	00H
	DB	031H
	DB	00H
	DB	00H
	DB	00H
	DB	05H
	DB	00H
	DB	064H
	DB	065H
	DB	062H
	DB	075H
	DB	067H
	DB	00H
	DB	07aH
	DB	020H
	DB	0a1H
	DB	00H
	DB	07H
	DB	00H
	DB	076H
	DB	065H
	DB	072H
	DB	073H
	DB	069H
	DB	06fH
	DB	06eH
	DB	00H
	DB	00H
	DB	00H
	DB	0cH
	DB	00H
	DB	00H
	DB	00H
	DB	034H
	DB	00H
	DB	00H
	DB	00H
	DB	050H
	DB	00H
	DB	00H
	DB	00H
	DB	074H
	DB	00H
	DB	00H
	DB	00H
	DB	080H
	DB	00H
	DB	00H
	DB	00H
qtmetadata	ENDS
CONST	SEGMENT
$SG102504 DB	'C:\Qt\Qt5.9.3\5.9.3\msvc2015_64\include\QtCore/qmetatype'
	DB	'.h', 00H
	ORG $+5
$SG102505 DB	'qRegisterNormalizedMetaType was called with a not normal'
	DB	'ized type name, please call qRegisterMetaType instead.', 00H
	ORG $+1
$SG102506 DB	'qRegisterNormalizedMetaType', 00H
	ORG $+4
?qt_meta_stringdata_CCameraSettingUI@@3Uqt_meta_stringdata_CCameraSettingUI_t@@B DD 0ffffffffH ; qt_meta_stringdata_CCameraSettingUI
	DD	010H
	DD	00H
	ORG $+4
	DQ	0000000000000018H
	DB	'CCameraSettingUI', 00H
	ORG $+7
?qt_meta_data_CCameraSettingUI@@3QBIB DD 07H		; qt_meta_data_CCameraSettingUI
	DD	00H
	DD	00H
	DD	00H
	DD	00H
	DD	00H
	DD	00H
	DD	00H
	DD	00H
	DD	00H
	DD	00H
	DD	00H
	DD	00H
	DD	00H
	DD	00H
	ORG $+4
$SG86305 DB	'IUIPlugin', 00H
	ORG $+6
$SG86307 DB	'INotify', 00H
$SG86309 DB	'com.bj.Plugin.IPlugin/1.0', 00H
	ORG $+6
$SG86311 DB	'com.bj.Plugin.IUIPlugin/1.0', 00H
	ORG $+4
$SG86313 DB	'com.bj.Plugin.INotify/1.0', 00H
	ORG $+6
$SG102806 DB	'C:\Qt\Qt5.9.3\5.9.3\msvc2015_64\include\QtCore/qmetatype'
	DB	'.h', 00H
	ORG $+5
$SG102808 DB	'qRegisterNormalizedMetaType', 00H
	ORG $+12
$SG102807 DB	'qRegisterNormalizedMetaType was called with a not normal'
	DB	'ized type name, please call qRegisterMetaType instead.', 00H
	ORG $+1
$SG102202 DB	'C:\Qt\Qt5.9.3\5.9.3\msvc2015_64\include\QtCore/qmetatype'
	DB	'.h', 00H
	ORG $+5
$SG102203 DB	'qRegisterNormalizedMetaType was called with a not normal'
	DB	'ized type name, please call qRegisterMetaType instead.', 00H
	ORG $+1
$SG102204 DB	'qRegisterNormalizedMetaType', 00H
CONST	ENDS
PUBLIC	?__empty_global_delete@@YAXPEAX@Z		; __empty_global_delete
PUBLIC	?__empty_global_delete@@YAXPEAX_K@Z		; __empty_global_delete
PUBLIC	?qt_noop@@YAXXZ					; qt_noop
PUBLIC	?load@?$QBasicAtomicInteger@H@@QEBAHXZ		; QBasicAtomicInteger<int>::load
PUBLIC	?deref@?$QBasicAtomicInteger@H@@QEAA_NXZ	; QBasicAtomicInteger<int>::deref
PUBLIC	??C?$QScopedPointer@VQObjectData@@U?$QScopedPointerDeleter@VQObjectData@@@@@@QEBAPEAVQObjectData@@XZ ; QScopedPointer<QObjectData,QScopedPointerDeleter<QObjectData> >::operator->
PUBLIC	??1ExternalRefCountData@QtSharedPointer@@QEAA@XZ ; QtSharedPointer::ExternalRefCountData::~ExternalRefCountData
PUBLIC	??3ExternalRefCountData@QtSharedPointer@@SAXPEAX@Z ; QtSharedPointer::ExternalRefCountData::operator delete
PUBLIC	??_GExternalRefCountData@QtSharedPointer@@QEAAPEAXI@Z ; QtSharedPointer::ExternalRefCountData::`scalar deleting destructor'
PUBLIC	?metaObject@CCameraSettingUI@@UEBAPEBUQMetaObject@@XZ ; CCameraSettingUI::metaObject
PUBLIC	?qt_metacast@CCameraSettingUI@@UEAAPEAXPEBD@Z	; CCameraSettingUI::qt_metacast
PUBLIC	?qt_metacall@CCameraSettingUI@@UEAAHW4Call@QMetaObject@@HPEAPEAX@Z ; CCameraSettingUI::qt_metacall
PUBLIC	?qt_static_metacall@CCameraSettingUI@@CAXPEAVQObject@@W4Call@QMetaObject@@HPEAPEAX@Z ; CCameraSettingUI::qt_static_metacall
PUBLIC	qt_plugin_query_metadata
PUBLIC	qt_plugin_instance
PUBLIC	?data@?$QWeakPointer@VQObject@@@@QEBAPEAVQObject@@XZ ; QWeakPointer<QObject>::data
PUBLIC	??0?$QWeakPointer@VQObject@@@@QEAA@XZ		; QWeakPointer<QObject>::QWeakPointer<QObject>
PUBLIC	??1?$QWeakPointer@VQObject@@@@QEAA@XZ		; QWeakPointer<QObject>::~QWeakPointer<QObject>
PUBLIC	??0?$QWeakPointer@VQObject@@@@QEAA@$$QEAV0@@Z	; QWeakPointer<QObject>::QWeakPointer<QObject>
PUBLIC	??4?$QWeakPointer@VQObject@@@@QEAAAEAV0@$$QEAV0@@Z ; QWeakPointer<QObject>::operator=
PUBLIC	?swap@?$QWeakPointer@VQObject@@@@QEAAXAEAV1@@Z	; QWeakPointer<QObject>::swap
PUBLIC	??0?$QPointer@VQObject@@@@QEAA@XZ		; QPointer<QObject>::QPointer<QObject>
PUBLIC	??4?$QPointer@VQObject@@@@QEAAAEAV0@PEAVQObject@@@Z ; QPointer<QObject>::operator=
PUBLIC	?data@?$QPointer@VQObject@@@@QEBAPEAVQObject@@XZ ; QPointer<QObject>::data
PUBLIC	??B?$QPointer@VQObject@@@@QEBAPEAVQObject@@XZ	; QPointer<QObject>::operator QObject * __ptr64
PUBLIC	??1?$QPointer@VQObject@@@@QEAA@XZ		; QPointer<QObject>::~QPointer<QObject>
PUBLIC	??$assign@VQObject@@@?$QWeakPointer@VQObject@@@@AEAAAEAV0@PEAVQObject@@@Z ; QWeakPointer<QObject>::assign<QObject>
PUBLIC	??$deref@H@?$QAtomicOpsBySize@$03@@SA_NAEAH@Z	; QAtomicOpsBySize<4>::deref<int>
PUBLIC	??$load@H@?$QGenericAtomicOps@U?$QAtomicOpsBySize@$03@@@@SAHAEBH@Z ; QGenericAtomicOps<QAtomicOpsBySize<4> >::load<int>
PUBLIC	??$?0VQObject@@@?$QWeakPointer@VQObject@@@@AEAA@PEAVQObject@@_N@Z ; QWeakPointer<QObject>::QWeakPointer<QObject><QObject>
PUBLIC	??$atomic@H@?$QAtomicOpsBySize@$03@@CAPEAJPEAH@Z ; QAtomicOpsBySize<4>::atomic<int>
PUBLIC	??$move@AEAV?$QWeakPointer@VQObject@@@@@std@@YA$$QEAV?$QWeakPointer@VQObject@@@@AEAV1@@Z ; std::move<QWeakPointer<QObject> & __ptr64>
PUBLIC	??$qSwap@PEAUExternalRefCountData@QtSharedPointer@@@@YAXAEAPEAUExternalRefCountData@QtSharedPointer@@0@Z ; qSwap<QtSharedPointer::ExternalRefCountData * __ptr64>
PUBLIC	??$swap@PEAUExternalRefCountData@QtSharedPointer@@X@std@@YAXAEAPEAUExternalRefCountData@QtSharedPointer@@0@Z ; std::swap<QtSharedPointer::ExternalRefCountData * __ptr64,void>
PUBLIC	??$qSwap@PEAVQObject@@@@YAXAEAPEAVQObject@@0@Z	; qSwap<QObject * __ptr64>
PUBLIC	??$swap@PEAVQObject@@X@std@@YAXAEAPEAVQObject@@0@Z ; std::swap<QObject * __ptr64,void>
PUBLIC	??$move@AEAPEAUExternalRefCountData@QtSharedPointer@@@std@@YA$$QEAPEAUExternalRefCountData@QtSharedPointer@@AEAPEAU12@@Z ; std::move<QtSharedPointer::ExternalRefCountData * __ptr64 & __ptr64>
PUBLIC	??$move@AEAPEAVQObject@@@std@@YA$$QEAPEAVQObject@@AEAPEAV1@@Z ; std::move<QObject * __ptr64 & __ptr64>
PUBLIC	??_C@_0EF@BPKGFNLI@C?3?2Qt?2Qt5?49?43?25?49?43?2msvc2015_64?2@ ; `string'
PUBLIC	??_C@_0BA@DACKCACB@?$CBweakref?4load?$CI?$CJ?$AA@ ; `string'
PUBLIC	??_C@_0BG@MJFKBJF@strongref?4load?$CI?$CJ?5?$DM?$DN?50?$AA@ ; `string'
PUBLIC	?staticMetaObject@CCameraSettingUI@@2UQMetaObject@@B ; CCameraSettingUI::staticMetaObject
EXTRN	??2@YAPEAX_K@Z:PROC				; operator new
EXTRN	??3@YAXPEAX@Z:PROC				; operator delete
EXTRN	?__global_delete@@YAXPEAX_K@Z:PROC		; __global_delete
EXTRN	atexit:PROC
EXTRN	_Init_thread_header:PROC
EXTRN	_Init_thread_footer:PROC
EXTRN	strcmp:PROC
EXTRN	__imp_?qt_assert@@YAXPEBD0H@Z:PROC
EXTRN	__imp_?dynamicMetaObject@QObjectData@@QEBAPEAUQMetaObject@@XZ:PROC
EXTRN	__imp_?qt_metacast@QObject@@UEAAPEAXPEBD@Z:PROC
EXTRN	__imp_?qt_metacall@QObject@@UEAAHW4Call@QMetaObject@@HPEAPEAX@Z:PROC
EXTRN	__imp_?getAndRef@ExternalRefCountData@QtSharedPointer@@SAPEAU12@PEBVQObject@@@Z:PROC
EXTRN	??0CCameraSettingUI@@QEAA@XZ:PROC		; CCameraSettingUI::CCameraSettingUI
EXTRN	__CxxFrameHandler3:PROC
EXTRN	_Init_thread_epoch:DWORD
EXTRN	__imp_?staticMetaObject@QObject@@2UQMetaObject@@B:BYTE
EXTRN	_tls_index:DWORD
_BSS	SEGMENT
?staticMetaObject@CCameraSettingUI@@2UQMetaObject@@B DB 030H DUP (?) ; CCameraSettingUI::staticMetaObject
_BSS	ENDS
;	COMDAT ?_instance@?1??qt_plugin_instance@@9@4V?$QPointer@VQObject@@@@A
_BSS	SEGMENT
?_instance@?1??qt_plugin_instance@@9@4V?$QPointer@VQObject@@@@A DB 010H DUP (?) ; `qt_plugin_instance'::`2'::_instance
_BSS	ENDS
;	COMDAT ?$TSS0@?1??qt_plugin_instance@@9@4HA
_BSS	SEGMENT
?$TSS0@?1??qt_plugin_instance@@9@4HA DD 01H DUP (?)	; TSS0<`template-parameter-2',t_plugin_instance>
_BSS	ENDS
;	COMDAT pdata
pdata	SEGMENT
$pdata$?load@?$QBasicAtomicInteger@H@@QEBAHXZ DD imagerel $LN3
	DD	imagerel $LN3+27
	DD	imagerel $unwind$?load@?$QBasicAtomicInteger@H@@QEBAHXZ
pdata	ENDS
;	COMDAT pdata
pdata	SEGMENT
$pdata$?deref@?$QBasicAtomicInteger@H@@QEAA_NXZ DD imagerel $LN3
	DD	imagerel $LN3+27
	DD	imagerel $unwind$?deref@?$QBasicAtomicInteger@H@@QEAA_NXZ
pdata	ENDS
;	COMDAT pdata
pdata	SEGMENT
$pdata$??1ExternalRefCountData@QtSharedPointer@@QEAA@XZ DD imagerel $LN7
	DD	imagerel $LN7+165
	DD	imagerel $unwind$??1ExternalRefCountData@QtSharedPointer@@QEAA@XZ
pdata	ENDS
;	COMDAT pdata
pdata	SEGMENT
$pdata$??3ExternalRefCountData@QtSharedPointer@@SAXPEAX@Z DD imagerel $LN3
	DD	imagerel $LN3+24
	DD	imagerel $unwind$??3ExternalRefCountData@QtSharedPointer@@SAXPEAX@Z
pdata	ENDS
;	COMDAT pdata
pdata	SEGMENT
$pdata$??_GExternalRefCountData@QtSharedPointer@@QEAAPEAXI@Z DD imagerel $LN7
	DD	imagerel $LN7+82
	DD	imagerel $unwind$??_GExternalRefCountData@QtSharedPointer@@QEAAPEAXI@Z
pdata	ENDS
pdata	SEGMENT
$pdata$?metaObject@CCameraSettingUI@@UEBAPEBUQMetaObject@@XZ DD imagerel $LN5
	DD	imagerel $LN5+88
	DD	imagerel $unwind$?metaObject@CCameraSettingUI@@UEBAPEBUQMetaObject@@XZ
$pdata$?qt_metacast@CCameraSettingUI@@UEAAPEAXPEBD@Z DD imagerel $LN20
	DD	imagerel $LN20+395
	DD	imagerel $unwind$?qt_metacast@CCameraSettingUI@@UEAAPEAXPEBD@Z
$pdata$?qt_metacall@CCameraSettingUI@@UEAAHW4Call@QMetaObject@@HPEAPEAX@Z DD imagerel $LN3
	DD	imagerel $LN3+61
	DD	imagerel $unwind$?qt_metacall@CCameraSettingUI@@UEAAHW4Call@QMetaObject@@HPEAPEAX@Z
$pdata$qt_plugin_instance DD imagerel $LN7
	DD	imagerel $LN7+200
	DD	imagerel $unwind$qt_plugin_instance
pdata	ENDS
;	COMDAT pdata
pdata	SEGMENT
$pdata$?data@?$QWeakPointer@VQObject@@@@QEBAPEAVQObject@@XZ DD imagerel $LN5
	DD	imagerel $LN5+79
	DD	imagerel $unwind$?data@?$QWeakPointer@VQObject@@@@QEBAPEAVQObject@@XZ
pdata	ENDS
;	COMDAT pdata
pdata	SEGMENT
$pdata$??1?$QWeakPointer@VQObject@@@@QEAA@XZ DD imagerel $LN6
	DD	imagerel $LN6+110
	DD	imagerel $unwind$??1?$QWeakPointer@VQObject@@@@QEAA@XZ
pdata	ENDS
;	COMDAT pdata
pdata	SEGMENT
$pdata$??4?$QWeakPointer@VQObject@@@@QEAAAEAV0@$$QEAV0@@Z DD imagerel $LN3
	DD	imagerel $LN3+82
	DD	imagerel $unwind$??4?$QWeakPointer@VQObject@@@@QEAAAEAV0@$$QEAV0@@Z
pdata	ENDS
;	COMDAT pdata
pdata	SEGMENT
$pdata$?swap@?$QWeakPointer@VQObject@@@@QEAAXAEAV1@@Z DD imagerel $LN3
	DD	imagerel $LN3+63
	DD	imagerel $unwind$?swap@?$QWeakPointer@VQObject@@@@QEAAXAEAV1@@Z
pdata	ENDS
;	COMDAT pdata
pdata	SEGMENT
$pdata$??0?$QPointer@VQObject@@@@QEAA@XZ DD imagerel $LN4
	DD	imagerel $LN4+32
	DD	imagerel $unwind$??0?$QPointer@VQObject@@@@QEAA@XZ
pdata	ENDS
;	COMDAT pdata
pdata	SEGMENT
$pdata$??4?$QPointer@VQObject@@@@QEAAAEAV0@PEAVQObject@@@Z DD imagerel $LN3
	DD	imagerel $LN3+42
	DD	imagerel $unwind$??4?$QPointer@VQObject@@@@QEAAAEAV0@PEAVQObject@@@Z
pdata	ENDS
;	COMDAT pdata
pdata	SEGMENT
$pdata$?data@?$QPointer@VQObject@@@@QEBAPEAVQObject@@XZ DD imagerel $LN3
	DD	imagerel $LN3+27
	DD	imagerel $unwind$?data@?$QPointer@VQObject@@@@QEBAPEAVQObject@@XZ
pdata	ENDS
;	COMDAT pdata
pdata	SEGMENT
$pdata$??B?$QPointer@VQObject@@@@QEBAPEAVQObject@@XZ DD imagerel $LN3
	DD	imagerel $LN3+24
	DD	imagerel $unwind$??B?$QPointer@VQObject@@@@QEBAPEAVQObject@@XZ
pdata	ENDS
;	COMDAT pdata
pdata	SEGMENT
$pdata$??1?$QPointer@VQObject@@@@QEAA@XZ DD imagerel $LN3
	DD	imagerel $LN3+27
	DD	imagerel $unwind$??1?$QPointer@VQObject@@@@QEAA@XZ
pdata	ENDS
;	COMDAT pdata
pdata	SEGMENT
$pdata$??__F_instance@?1??qt_plugin_instance@@9@YAXXZ DD imagerel ??__F_instance@?1??qt_plugin_instance@@9@YAXXZ
	DD	imagerel ??__F_instance@?1??qt_plugin_instance@@9@YAXXZ+21
	DD	imagerel $unwind$??__F_instance@?1??qt_plugin_instance@@9@YAXXZ
pdata	ENDS
;	COMDAT pdata
pdata	SEGMENT
$pdata$??$assign@VQObject@@@?$QWeakPointer@VQObject@@@@AEAAAEAV0@PEAVQObject@@@Z DD imagerel $LN4
	DD	imagerel $LN4+77
	DD	imagerel $unwind$??$assign@VQObject@@@?$QWeakPointer@VQObject@@@@AEAAAEAV0@PEAVQObject@@@Z
pdata	ENDS
;	COMDAT pdata
pdata	SEGMENT
$pdata$??$deref@H@?$QAtomicOpsBySize@$03@@SA_NAEAH@Z DD imagerel $LN5
	DD	imagerel $LN5+74
	DD	imagerel $unwind$??$deref@H@?$QAtomicOpsBySize@$03@@SA_NAEAH@Z
pdata	ENDS
;	COMDAT pdata
pdata	SEGMENT
$pdata$??$?0VQObject@@@?$QWeakPointer@VQObject@@@@AEAA@PEAVQObject@@_N@Z DD imagerel $LN5
	DD	imagerel $LN5+91
	DD	imagerel $unwind$??$?0VQObject@@@?$QWeakPointer@VQObject@@@@AEAA@PEAVQObject@@_N@Z
pdata	ENDS
;	COMDAT pdata
pdata	SEGMENT
$pdata$??$qSwap@PEAUExternalRefCountData@QtSharedPointer@@@@YAXAEAPEAUExternalRefCountData@QtSharedPointer@@0@Z DD imagerel $LN3
	DD	imagerel $LN3+34
	DD	imagerel $unwind$??$qSwap@PEAUExternalRefCountData@QtSharedPointer@@@@YAXAEAPEAUExternalRefCountData@QtSharedPointer@@0@Z
pdata	ENDS
;	COMDAT pdata
pdata	SEGMENT
$pdata$??$swap@PEAUExternalRefCountData@QtSharedPointer@@X@std@@YAXAEAPEAUExternalRefCountData@QtSharedPointer@@0@Z DD imagerel $LN3
	DD	imagerel $LN3+79
	DD	imagerel $unwind$??$swap@PEAUExternalRefCountData@QtSharedPointer@@X@std@@YAXAEAPEAUExternalRefCountData@QtSharedPointer@@0@Z
pdata	ENDS
;	COMDAT pdata
pdata	SEGMENT
$pdata$??$qSwap@PEAVQObject@@@@YAXAEAPEAVQObject@@0@Z DD imagerel $LN3
	DD	imagerel $LN3+34
	DD	imagerel $unwind$??$qSwap@PEAVQObject@@@@YAXAEAPEAVQObject@@0@Z
pdata	ENDS
;	COMDAT pdata
pdata	SEGMENT
$pdata$??$swap@PEAVQObject@@X@std@@YAXAEAPEAVQObject@@0@Z DD imagerel $LN3
	DD	imagerel $LN3+79
	DD	imagerel $unwind$??$swap@PEAVQObject@@X@std@@YAXAEAPEAVQObject@@0@Z
pdata	ENDS
CRT$XCU	SEGMENT
??staticMetaObject$initializer$@CCameraSettingUI@@2P6AXXZEA@@3P6AXXZEA DQ FLAT:??__E?staticMetaObject@CCameraSettingUI@@2UQMetaObject@@B@@YAXXZ ; ??staticMetaObject$initializer$@CCameraSettingUI@@2P6AXXZEA@@3P6AXXZEA
CRT$XCU	ENDS
;	COMDAT ??_C@_0BG@MJFKBJF@strongref?4load?$CI?$CJ?5?$DM?$DN?50?$AA@
CONST	SEGMENT
??_C@_0BG@MJFKBJF@strongref?4load?$CI?$CJ?5?$DM?$DN?50?$AA@ DB 'strongref'
	DB	'.load() <= 0', 00H				; `string'
CONST	ENDS
;	COMDAT ??_C@_0BA@DACKCACB@?$CBweakref?4load?$CI?$CJ?$AA@
CONST	SEGMENT
??_C@_0BA@DACKCACB@?$CBweakref?4load?$CI?$CJ?$AA@ DB '!weakref.load()', 00H ; `string'
CONST	ENDS
;	COMDAT ??_C@_0EF@BPKGFNLI@C?3?2Qt?2Qt5?49?43?25?49?43?2msvc2015_64?2@
CONST	SEGMENT
??_C@_0EF@BPKGFNLI@C?3?2Qt?2Qt5?49?43?25?49?43?2msvc2015_64?2@ DB 'C:\Qt\'
	DB	'Qt5.9.3\5.9.3\msvc2015_64\include\QtCore/qsharedpointer_impl.'
	DB	'h', 00H					; `string'
CONST	ENDS
;	COMDAT xdata
xdata	SEGMENT
$unwind$??$swap@PEAVQObject@@X@std@@YAXAEAPEAVQObject@@0@Z DD 010e01H
	DD	0620eH
xdata	ENDS
;	COMDAT xdata
xdata	SEGMENT
$unwind$??$qSwap@PEAVQObject@@@@YAXAEAPEAVQObject@@0@Z DD 010e01H
	DD	0420eH
xdata	ENDS
;	COMDAT xdata
xdata	SEGMENT
$unwind$??$swap@PEAUExternalRefCountData@QtSharedPointer@@X@std@@YAXAEAPEAUExternalRefCountData@QtSharedPointer@@0@Z DD 010e01H
	DD	0620eH
xdata	ENDS
;	COMDAT xdata
xdata	SEGMENT
$unwind$??$qSwap@PEAUExternalRefCountData@QtSharedPointer@@@@YAXAEAPEAUExternalRefCountData@QtSharedPointer@@0@Z DD 010e01H
	DD	0420eH
xdata	ENDS
;	COMDAT xdata
xdata	SEGMENT
$unwind$??$?0VQObject@@@?$QWeakPointer@VQObject@@@@AEAA@PEAVQObject@@_N@Z DD 011301H
	DD	06213H
xdata	ENDS
;	COMDAT xdata
xdata	SEGMENT
$ip2state$??$deref@H@?$QAtomicOpsBySize@$03@@SA_NAEAH@Z DD imagerel ??$deref@H@?$QAtomicOpsBySize@$03@@SA_NAEAH@Z
	DD	0ffffffffH
xdata	ENDS
;	COMDAT CONST
CONST	SEGMENT
$cppxdata$??$deref@H@?$QAtomicOpsBySize@$03@@SA_NAEAH@Z DD 019930522H
	DD	00H
	DD	00H
	DD	00H
	DD	00H
	DD	01H
	DD	imagerel $ip2state$??$deref@H@?$QAtomicOpsBySize@$03@@SA_NAEAH@Z
	DD	028H
	DD	00H
	DD	05H
CONST	ENDS
;	COMDAT xdata
xdata	SEGMENT
$unwind$??$deref@H@?$QAtomicOpsBySize@$03@@SA_NAEAH@Z DD 011219H
	DD	06209H
	DD	imagerel __CxxFrameHandler3
	DD	imagerel $cppxdata$??$deref@H@?$QAtomicOpsBySize@$03@@SA_NAEAH@Z
xdata	ENDS
;	COMDAT xdata
xdata	SEGMENT
$unwind$??$assign@VQObject@@@?$QWeakPointer@VQObject@@@@AEAAAEAV0@PEAVQObject@@@Z DD 010e01H
	DD	0820eH
xdata	ENDS
;	COMDAT xdata
xdata	SEGMENT
$unwind$??__F_instance@?1??qt_plugin_instance@@9@YAXXZ DD 010401H
	DD	04204H
xdata	ENDS
;	COMDAT xdata
xdata	SEGMENT
$unwind$??1?$QPointer@VQObject@@@@QEAA@XZ DD 010901H
	DD	04209H
xdata	ENDS
;	COMDAT xdata
xdata	SEGMENT
$unwind$??B?$QPointer@VQObject@@@@QEBAPEAVQObject@@XZ DD 010901H
	DD	04209H
xdata	ENDS
;	COMDAT xdata
xdata	SEGMENT
$unwind$?data@?$QPointer@VQObject@@@@QEBAPEAVQObject@@XZ DD 010901H
	DD	04209H
xdata	ENDS
;	COMDAT xdata
xdata	SEGMENT
$unwind$??4?$QPointer@VQObject@@@@QEAAAEAV0@PEAVQObject@@@Z DD 010e01H
	DD	0420eH
xdata	ENDS
;	COMDAT xdata
xdata	SEGMENT
$unwind$??0?$QPointer@VQObject@@@@QEAA@XZ DD 010901H
	DD	04209H
xdata	ENDS
;	COMDAT xdata
xdata	SEGMENT
$unwind$?swap@?$QWeakPointer@VQObject@@@@QEAAXAEAV1@@Z DD 010e01H
	DD	0420eH
xdata	ENDS
;	COMDAT xdata
xdata	SEGMENT
$unwind$??4?$QWeakPointer@VQObject@@@@QEAAAEAV0@$$QEAV0@@Z DD 010e01H
	DD	0820eH
xdata	ENDS
;	COMDAT xdata
xdata	SEGMENT
$unwind$??1?$QWeakPointer@VQObject@@@@QEAA@XZ DD 010901H
	DD	08209H
xdata	ENDS
;	COMDAT xdata
xdata	SEGMENT
$unwind$?data@?$QWeakPointer@VQObject@@@@QEBAPEAVQObject@@XZ DD 010901H
	DD	06209H
xdata	ENDS
xdata	SEGMENT
$unwind$?metaObject@CCameraSettingUI@@UEBAPEBUQMetaObject@@XZ DD 010901H
	DD	06209H
$unwind$?qt_metacast@CCameraSettingUI@@UEAAPEAXPEBD@Z DD 010e01H
	DD	0a20eH
$unwind$?qt_metacall@CCameraSettingUI@@UEAAHW4Call@QMetaObject@@HPEAPEAX@Z DD 011701H
	DD	04217H
$unwind$qt_plugin_instance DD 010401H
	DD	08204H
xdata	ENDS
;	COMDAT xdata
xdata	SEGMENT
$unwind$??_GExternalRefCountData@QtSharedPointer@@QEAAPEAXI@Z DD 010d01H
	DD	0420dH
xdata	ENDS
;	COMDAT xdata
xdata	SEGMENT
$unwind$??3ExternalRefCountData@QtSharedPointer@@SAXPEAX@Z DD 010901H
	DD	04209H
xdata	ENDS
;	COMDAT xdata
xdata	SEGMENT
$ip2state$??1ExternalRefCountData@QtSharedPointer@@QEAA@XZ DD imagerel ??1ExternalRefCountData@QtSharedPointer@@QEAA@XZ
	DD	0ffffffffH
xdata	ENDS
;	COMDAT CONST
CONST	SEGMENT
$cppxdata$??1ExternalRefCountData@QtSharedPointer@@QEAA@XZ DD 019930522H
	DD	00H
	DD	00H
	DD	00H
	DD	00H
	DD	01H
	DD	imagerel $ip2state$??1ExternalRefCountData@QtSharedPointer@@QEAA@XZ
	DD	028H
	DD	00H
	DD	05H
CONST	ENDS
;	COMDAT xdata
xdata	SEGMENT
$unwind$??1ExternalRefCountData@QtSharedPointer@@QEAA@XZ DD 011219H
	DD	06209H
	DD	imagerel __CxxFrameHandler3
	DD	imagerel $cppxdata$??1ExternalRefCountData@QtSharedPointer@@QEAA@XZ
xdata	ENDS
;	COMDAT xdata
xdata	SEGMENT
$unwind$?deref@?$QBasicAtomicInteger@H@@QEAA_NXZ DD 010901H
	DD	04209H
xdata	ENDS
;	COMDAT xdata
xdata	SEGMENT
$unwind$?load@?$QBasicAtomicInteger@H@@QEBAHXZ DD 010901H
	DD	04209H
xdata	ENDS
; Function compile flags: /Odtp
;	COMDAT ??$move@AEAPEAVQObject@@@std@@YA$$QEAPEAVQObject@@AEAPEAV1@@Z
_TEXT	SEGMENT
_Arg$ = 8
??$move@AEAPEAVQObject@@@std@@YA$$QEAPEAVQObject@@AEAPEAV1@@Z PROC ; std::move<QObject * __ptr64 & __ptr64>, COMDAT
; File c:\program files (x86)\microsoft visual studio 14.0\vc\include\type_traits
; Line 1291
	mov	QWORD PTR [rsp+8], rcx
; Line 1292
	mov	rax, QWORD PTR _Arg$[rsp]
; Line 1293
	ret	0
??$move@AEAPEAVQObject@@@std@@YA$$QEAPEAVQObject@@AEAPEAV1@@Z ENDP ; std::move<QObject * __ptr64 & __ptr64>
_TEXT	ENDS
; Function compile flags: /Odtp
;	COMDAT ??$move@AEAPEAUExternalRefCountData@QtSharedPointer@@@std@@YA$$QEAPEAUExternalRefCountData@QtSharedPointer@@AEAPEAU12@@Z
_TEXT	SEGMENT
_Arg$ = 8
??$move@AEAPEAUExternalRefCountData@QtSharedPointer@@@std@@YA$$QEAPEAUExternalRefCountData@QtSharedPointer@@AEAPEAU12@@Z PROC ; std::move<QtSharedPointer::ExternalRefCountData * __ptr64 & __ptr64>, COMDAT
; File c:\program files (x86)\microsoft visual studio 14.0\vc\include\type_traits
; Line 1291
	mov	QWORD PTR [rsp+8], rcx
; Line 1292
	mov	rax, QWORD PTR _Arg$[rsp]
; Line 1293
	ret	0
??$move@AEAPEAUExternalRefCountData@QtSharedPointer@@@std@@YA$$QEAPEAUExternalRefCountData@QtSharedPointer@@AEAPEAU12@@Z ENDP ; std::move<QtSharedPointer::ExternalRefCountData * __ptr64 & __ptr64>
_TEXT	ENDS
; Function compile flags: /Odtp
;	COMDAT ??$swap@PEAVQObject@@X@std@@YAXAEAPEAVQObject@@0@Z
_TEXT	SEGMENT
_Tmp$ = 32
_Left$ = 64
_Right$ = 72
??$swap@PEAVQObject@@X@std@@YAXAEAPEAVQObject@@0@Z PROC	; std::swap<QObject * __ptr64,void>, COMDAT
; File c:\program files (x86)\microsoft visual studio 14.0\vc\include\utility
; Line 48
$LN3:
	mov	QWORD PTR [rsp+16], rdx
	mov	QWORD PTR [rsp+8], rcx
	sub	rsp, 56					; 00000038H
; Line 49
	mov	rcx, QWORD PTR _Left$[rsp]
	call	??$move@AEAPEAVQObject@@@std@@YA$$QEAPEAVQObject@@AEAPEAV1@@Z ; std::move<QObject * __ptr64 & __ptr64>
	mov	rax, QWORD PTR [rax]
	mov	QWORD PTR _Tmp$[rsp], rax
; Line 50
	mov	rcx, QWORD PTR _Right$[rsp]
	call	??$move@AEAPEAVQObject@@@std@@YA$$QEAPEAVQObject@@AEAPEAV1@@Z ; std::move<QObject * __ptr64 & __ptr64>
	mov	rcx, QWORD PTR _Left$[rsp]
	mov	rax, QWORD PTR [rax]
	mov	QWORD PTR [rcx], rax
; Line 51
	lea	rcx, QWORD PTR _Tmp$[rsp]
	call	??$move@AEAPEAVQObject@@@std@@YA$$QEAPEAVQObject@@AEAPEAV1@@Z ; std::move<QObject * __ptr64 & __ptr64>
	mov	rcx, QWORD PTR _Right$[rsp]
	mov	rax, QWORD PTR [rax]
	mov	QWORD PTR [rcx], rax
; Line 52
	add	rsp, 56					; 00000038H
	ret	0
??$swap@PEAVQObject@@X@std@@YAXAEAPEAVQObject@@0@Z ENDP	; std::swap<QObject * __ptr64,void>
_TEXT	ENDS
; Function compile flags: /Odtp
;	COMDAT ??$qSwap@PEAVQObject@@@@YAXAEAPEAVQObject@@0@Z
_TEXT	SEGMENT
value1$ = 48
value2$ = 56
??$qSwap@PEAVQObject@@@@YAXAEAPEAVQObject@@0@Z PROC	; qSwap<QObject * __ptr64>, COMDAT
; File c:\qt\qt5.9.3\5.9.3\msvc2015_64\include\qtcore\qglobal.h
; Line 864
$LN3:
	mov	QWORD PTR [rsp+16], rdx
	mov	QWORD PTR [rsp+8], rcx
	sub	rsp, 40					; 00000028H
; Line 866
	mov	rdx, QWORD PTR value2$[rsp]
	mov	rcx, QWORD PTR value1$[rsp]
	call	??$swap@PEAVQObject@@X@std@@YAXAEAPEAVQObject@@0@Z ; std::swap<QObject * __ptr64,void>
; Line 867
	add	rsp, 40					; 00000028H
	ret	0
??$qSwap@PEAVQObject@@@@YAXAEAPEAVQObject@@0@Z ENDP	; qSwap<QObject * __ptr64>
_TEXT	ENDS
; Function compile flags: /Odtp
;	COMDAT ??$swap@PEAUExternalRefCountData@QtSharedPointer@@X@std@@YAXAEAPEAUExternalRefCountData@QtSharedPointer@@0@Z
_TEXT	SEGMENT
_Tmp$ = 32
_Left$ = 64
_Right$ = 72
??$swap@PEAUExternalRefCountData@QtSharedPointer@@X@std@@YAXAEAPEAUExternalRefCountData@QtSharedPointer@@0@Z PROC ; std::swap<QtSharedPointer::ExternalRefCountData * __ptr64,void>, COMDAT
; File c:\program files (x86)\microsoft visual studio 14.0\vc\include\utility
; Line 48
$LN3:
	mov	QWORD PTR [rsp+16], rdx
	mov	QWORD PTR [rsp+8], rcx
	sub	rsp, 56					; 00000038H
; Line 49
	mov	rcx, QWORD PTR _Left$[rsp]
	call	??$move@AEAPEAUExternalRefCountData@QtSharedPointer@@@std@@YA$$QEAPEAUExternalRefCountData@QtSharedPointer@@AEAPEAU12@@Z ; std::move<QtSharedPointer::ExternalRefCountData * __ptr64 & __ptr64>
	mov	rax, QWORD PTR [rax]
	mov	QWORD PTR _Tmp$[rsp], rax
; Line 50
	mov	rcx, QWORD PTR _Right$[rsp]
	call	??$move@AEAPEAUExternalRefCountData@QtSharedPointer@@@std@@YA$$QEAPEAUExternalRefCountData@QtSharedPointer@@AEAPEAU12@@Z ; std::move<QtSharedPointer::ExternalRefCountData * __ptr64 & __ptr64>
	mov	rcx, QWORD PTR _Left$[rsp]
	mov	rax, QWORD PTR [rax]
	mov	QWORD PTR [rcx], rax
; Line 51
	lea	rcx, QWORD PTR _Tmp$[rsp]
	call	??$move@AEAPEAUExternalRefCountData@QtSharedPointer@@@std@@YA$$QEAPEAUExternalRefCountData@QtSharedPointer@@AEAPEAU12@@Z ; std::move<QtSharedPointer::ExternalRefCountData * __ptr64 & __ptr64>
	mov	rcx, QWORD PTR _Right$[rsp]
	mov	rax, QWORD PTR [rax]
	mov	QWORD PTR [rcx], rax
; Line 52
	add	rsp, 56					; 00000038H
	ret	0
??$swap@PEAUExternalRefCountData@QtSharedPointer@@X@std@@YAXAEAPEAUExternalRefCountData@QtSharedPointer@@0@Z ENDP ; std::swap<QtSharedPointer::ExternalRefCountData * __ptr64,void>
_TEXT	ENDS
; Function compile flags: /Odtp
;	COMDAT ??$qSwap@PEAUExternalRefCountData@QtSharedPointer@@@@YAXAEAPEAUExternalRefCountData@QtSharedPointer@@0@Z
_TEXT	SEGMENT
value1$ = 48
value2$ = 56
??$qSwap@PEAUExternalRefCountData@QtSharedPointer@@@@YAXAEAPEAUExternalRefCountData@QtSharedPointer@@0@Z PROC ; qSwap<QtSharedPointer::ExternalRefCountData * __ptr64>, COMDAT
; File c:\qt\qt5.9.3\5.9.3\msvc2015_64\include\qtcore\qglobal.h
; Line 864
$LN3:
	mov	QWORD PTR [rsp+16], rdx
	mov	QWORD PTR [rsp+8], rcx
	sub	rsp, 40					; 00000028H
; Line 866
	mov	rdx, QWORD PTR value2$[rsp]
	mov	rcx, QWORD PTR value1$[rsp]
	call	??$swap@PEAUExternalRefCountData@QtSharedPointer@@X@std@@YAXAEAPEAUExternalRefCountData@QtSharedPointer@@0@Z ; std::swap<QtSharedPointer::ExternalRefCountData * __ptr64,void>
; Line 867
	add	rsp, 40					; 00000028H
	ret	0
??$qSwap@PEAUExternalRefCountData@QtSharedPointer@@@@YAXAEAPEAUExternalRefCountData@QtSharedPointer@@0@Z ENDP ; qSwap<QtSharedPointer::ExternalRefCountData * __ptr64>
_TEXT	ENDS
; Function compile flags: /Odtp
;	COMDAT ??$move@AEAV?$QWeakPointer@VQObject@@@@@std@@YA$$QEAV?$QWeakPointer@VQObject@@@@AEAV1@@Z
_TEXT	SEGMENT
_Arg$ = 8
??$move@AEAV?$QWeakPointer@VQObject@@@@@std@@YA$$QEAV?$QWeakPointer@VQObject@@@@AEAV1@@Z PROC ; std::move<QWeakPointer<QObject> & __ptr64>, COMDAT
; File c:\program files (x86)\microsoft visual studio 14.0\vc\include\type_traits
; Line 1291
	mov	QWORD PTR [rsp+8], rcx
; Line 1292
	mov	rax, QWORD PTR _Arg$[rsp]
; Line 1293
	ret	0
??$move@AEAV?$QWeakPointer@VQObject@@@@@std@@YA$$QEAV?$QWeakPointer@VQObject@@@@AEAV1@@Z ENDP ; std::move<QWeakPointer<QObject> & __ptr64>
_TEXT	ENDS
; Function compile flags: /Odtp
;	COMDAT ??$atomic@H@?$QAtomicOpsBySize@$03@@CAPEAJPEAH@Z
_TEXT	SEGMENT
t$ = 8
??$atomic@H@?$QAtomicOpsBySize@$03@@CAPEAJPEAH@Z PROC	; QAtomicOpsBySize<4>::atomic<int>, COMDAT
; File c:\qt\qt5.9.3\5.9.3\msvc2015_64\include\qtcore\qatomic_msvc.h
; Line 294
	mov	QWORD PTR [rsp+8], rcx
	mov	rax, QWORD PTR t$[rsp]
	ret	0
??$atomic@H@?$QAtomicOpsBySize@$03@@CAPEAJPEAH@Z ENDP	; QAtomicOpsBySize<4>::atomic<int>
_TEXT	ENDS
; Function compile flags: /Odtp
;	COMDAT ??$?0VQObject@@@?$QWeakPointer@VQObject@@@@AEAA@PEAVQObject@@_N@Z
_TEXT	SEGMENT
tv68 = 32
this$ = 64
ptr$ = 72
__formal$ = 80
??$?0VQObject@@@?$QWeakPointer@VQObject@@@@AEAA@PEAVQObject@@_N@Z PROC ; QWeakPointer<QObject>::QWeakPointer<QObject><QObject>, COMDAT
; File c:\qt\qt5.9.3\5.9.3\msvc2015_64\include\qtcore\qsharedpointer_impl.h
; Line 685
$LN5:
	mov	BYTE PTR [rsp+24], r8b
	mov	QWORD PTR [rsp+16], rdx
	mov	QWORD PTR [rsp+8], rcx
	sub	rsp, 56					; 00000038H
; Line 684
	cmp	QWORD PTR ptr$[rsp], 0
	je	SHORT $LN3@QWeakPoint
	mov	rcx, QWORD PTR ptr$[rsp]
	call	QWORD PTR __imp_?getAndRef@ExternalRefCountData@QtSharedPointer@@SAPEAU12@PEBVQObject@@@Z
	mov	QWORD PTR tv68[rsp], rax
	jmp	SHORT $LN4@QWeakPoint
$LN3@QWeakPoint:
	mov	QWORD PTR tv68[rsp], 0
$LN4@QWeakPoint:
	mov	rax, QWORD PTR this$[rsp]
	mov	rcx, QWORD PTR tv68[rsp]
	mov	QWORD PTR [rax], rcx
	mov	rax, QWORD PTR this$[rsp]
	mov	rcx, QWORD PTR ptr$[rsp]
	mov	QWORD PTR [rax+8], rcx
; Line 685
	mov	rax, QWORD PTR this$[rsp]
	add	rsp, 56					; 00000038H
	ret	0
??$?0VQObject@@@?$QWeakPointer@VQObject@@@@AEAA@PEAVQObject@@_N@Z ENDP ; QWeakPointer<QObject>::QWeakPointer<QObject><QObject>
_TEXT	ENDS
; Function compile flags: /Odtp
;	COMDAT ??$load@H@?$QGenericAtomicOps@U?$QAtomicOpsBySize@$03@@@@SAHAEBH@Z
_TEXT	SEGMENT
_q_value$ = 8
??$load@H@?$QGenericAtomicOps@U?$QAtomicOpsBySize@$03@@@@SAHAEBH@Z PROC ; QGenericAtomicOps<QAtomicOpsBySize<4> >::load<int>, COMDAT
; File c:\qt\qt5.9.3\5.9.3\msvc2015_64\include\qtcore\qgenericatomic.h
; Line 89
	mov	QWORD PTR [rsp+8], rcx
; Line 90
	mov	rax, QWORD PTR _q_value$[rsp]
	mov	eax, DWORD PTR [rax]
; Line 91
	ret	0
??$load@H@?$QGenericAtomicOps@U?$QAtomicOpsBySize@$03@@@@SAHAEBH@Z ENDP ; QGenericAtomicOps<QAtomicOpsBySize<4> >::load<int>
_TEXT	ENDS
; Function compile flags: /Odtp
;	COMDAT ??$deref@H@?$QAtomicOpsBySize@$03@@SA_NAEAH@Z
_TEXT	SEGMENT
tv69 = 32
$T1 = 40
_q_value$ = 64
??$deref@H@?$QAtomicOpsBySize@$03@@SA_NAEAH@Z PROC	; QAtomicOpsBySize<4>::deref<int>, COMDAT
; File c:\qt\qt5.9.3\5.9.3\msvc2015_64\include\qtcore\qatomic_msvc.h
; Line 313
$LN5:
	mov	QWORD PTR [rsp+8], rcx
	sub	rsp, 56					; 00000038H
	mov	QWORD PTR $T1[rsp], -2
; Line 314
	mov	rcx, QWORD PTR _q_value$[rsp]
	call	??$atomic@H@?$QAtomicOpsBySize@$03@@CAPEAJPEAH@Z ; QAtomicOpsBySize<4>::atomic<int>
	npad	1
	mov	ecx, -1
	lock xadd DWORD PTR [rax], ecx
	dec	ecx
	mov	eax, ecx
	test	eax, eax
	je	SHORT $LN3@deref
	mov	DWORD PTR tv69[rsp], 1
	jmp	SHORT $LN4@deref
$LN3@deref:
	mov	DWORD PTR tv69[rsp], 0
$LN4@deref:
	movzx	eax, BYTE PTR tv69[rsp]
; Line 315
	add	rsp, 56					; 00000038H
	ret	0
??$deref@H@?$QAtomicOpsBySize@$03@@SA_NAEAH@Z ENDP	; QAtomicOpsBySize<4>::deref<int>
_TEXT	ENDS
; Function compile flags: /Odtp
;	COMDAT ??$assign@VQObject@@@?$QWeakPointer@VQObject@@@@AEAAAEAV0@PEAVQObject@@@Z
_TEXT	SEGMENT
tv74 = 32
$T1 = 40
$T2 = 48
this$ = 80
ptr$ = 88
??$assign@VQObject@@@?$QWeakPointer@VQObject@@@@AEAAAEAV0@PEAVQObject@@@Z PROC ; QWeakPointer<QObject>::assign<QObject>, COMDAT
; File c:\qt\qt5.9.3\5.9.3\msvc2015_64\include\qtcore\qsharedpointer_impl.h
; Line 680
$LN4:
	mov	QWORD PTR [rsp+16], rdx
	mov	QWORD PTR [rsp+8], rcx
	sub	rsp, 72					; 00000048H
	mov	r8b, 1
	mov	rdx, QWORD PTR ptr$[rsp]
	lea	rcx, QWORD PTR $T2[rsp]
	call	??$?0VQObject@@@?$QWeakPointer@VQObject@@@@AEAA@PEAVQObject@@_N@Z ; QWeakPointer<QObject>::QWeakPointer<QObject><QObject>
	mov	QWORD PTR tv74[rsp], rax
	mov	rdx, QWORD PTR tv74[rsp]
	mov	rcx, QWORD PTR this$[rsp]
	call	??4?$QWeakPointer@VQObject@@@@QEAAAEAV0@$$QEAV0@@Z ; QWeakPointer<QObject>::operator=
	mov	QWORD PTR $T1[rsp], rax
	lea	rcx, QWORD PTR $T2[rsp]
	call	??1?$QWeakPointer@VQObject@@@@QEAA@XZ	; QWeakPointer<QObject>::~QWeakPointer<QObject>
	mov	rax, QWORD PTR $T1[rsp]
	add	rsp, 72					; 00000048H
	ret	0
??$assign@VQObject@@@?$QWeakPointer@VQObject@@@@AEAAAEAV0@PEAVQObject@@@Z ENDP ; QWeakPointer<QObject>::assign<QObject>
_TEXT	ENDS
; Function compile flags: /Odtp
;	COMDAT ??__F_instance@?1??qt_plugin_instance@@9@YAXXZ
text$yd	SEGMENT
??__F_instance@?1??qt_plugin_instance@@9@YAXXZ PROC	; `qt_plugin_instance'::`2'::`dynamic atexit destructor for '_instance'', COMDAT
	sub	rsp, 40					; 00000028H
	lea	rcx, OFFSET FLAT:?_instance@?1??qt_plugin_instance@@9@4V?$QPointer@VQObject@@@@A
	call	??1?$QPointer@VQObject@@@@QEAA@XZ
	add	rsp, 40					; 00000028H
	ret	0
??__F_instance@?1??qt_plugin_instance@@9@YAXXZ ENDP	; `qt_plugin_instance'::`2'::`dynamic atexit destructor for '_instance''
text$yd	ENDS
; Function compile flags: /Odtp
;	COMDAT ??1?$QPointer@VQObject@@@@QEAA@XZ
_TEXT	SEGMENT
this$ = 48
??1?$QPointer@VQObject@@@@QEAA@XZ PROC			; QPointer<QObject>::~QPointer<QObject>, COMDAT
$LN3:
	mov	QWORD PTR [rsp+8], rcx
	sub	rsp, 40					; 00000028H
	mov	rax, QWORD PTR this$[rsp]
	mov	rcx, rax
	call	??1?$QWeakPointer@VQObject@@@@QEAA@XZ	; QWeakPointer<QObject>::~QWeakPointer<QObject>
	add	rsp, 40					; 00000028H
	ret	0
??1?$QPointer@VQObject@@@@QEAA@XZ ENDP			; QPointer<QObject>::~QPointer<QObject>
_TEXT	ENDS
; Function compile flags: /Odtp
;	COMDAT ??B?$QPointer@VQObject@@@@QEBAPEAVQObject@@XZ
_TEXT	SEGMENT
this$ = 48
??B?$QPointer@VQObject@@@@QEBAPEAVQObject@@XZ PROC	; QPointer<QObject>::operator QObject * __ptr64, COMDAT
; File c:\qt\qt5.9.3\5.9.3\msvc2015_64\include\qtcore\qpointer.h
; Line 92
$LN3:
	mov	QWORD PTR [rsp+8], rcx
	sub	rsp, 40					; 00000028H
	mov	rcx, QWORD PTR this$[rsp]
	call	?data@?$QPointer@VQObject@@@@QEBAPEAVQObject@@XZ ; QPointer<QObject>::data
	add	rsp, 40					; 00000028H
	ret	0
??B?$QPointer@VQObject@@@@QEBAPEAVQObject@@XZ ENDP	; QPointer<QObject>::operator QObject * __ptr64
_TEXT	ENDS
; Function compile flags: /Odtp
;	COMDAT ?data@?$QPointer@VQObject@@@@QEBAPEAVQObject@@XZ
_TEXT	SEGMENT
this$ = 48
?data@?$QPointer@VQObject@@@@QEBAPEAVQObject@@XZ PROC	; QPointer<QObject>::data, COMDAT
; File c:\qt\qt5.9.3\5.9.3\msvc2015_64\include\qtcore\qpointer.h
; Line 86
$LN3:
	mov	QWORD PTR [rsp+8], rcx
	sub	rsp, 40					; 00000028H
	mov	rax, QWORD PTR this$[rsp]
	mov	rcx, rax
	call	?data@?$QWeakPointer@VQObject@@@@QEBAPEAVQObject@@XZ ; QWeakPointer<QObject>::data
	add	rsp, 40					; 00000028H
	ret	0
?data@?$QPointer@VQObject@@@@QEBAPEAVQObject@@XZ ENDP	; QPointer<QObject>::data
_TEXT	ENDS
; Function compile flags: /Odtp
;	COMDAT ??4?$QPointer@VQObject@@@@QEAAAEAV0@PEAVQObject@@@Z
_TEXT	SEGMENT
this$ = 48
p$ = 56
??4?$QPointer@VQObject@@@@QEAAAEAV0@PEAVQObject@@@Z PROC ; QPointer<QObject>::operator=, COMDAT
; File c:\qt\qt5.9.3\5.9.3\msvc2015_64\include\qtcore\qpointer.h
; Line 83
$LN3:
	mov	QWORD PTR [rsp+16], rdx
	mov	QWORD PTR [rsp+8], rcx
	sub	rsp, 40					; 00000028H
	mov	rax, QWORD PTR this$[rsp]
	mov	rdx, QWORD PTR p$[rsp]
	mov	rcx, rax
	call	??$assign@VQObject@@@?$QWeakPointer@VQObject@@@@AEAAAEAV0@PEAVQObject@@@Z ; QWeakPointer<QObject>::assign<QObject>
	mov	rax, QWORD PTR this$[rsp]
	add	rsp, 40					; 00000028H
	ret	0
??4?$QPointer@VQObject@@@@QEAAAEAV0@PEAVQObject@@@Z ENDP ; QPointer<QObject>::operator=
_TEXT	ENDS
; Function compile flags: /Odtp
;	COMDAT ??0?$QPointer@VQObject@@@@QEAA@XZ
_TEXT	SEGMENT
this$ = 48
??0?$QPointer@VQObject@@@@QEAA@XZ PROC			; QPointer<QObject>::QPointer<QObject>, COMDAT
; File c:\qt\qt5.9.3\5.9.3\msvc2015_64\include\qtcore\qpointer.h
; Line 70
$LN4:
	mov	QWORD PTR [rsp+8], rcx
	sub	rsp, 40					; 00000028H
	mov	rax, QWORD PTR this$[rsp]
	mov	rcx, rax
	call	??0?$QWeakPointer@VQObject@@@@QEAA@XZ	; QWeakPointer<QObject>::QWeakPointer<QObject>
	mov	rax, QWORD PTR this$[rsp]
	add	rsp, 40					; 00000028H
	ret	0
??0?$QPointer@VQObject@@@@QEAA@XZ ENDP			; QPointer<QObject>::QPointer<QObject>
_TEXT	ENDS
; Function compile flags: /Odtp
;	COMDAT ?swap@?$QWeakPointer@VQObject@@@@QEAAXAEAV1@@Z
_TEXT	SEGMENT
this$ = 48
other$ = 56
?swap@?$QWeakPointer@VQObject@@@@QEAAXAEAV1@@Z PROC	; QWeakPointer<QObject>::swap, COMDAT
; File c:\qt\qt5.9.3\5.9.3\msvc2015_64\include\qtcore\qsharedpointer_impl.h
; Line 605
$LN3:
	mov	QWORD PTR [rsp+16], rdx
	mov	QWORD PTR [rsp+8], rcx
	sub	rsp, 40					; 00000028H
; Line 606
	mov	rax, QWORD PTR other$[rsp]
	mov	rcx, QWORD PTR this$[rsp]
	mov	rdx, rax
	call	??$qSwap@PEAUExternalRefCountData@QtSharedPointer@@@@YAXAEAPEAUExternalRefCountData@QtSharedPointer@@0@Z ; qSwap<QtSharedPointer::ExternalRefCountData * __ptr64>
; Line 607
	mov	rax, QWORD PTR other$[rsp]
	add	rax, 8
	mov	rcx, QWORD PTR this$[rsp]
	add	rcx, 8
	mov	rdx, rax
	call	??$qSwap@PEAVQObject@@@@YAXAEAPEAVQObject@@0@Z ; qSwap<QObject * __ptr64>
; Line 608
	add	rsp, 40					; 00000028H
	ret	0
?swap@?$QWeakPointer@VQObject@@@@QEAAXAEAV1@@Z ENDP	; QWeakPointer<QObject>::swap
_TEXT	ENDS
; Function compile flags: /Odtp
;	COMDAT ??4?$QWeakPointer@VQObject@@@@QEAAAEAV0@$$QEAV0@@Z
_TEXT	SEGMENT
$T1 = 32
moved$ = 40
this$ = 80
other$ = 88
??4?$QWeakPointer@VQObject@@@@QEAAAEAV0@$$QEAV0@@Z PROC	; QWeakPointer<QObject>::operator=, COMDAT
; File c:\qt\qt5.9.3\5.9.3\msvc2015_64\include\qtcore\qsharedpointer_impl.h
; Line 595
$LN3:
	mov	QWORD PTR [rsp+16], rdx
	mov	QWORD PTR [rsp+8], rcx
	sub	rsp, 72					; 00000048H
	mov	rcx, QWORD PTR other$[rsp]
	call	??$move@AEAV?$QWeakPointer@VQObject@@@@@std@@YA$$QEAV?$QWeakPointer@VQObject@@@@AEAV1@@Z ; std::move<QWeakPointer<QObject> & __ptr64>
	mov	rdx, rax
	lea	rcx, QWORD PTR moved$[rsp]
	call	??0?$QWeakPointer@VQObject@@@@QEAA@$$QEAV0@@Z ; QWeakPointer<QObject>::QWeakPointer<QObject>
	lea	rdx, QWORD PTR moved$[rsp]
	mov	rcx, QWORD PTR this$[rsp]
	call	?swap@?$QWeakPointer@VQObject@@@@QEAAXAEAV1@@Z ; QWeakPointer<QObject>::swap
	mov	rax, QWORD PTR this$[rsp]
	mov	QWORD PTR $T1[rsp], rax
	lea	rcx, QWORD PTR moved$[rsp]
	call	??1?$QWeakPointer@VQObject@@@@QEAA@XZ	; QWeakPointer<QObject>::~QWeakPointer<QObject>
	mov	rax, QWORD PTR $T1[rsp]
	add	rsp, 72					; 00000048H
	ret	0
??4?$QWeakPointer@VQObject@@@@QEAAAEAV0@$$QEAV0@@Z ENDP	; QWeakPointer<QObject>::operator=
_TEXT	ENDS
; Function compile flags: /Odtp
;	COMDAT ??0?$QWeakPointer@VQObject@@@@QEAA@$$QEAV0@@Z
_TEXT	SEGMENT
this$ = 8
other$ = 16
??0?$QWeakPointer@VQObject@@@@QEAA@$$QEAV0@@Z PROC	; QWeakPointer<QObject>::QWeakPointer<QObject>, COMDAT
; File c:\qt\qt5.9.3\5.9.3\msvc2015_64\include\qtcore\qsharedpointer_impl.h
; Line 590
	mov	QWORD PTR [rsp+16], rdx
	mov	QWORD PTR [rsp+8], rcx
; Line 589
	mov	rax, QWORD PTR this$[rsp]
	mov	rcx, QWORD PTR other$[rsp]
	mov	rcx, QWORD PTR [rcx]
	mov	QWORD PTR [rax], rcx
	mov	rax, QWORD PTR this$[rsp]
	mov	rcx, QWORD PTR other$[rsp]
	mov	rcx, QWORD PTR [rcx+8]
	mov	QWORD PTR [rax+8], rcx
; Line 591
	mov	rax, QWORD PTR other$[rsp]
	mov	QWORD PTR [rax], 0
; Line 592
	mov	rax, QWORD PTR other$[rsp]
	mov	QWORD PTR [rax+8], 0
; Line 593
	mov	rax, QWORD PTR this$[rsp]
	ret	0
??0?$QWeakPointer@VQObject@@@@QEAA@$$QEAV0@@Z ENDP	; QWeakPointer<QObject>::QWeakPointer<QObject>
_TEXT	ENDS
; Function compile flags: /Odtp
;	COMDAT ??1?$QWeakPointer@VQObject@@@@QEAA@XZ
_TEXT	SEGMENT
$T1 = 32
$T2 = 40
tv77 = 48
this$ = 80
??1?$QWeakPointer@VQObject@@@@QEAA@XZ PROC		; QWeakPointer<QObject>::~QWeakPointer<QObject>, COMDAT
; File c:\qt\qt5.9.3\5.9.3\msvc2015_64\include\qtcore\qsharedpointer_impl.h
; Line 568
$LN6:
	mov	QWORD PTR [rsp+8], rcx
	sub	rsp, 72					; 00000048H
	mov	rax, QWORD PTR this$[rsp]
	cmp	QWORD PTR [rax], 0
	je	SHORT $LN2@QWeakPoint
	mov	rax, QWORD PTR this$[rsp]
	mov	rax, QWORD PTR [rax]
	mov	rcx, rax
	call	?deref@?$QBasicAtomicInteger@H@@QEAA_NXZ ; QBasicAtomicInteger<int>::deref
	movzx	eax, al
	test	eax, eax
	jne	SHORT $LN2@QWeakPoint
	mov	rax, QWORD PTR this$[rsp]
	mov	rax, QWORD PTR [rax]
	mov	QWORD PTR $T2[rsp], rax
	mov	rax, QWORD PTR $T2[rsp]
	mov	QWORD PTR $T1[rsp], rax
	cmp	QWORD PTR $T1[rsp], 0
	je	SHORT $LN4@QWeakPoint
	mov	edx, 1
	mov	rcx, QWORD PTR $T1[rsp]
	call	??_GExternalRefCountData@QtSharedPointer@@QEAAPEAXI@Z
	mov	QWORD PTR tv77[rsp], rax
	jmp	SHORT $LN2@QWeakPoint
$LN4@QWeakPoint:
	mov	QWORD PTR tv77[rsp], 0
$LN2@QWeakPoint:
	add	rsp, 72					; 00000048H
	ret	0
??1?$QWeakPointer@VQObject@@@@QEAA@XZ ENDP		; QWeakPointer<QObject>::~QWeakPointer<QObject>
_TEXT	ENDS
; Function compile flags: /Odtp
;	COMDAT ??0?$QWeakPointer@VQObject@@@@QEAA@XZ
_TEXT	SEGMENT
this$ = 8
??0?$QWeakPointer@VQObject@@@@QEAA@XZ PROC		; QWeakPointer<QObject>::QWeakPointer<QObject>, COMDAT
; File c:\qt\qt5.9.3\5.9.3\msvc2015_64\include\qtcore\qsharedpointer_impl.h
; Line 567
	mov	QWORD PTR [rsp+8], rcx
	mov	rax, QWORD PTR this$[rsp]
	mov	QWORD PTR [rax], 0
	mov	rax, QWORD PTR this$[rsp]
	mov	QWORD PTR [rax+8], 0
	mov	rax, QWORD PTR this$[rsp]
	ret	0
??0?$QWeakPointer@VQObject@@@@QEAA@XZ ENDP		; QWeakPointer<QObject>::QWeakPointer<QObject>
_TEXT	ENDS
; Function compile flags: /Odtp
;	COMDAT ?data@?$QWeakPointer@VQObject@@@@QEBAPEAVQObject@@XZ
_TEXT	SEGMENT
tv72 = 32
this$ = 64
?data@?$QWeakPointer@VQObject@@@@QEBAPEAVQObject@@XZ PROC ; QWeakPointer<QObject>::data, COMDAT
; File c:\qt\qt5.9.3\5.9.3\msvc2015_64\include\qtcore\qsharedpointer_impl.h
; Line 565
$LN5:
	mov	QWORD PTR [rsp+8], rcx
	sub	rsp, 56					; 00000038H
	mov	rax, QWORD PTR this$[rsp]
	cmp	QWORD PTR [rax], 0
	je	SHORT $LN3@data
	mov	rax, QWORD PTR this$[rsp]
	mov	rax, QWORD PTR [rax]
	add	rax, 4
	mov	rcx, rax
	call	?load@?$QBasicAtomicInteger@H@@QEBAHXZ	; QBasicAtomicInteger<int>::load
	test	eax, eax
	je	SHORT $LN3@data
	mov	rax, QWORD PTR this$[rsp]
	mov	rax, QWORD PTR [rax+8]
	mov	QWORD PTR tv72[rsp], rax
	jmp	SHORT $LN4@data
$LN3@data:
	mov	QWORD PTR tv72[rsp], 0
$LN4@data:
	mov	rax, QWORD PTR tv72[rsp]
	add	rsp, 56					; 00000038H
	ret	0
?data@?$QWeakPointer@VQObject@@@@QEBAPEAVQObject@@XZ ENDP ; QWeakPointer<QObject>::data
_TEXT	ENDS
; Function compile flags: /Odtp
_TEXT	SEGMENT
tv128 = 32
$T1 = 40
$T2 = 48
qt_plugin_instance PROC
; File e:\g12_work\weidali_code\b\g12_4_b\ui\src\linecamerasettingui\x64\debug\moc\moc_camerasettingui.cpp
; Line 162
$LN7:
	sub	rsp, 72					; 00000048H
	mov	eax, OFFSET FLAT:_Init_thread_epoch
	mov	eax, eax
	mov	ecx, DWORD PTR _tls_index
	mov	rdx, QWORD PTR gs:88
	mov	rcx, QWORD PTR [rdx+rcx*8]
	mov	eax, DWORD PTR [rax+rcx]
	cmp	DWORD PTR ?$TSS0@?1??qt_plugin_instance@@9@4HA, eax
	jle	SHORT $LN2@qt_plugin_
	lea	rcx, OFFSET FLAT:?$TSS0@?1??qt_plugin_instance@@9@4HA
	call	_Init_thread_header
	cmp	DWORD PTR ?$TSS0@?1??qt_plugin_instance@@9@4HA, -1
	jne	SHORT $LN2@qt_plugin_
	lea	rcx, OFFSET FLAT:?_instance@?1??qt_plugin_instance@@9@4V?$QPointer@VQObject@@@@A
	call	??0?$QPointer@VQObject@@@@QEAA@XZ	; QPointer<QObject>::QPointer<QObject>
	lea	rcx, OFFSET FLAT:??__F_instance@?1??qt_plugin_instance@@9@YAXXZ ; `qt_plugin_instance'::`2'::`dynamic atexit destructor for '_instance''
	call	atexit
	lea	rcx, OFFSET FLAT:?$TSS0@?1??qt_plugin_instance@@9@4HA
	call	_Init_thread_footer
$LN2@qt_plugin_:
	lea	rcx, OFFSET FLAT:?_instance@?1??qt_plugin_instance@@9@4V?$QPointer@VQObject@@@@A
	call	??B?$QPointer@VQObject@@@@QEBAPEAVQObject@@XZ ; QPointer<QObject>::operator QObject * __ptr64
	test	rax, rax
	jne	SHORT $LN3@qt_plugin_
	mov	ecx, 40					; 00000028H
	call	??2@YAPEAX_K@Z				; operator new
	mov	QWORD PTR $T1[rsp], rax
	mov	rcx, QWORD PTR $T1[rsp]
	call	??0CCameraSettingUI@@QEAA@XZ		; CCameraSettingUI::CCameraSettingUI
	mov	QWORD PTR tv128[rsp], rax
	jmp	SHORT $LN6@qt_plugin_
	mov	QWORD PTR tv128[rsp], 0
$LN6@qt_plugin_:
	mov	rax, QWORD PTR tv128[rsp]
	mov	QWORD PTR $T2[rsp], rax
	mov	rdx, QWORD PTR $T2[rsp]
	lea	rcx, OFFSET FLAT:?_instance@?1??qt_plugin_instance@@9@4V?$QPointer@VQObject@@@@A
	call	??4?$QPointer@VQObject@@@@QEAAAEAV0@PEAVQObject@@@Z ; QPointer<QObject>::operator=
$LN3@qt_plugin_:
	lea	rcx, OFFSET FLAT:?_instance@?1??qt_plugin_instance@@9@4V?$QPointer@VQObject@@@@A
	call	??B?$QPointer@VQObject@@@@QEBAPEAVQObject@@XZ ; QPointer<QObject>::operator QObject * __ptr64
	add	rsp, 72					; 00000048H
	ret	0
qt_plugin_instance ENDP
_TEXT	ENDS
; Function compile flags: /Odtp
_TEXT	SEGMENT
qt_plugin_query_metadata PROC
; File e:\g12_work\weidali_code\b\g12_4_b\ui\src\linecamerasettingui\x64\debug\moc\moc_camerasettingui.cpp
; Line 162
	lea	rax, OFFSET FLAT:?qt_pluginMetaData@@3QBEB
	ret	0
qt_plugin_query_metadata ENDP
_TEXT	ENDS
; Function compile flags: /Odtp
;	COMDAT ??__E?staticMetaObject@CCameraSettingUI@@2UQMetaObject@@B@@YAXXZ
text$di	SEGMENT
??__E?staticMetaObject@CCameraSettingUI@@2UQMetaObject@@B@@YAXXZ PROC ; `dynamic initializer for 'CCameraSettingUI::staticMetaObject'', COMDAT
; File e:\g12_work\weidali_code\b\g12_4_b\ui\src\linecamerasettingui\x64\debug\moc\moc_camerasettingui.cpp
; Line 67
	mov	rax, QWORD PTR __imp_?staticMetaObject@QObject@@2UQMetaObject@@B
	mov	QWORD PTR ?staticMetaObject@CCameraSettingUI@@2UQMetaObject@@B, rax
	lea	rax, OFFSET FLAT:?qt_meta_stringdata_CCameraSettingUI@@3Uqt_meta_stringdata_CCameraSettingUI_t@@B
	mov	QWORD PTR ?staticMetaObject@CCameraSettingUI@@2UQMetaObject@@B+8, rax
; Line 68
	lea	rax, OFFSET FLAT:?qt_meta_data_CCameraSettingUI@@3QBIB
	mov	QWORD PTR ?staticMetaObject@CCameraSettingUI@@2UQMetaObject@@B+16, rax
	lea	rax, OFFSET FLAT:?qt_static_metacall@CCameraSettingUI@@CAXPEAVQObject@@W4Call@QMetaObject@@HPEAPEAX@Z ; CCameraSettingUI::qt_static_metacall
	mov	QWORD PTR ?staticMetaObject@CCameraSettingUI@@2UQMetaObject@@B+24, rax
	mov	QWORD PTR ?staticMetaObject@CCameraSettingUI@@2UQMetaObject@@B+32, 0
	mov	QWORD PTR ?staticMetaObject@CCameraSettingUI@@2UQMetaObject@@B+40, 0
	ret	0
??__E?staticMetaObject@CCameraSettingUI@@2UQMetaObject@@B@@YAXXZ ENDP ; `dynamic initializer for 'CCameraSettingUI::staticMetaObject''
text$di	ENDS
; Function compile flags: /Odtp
_TEXT	SEGMENT
_o$ = 8
_c$ = 16
_id$ = 24
_a$ = 32
?qt_static_metacall@CCameraSettingUI@@CAXPEAVQObject@@W4Call@QMetaObject@@HPEAPEAX@Z PROC ; CCameraSettingUI::qt_static_metacall
; File e:\g12_work\weidali_code\b\g12_4_b\ui\src\linecamerasettingui\x64\debug\moc\moc_camerasettingui.cpp
; Line 59
	mov	QWORD PTR [rsp+32], r9
	mov	DWORD PTR [rsp+24], r8d
	mov	DWORD PTR [rsp+16], edx
	mov	QWORD PTR [rsp+8], rcx
; Line 64
	ret	0
?qt_static_metacall@CCameraSettingUI@@CAXPEAVQObject@@W4Call@QMetaObject@@HPEAPEAX@Z ENDP ; CCameraSettingUI::qt_static_metacall
_TEXT	ENDS
; Function compile flags: /Odtp
_TEXT	SEGMENT
this$ = 48
_c$ = 56
_id$ = 64
_a$ = 72
?qt_metacall@CCameraSettingUI@@UEAAHW4Call@QMetaObject@@HPEAPEAX@Z PROC ; CCameraSettingUI::qt_metacall
; File e:\g12_work\weidali_code\b\g12_4_b\ui\src\linecamerasettingui\x64\debug\moc\moc_camerasettingui.cpp
; Line 96
$LN3:
	mov	QWORD PTR [rsp+32], r9
	mov	DWORD PTR [rsp+24], r8d
	mov	DWORD PTR [rsp+16], edx
	mov	QWORD PTR [rsp+8], rcx
	sub	rsp, 40					; 00000028H
; Line 97
	mov	r9, QWORD PTR _a$[rsp]
	mov	r8d, DWORD PTR _id$[rsp]
	mov	edx, DWORD PTR _c$[rsp]
	mov	rcx, QWORD PTR this$[rsp]
	call	QWORD PTR __imp_?qt_metacall@QObject@@UEAAHW4Call@QMetaObject@@HPEAPEAX@Z
	mov	DWORD PTR _id$[rsp], eax
; Line 98
	mov	eax, DWORD PTR _id$[rsp]
; Line 99
	add	rsp, 40					; 00000028H
	ret	0
?qt_metacall@CCameraSettingUI@@UEAAHW4Call@QMetaObject@@HPEAPEAX@Z ENDP ; CCameraSettingUI::qt_metacall
_TEXT	ENDS
; Function compile flags: /Odtp
_TEXT	SEGMENT
tv77 = 32
tv87 = 40
tv129 = 48
tv139 = 56
tv149 = 64
this$ = 96
_clname$ = 104
?qt_metacast@CCameraSettingUI@@UEAAPEAXPEBD@Z PROC	; CCameraSettingUI::qt_metacast
; File e:\g12_work\weidali_code\b\g12_4_b\ui\src\linecamerasettingui\x64\debug\moc\moc_camerasettingui.cpp
; Line 78
$LN20:
	mov	QWORD PTR [rsp+16], rdx
	mov	QWORD PTR [rsp+8], rcx
	sub	rsp, 88					; 00000058H
; Line 79
	cmp	QWORD PTR _clname$[rsp], 0
	jne	SHORT $LN2@qt_metacas
	xor	eax, eax
	jmp	$LN1@qt_metacas
$LN2@qt_metacas:
; Line 80
	lea	rdx, OFFSET FLAT:?qt_meta_stringdata_CCameraSettingUI@@3Uqt_meta_stringdata_CCameraSettingUI_t@@B+24
	mov	rcx, QWORD PTR _clname$[rsp]
	call	strcmp
	test	eax, eax
	jne	SHORT $LN3@qt_metacas
; Line 81
	mov	rax, QWORD PTR this$[rsp]
	jmp	$LN1@qt_metacas
$LN3@qt_metacas:
; Line 82
	lea	rdx, OFFSET FLAT:$SG86305
	mov	rcx, QWORD PTR _clname$[rsp]
	call	strcmp
	test	eax, eax
	jne	SHORT $LN4@qt_metacas
; Line 83
	cmp	QWORD PTR this$[rsp], 0
	je	SHORT $LN10@qt_metacas
	mov	rax, QWORD PTR this$[rsp]
	add	rax, 16
	mov	QWORD PTR tv77[rsp], rax
	jmp	SHORT $LN11@qt_metacas
$LN10@qt_metacas:
	mov	QWORD PTR tv77[rsp], 0
$LN11@qt_metacas:
	mov	rax, QWORD PTR tv77[rsp]
	jmp	$LN1@qt_metacas
$LN4@qt_metacas:
; Line 84
	lea	rdx, OFFSET FLAT:$SG86307
	mov	rcx, QWORD PTR _clname$[rsp]
	call	strcmp
	test	eax, eax
	jne	SHORT $LN5@qt_metacas
; Line 85
	cmp	QWORD PTR this$[rsp], 0
	je	SHORT $LN12@qt_metacas
	mov	rax, QWORD PTR this$[rsp]
	add	rax, 24
	mov	QWORD PTR tv87[rsp], rax
	jmp	SHORT $LN13@qt_metacas
$LN12@qt_metacas:
	mov	QWORD PTR tv87[rsp], 0
$LN13@qt_metacas:
	mov	rax, QWORD PTR tv87[rsp]
	jmp	$LN1@qt_metacas
$LN5@qt_metacas:
; Line 86
	lea	rdx, OFFSET FLAT:$SG86309
	mov	rcx, QWORD PTR _clname$[rsp]
	call	strcmp
	test	eax, eax
	jne	SHORT $LN6@qt_metacas
; Line 87
	cmp	QWORD PTR this$[rsp], 0
	je	SHORT $LN14@qt_metacas
	mov	rax, QWORD PTR this$[rsp]
	add	rax, 16
	mov	QWORD PTR tv129[rsp], rax
	jmp	SHORT $LN15@qt_metacas
$LN14@qt_metacas:
	mov	QWORD PTR tv129[rsp], 0
$LN15@qt_metacas:
	mov	rax, QWORD PTR tv129[rsp]
	jmp	$LN1@qt_metacas
$LN6@qt_metacas:
; Line 88
	lea	rdx, OFFSET FLAT:$SG86311
	mov	rcx, QWORD PTR _clname$[rsp]
	call	strcmp
	test	eax, eax
	jne	SHORT $LN7@qt_metacas
; Line 89
	cmp	QWORD PTR this$[rsp], 0
	je	SHORT $LN16@qt_metacas
	mov	rax, QWORD PTR this$[rsp]
	add	rax, 16
	mov	QWORD PTR tv139[rsp], rax
	jmp	SHORT $LN17@qt_metacas
$LN16@qt_metacas:
	mov	QWORD PTR tv139[rsp], 0
$LN17@qt_metacas:
	mov	rax, QWORD PTR tv139[rsp]
	jmp	SHORT $LN1@qt_metacas
$LN7@qt_metacas:
; Line 90
	lea	rdx, OFFSET FLAT:$SG86313
	mov	rcx, QWORD PTR _clname$[rsp]
	call	strcmp
	test	eax, eax
	jne	SHORT $LN8@qt_metacas
; Line 91
	cmp	QWORD PTR this$[rsp], 0
	je	SHORT $LN18@qt_metacas
	mov	rax, QWORD PTR this$[rsp]
	add	rax, 24
	mov	QWORD PTR tv149[rsp], rax
	jmp	SHORT $LN19@qt_metacas
$LN18@qt_metacas:
	mov	QWORD PTR tv149[rsp], 0
$LN19@qt_metacas:
	mov	rax, QWORD PTR tv149[rsp]
	jmp	SHORT $LN1@qt_metacas
$LN8@qt_metacas:
; Line 92
	mov	rdx, QWORD PTR _clname$[rsp]
	mov	rcx, QWORD PTR this$[rsp]
	call	QWORD PTR __imp_?qt_metacast@QObject@@UEAAPEAXPEBD@Z
$LN1@qt_metacas:
; Line 93
	add	rsp, 88					; 00000058H
	ret	0
?qt_metacast@CCameraSettingUI@@UEAAPEAXPEBD@Z ENDP	; CCameraSettingUI::qt_metacast
_TEXT	ENDS
; Function compile flags: /Odtp
_TEXT	SEGMENT
tv82 = 32
this$ = 64
?metaObject@CCameraSettingUI@@UEBAPEBUQMetaObject@@XZ PROC ; CCameraSettingUI::metaObject
; File e:\g12_work\weidali_code\b\g12_4_b\ui\src\linecamerasettingui\x64\debug\moc\moc_camerasettingui.cpp
; Line 73
$LN5:
	mov	QWORD PTR [rsp+8], rcx
	sub	rsp, 56					; 00000038H
; Line 74
	mov	rax, QWORD PTR this$[rsp]
	add	rax, 8
	mov	rcx, rax
	call	??C?$QScopedPointer@VQObjectData@@U?$QScopedPointerDeleter@VQObjectData@@@@@@QEBAPEAVQObjectData@@XZ ; QScopedPointer<QObjectData,QScopedPointerDeleter<QObjectData> >::operator->
	cmp	QWORD PTR [rax+40], 0
	je	SHORT $LN3@metaObject
	mov	rax, QWORD PTR this$[rsp]
	add	rax, 8
	mov	rcx, rax
	call	??C?$QScopedPointer@VQObjectData@@U?$QScopedPointerDeleter@VQObjectData@@@@@@QEBAPEAVQObjectData@@XZ ; QScopedPointer<QObjectData,QScopedPointerDeleter<QObjectData> >::operator->
	mov	rcx, rax
	call	QWORD PTR __imp_?dynamicMetaObject@QObjectData@@QEBAPEAUQMetaObject@@XZ
	mov	QWORD PTR tv82[rsp], rax
	jmp	SHORT $LN4@metaObject
$LN3@metaObject:
	lea	rax, OFFSET FLAT:?staticMetaObject@CCameraSettingUI@@2UQMetaObject@@B ; CCameraSettingUI::staticMetaObject
	mov	QWORD PTR tv82[rsp], rax
$LN4@metaObject:
	mov	rax, QWORD PTR tv82[rsp]
; Line 75
	add	rsp, 56					; 00000038H
	ret	0
?metaObject@CCameraSettingUI@@UEBAPEBUQMetaObject@@XZ ENDP ; CCameraSettingUI::metaObject
_TEXT	ENDS
; Function compile flags: /Odtp
;	COMDAT ??_GExternalRefCountData@QtSharedPointer@@QEAAPEAXI@Z
_TEXT	SEGMENT
this$ = 48
__flags$ = 56
??_GExternalRefCountData@QtSharedPointer@@QEAAPEAXI@Z PROC ; QtSharedPointer::ExternalRefCountData::`scalar deleting destructor', COMDAT
$LN7:
	mov	DWORD PTR [rsp+16], edx
	mov	QWORD PTR [rsp+8], rcx
	sub	rsp, 40					; 00000028H
	mov	rcx, QWORD PTR this$[rsp]
	call	??1ExternalRefCountData@QtSharedPointer@@QEAA@XZ ; QtSharedPointer::ExternalRefCountData::~ExternalRefCountData
	mov	eax, DWORD PTR __flags$[rsp]
	and	eax, 1
	test	eax, eax
	je	SHORT $LN2@scalar
	mov	eax, DWORD PTR __flags$[rsp]
	and	eax, 4
	test	eax, eax
	jne	SHORT $LN3@scalar
	mov	rcx, QWORD PTR this$[rsp]
	call	??3ExternalRefCountData@QtSharedPointer@@SAXPEAX@Z ; QtSharedPointer::ExternalRefCountData::operator delete
	jmp	SHORT $LN2@scalar
$LN3@scalar:
	mov	edx, 16
	mov	rcx, QWORD PTR this$[rsp]
	call	?__global_delete@@YAXPEAX_K@Z		; __global_delete
$LN2@scalar:
	mov	rax, QWORD PTR this$[rsp]
	add	rsp, 40					; 00000028H
	ret	0
??_GExternalRefCountData@QtSharedPointer@@QEAAPEAXI@Z ENDP ; QtSharedPointer::ExternalRefCountData::`scalar deleting destructor'
_TEXT	ENDS
; Function compile flags: /Odtp
;	COMDAT ??3ExternalRefCountData@QtSharedPointer@@SAXPEAX@Z
_TEXT	SEGMENT
ptr$ = 48
??3ExternalRefCountData@QtSharedPointer@@SAXPEAX@Z PROC	; QtSharedPointer::ExternalRefCountData::operator delete, COMDAT
; File c:\qt\qt5.9.3\5.9.3\msvc2015_64\include\qtcore\qsharedpointer_impl.h
; Line 167
$LN3:
	mov	QWORD PTR [rsp+8], rcx
	sub	rsp, 40					; 00000028H
	mov	rcx, QWORD PTR ptr$[rsp]
	call	??3@YAXPEAX@Z				; operator delete
	add	rsp, 40					; 00000028H
	ret	0
??3ExternalRefCountData@QtSharedPointer@@SAXPEAX@Z ENDP	; QtSharedPointer::ExternalRefCountData::operator delete
_TEXT	ENDS
; Function compile flags: /Odtp
;	COMDAT ??1ExternalRefCountData@QtSharedPointer@@QEAA@XZ
_TEXT	SEGMENT
tv71 = 32
tv79 = 36
$T1 = 40
this$ = 64
??1ExternalRefCountData@QtSharedPointer@@QEAA@XZ PROC	; QtSharedPointer::ExternalRefCountData::~ExternalRefCountData, COMDAT
; File c:\qt\qt5.9.3\5.9.3\msvc2015_64\include\qtcore\qsharedpointer_impl.h
; Line 155
$LN7:
	mov	QWORD PTR [rsp+8], rcx
	sub	rsp, 56					; 00000038H
	mov	QWORD PTR $T1[rsp], -2
	mov	rax, QWORD PTR this$[rsp]
	mov	rcx, rax
	call	?load@?$QBasicAtomicInteger@H@@QEBAHXZ	; QBasicAtomicInteger<int>::load
	npad	1
	test	eax, eax
	je	SHORT $LN3@ExternalRe
	mov	r8d, 155				; 0000009bH
	lea	rdx, OFFSET FLAT:??_C@_0EF@BPKGFNLI@C?3?2Qt?2Qt5?49?43?25?49?43?2msvc2015_64?2@
	lea	rcx, OFFSET FLAT:??_C@_0BA@DACKCACB@?$CBweakref?4load?$CI?$CJ?$AA@
	call	QWORD PTR __imp_?qt_assert@@YAXPEBD0H@Z
	npad	1
	mov	DWORD PTR tv71[rsp], 0
	jmp	SHORT $LN4@ExternalRe
$LN3@ExternalRe:
	call	?qt_noop@@YAXXZ				; qt_noop
	npad	1
	mov	DWORD PTR tv71[rsp], 0
$LN4@ExternalRe:
	mov	rax, QWORD PTR this$[rsp]
	add	rax, 4
	mov	rcx, rax
	call	?load@?$QBasicAtomicInteger@H@@QEBAHXZ	; QBasicAtomicInteger<int>::load
	npad	1
	test	eax, eax
	jle	SHORT $LN5@ExternalRe
	mov	r8d, 155				; 0000009bH
	lea	rdx, OFFSET FLAT:??_C@_0EF@BPKGFNLI@C?3?2Qt?2Qt5?49?43?25?49?43?2msvc2015_64?2@
	lea	rcx, OFFSET FLAT:??_C@_0BG@MJFKBJF@strongref?4load?$CI?$CJ?5?$DM?$DN?50?$AA@
	call	QWORD PTR __imp_?qt_assert@@YAXPEBD0H@Z
	npad	1
	mov	DWORD PTR tv79[rsp], 0
	jmp	SHORT $LN6@ExternalRe
$LN5@ExternalRe:
	call	?qt_noop@@YAXXZ				; qt_noop
	npad	1
	mov	DWORD PTR tv79[rsp], 0
$LN6@ExternalRe:
	add	rsp, 56					; 00000038H
	ret	0
??1ExternalRefCountData@QtSharedPointer@@QEAA@XZ ENDP	; QtSharedPointer::ExternalRefCountData::~ExternalRefCountData
_TEXT	ENDS
; Function compile flags: /Odtp
;	COMDAT ??C?$QScopedPointer@VQObjectData@@U?$QScopedPointerDeleter@VQObjectData@@@@@@QEBAPEAVQObjectData@@XZ
_TEXT	SEGMENT
this$ = 8
??C?$QScopedPointer@VQObjectData@@U?$QScopedPointerDeleter@VQObjectData@@@@@@QEBAPEAVQObjectData@@XZ PROC ; QScopedPointer<QObjectData,QScopedPointerDeleter<QObjectData> >::operator->, COMDAT
; File c:\qt\qt5.9.3\5.9.3\msvc2015_64\include\qtcore\qscopedpointer.h
; Line 117
	mov	QWORD PTR [rsp+8], rcx
; Line 118
	mov	rax, QWORD PTR this$[rsp]
	mov	rax, QWORD PTR [rax]
; Line 119
	ret	0
??C?$QScopedPointer@VQObjectData@@U?$QScopedPointerDeleter@VQObjectData@@@@@@QEBAPEAVQObjectData@@XZ ENDP ; QScopedPointer<QObjectData,QScopedPointerDeleter<QObjectData> >::operator->
_TEXT	ENDS
; Function compile flags: /Odtp
;	COMDAT ?deref@?$QBasicAtomicInteger@H@@QEAA_NXZ
_TEXT	SEGMENT
this$ = 48
?deref@?$QBasicAtomicInteger@H@@QEAA_NXZ PROC		; QBasicAtomicInteger<int>::deref, COMDAT
; File c:\qt\qt5.9.3\5.9.3\msvc2015_64\include\qtcore\qbasicatomic.h
; Line 114
$LN3:
	mov	QWORD PTR [rsp+8], rcx
	sub	rsp, 40					; 00000028H
	mov	rax, QWORD PTR this$[rsp]
	mov	rcx, rax
	call	??$deref@H@?$QAtomicOpsBySize@$03@@SA_NAEAH@Z ; QAtomicOpsBySize<4>::deref<int>
	add	rsp, 40					; 00000028H
	ret	0
?deref@?$QBasicAtomicInteger@H@@QEAA_NXZ ENDP		; QBasicAtomicInteger<int>::deref
_TEXT	ENDS
; Function compile flags: /Odtp
;	COMDAT ?load@?$QBasicAtomicInteger@H@@QEBAHXZ
_TEXT	SEGMENT
this$ = 48
?load@?$QBasicAtomicInteger@H@@QEBAHXZ PROC		; QBasicAtomicInteger<int>::load, COMDAT
; File c:\qt\qt5.9.3\5.9.3\msvc2015_64\include\qtcore\qbasicatomic.h
; Line 102
$LN3:
	mov	QWORD PTR [rsp+8], rcx
	sub	rsp, 40					; 00000028H
	mov	rax, QWORD PTR this$[rsp]
	mov	rcx, rax
	call	??$load@H@?$QGenericAtomicOps@U?$QAtomicOpsBySize@$03@@@@SAHAEBH@Z ; QGenericAtomicOps<QAtomicOpsBySize<4> >::load<int>
	add	rsp, 40					; 00000028H
	ret	0
?load@?$QBasicAtomicInteger@H@@QEBAHXZ ENDP		; QBasicAtomicInteger<int>::load
_TEXT	ENDS
; Function compile flags: /Odtp
;	COMDAT ?qt_noop@@YAXXZ
_TEXT	SEGMENT
?qt_noop@@YAXXZ PROC					; qt_noop, COMDAT
; File c:\qt\qt5.9.3\5.9.3\msvc2015_64\include\qtcore\qglobal.h
; Line 623
	ret	0
?qt_noop@@YAXXZ ENDP					; qt_noop
_TEXT	ENDS
; Function compile flags: /Odtp
;	COMDAT ?__empty_global_delete@@YAXPEAX_K@Z
_TEXT	SEGMENT
__formal$ = 8
__formal$ = 16
?__empty_global_delete@@YAXPEAX_K@Z PROC		; __empty_global_delete, COMDAT
; File e:\g12_work\weidali_code\b\g12_4_b\ui\src\linecamerasettingui\x64\debug\moc\moc_camerasettingui.cpp
; Line 166
	mov	QWORD PTR [rsp+16], rdx
	mov	QWORD PTR [rsp+8], rcx
	ret	0
?__empty_global_delete@@YAXPEAX_K@Z ENDP		; __empty_global_delete
_TEXT	ENDS
; Function compile flags: /Odtp
;	COMDAT ?__empty_global_delete@@YAXPEAX@Z
_TEXT	SEGMENT
__formal$ = 8
?__empty_global_delete@@YAXPEAX@Z PROC			; __empty_global_delete, COMDAT
; File e:\g12_work\weidali_code\b\g12_4_b\ui\src\linecamerasettingui\x64\debug\moc\moc_camerasettingui.cpp
; Line 166
	mov	QWORD PTR [rsp+8], rcx
	ret	0
?__empty_global_delete@@YAXPEAX@Z ENDP			; __empty_global_delete
_TEXT	ENDS
END
