; Listing generated by Microsoft (R) Optimizing Compiler Version 19.00.24215.1 

include listing.inc

INCLUDELIB MSVCRTD
INCLUDELIB OLDNAMES

CONST	SEGMENT
$SG203873 DB	'C:\Qt\Qt5.9.3\5.9.3\msvc2015_64\include\QtCore/qmetatype'
	DB	'.h', 00H
	ORG $+5
$SG203874 DB	'qRegisterNormalizedMetaType was called with a not normal'
	DB	'ized type name, please call qRegisterMetaType instead.', 00H
	ORG $+1
$SG203875 DB	'qRegisterNormalizedMetaType', 00H
	ORG $+4
?qt_meta_stringdata_CLineCameraManagerUI@@3Uqt_meta_stringdata_CLineCameraManagerUI_t@@B DD 0ffffffffH ; qt_meta_stringdata_CLineCameraManagerUI
	DD	014H
	DD	00H
	ORG $+4
	DQ	00000000000003f0H
	DD	0ffffffffH
	DD	0fH
	DD	00H
	ORG $+4
	DQ	00000000000003edH
	DD	0ffffffffH
	DD	00H
	DD	00H
	ORG $+4
	DQ	00000000000003e5H
	DD	0ffffffffH
	DD	0eH
	DD	00H
	ORG $+4
	DQ	00000000000003ceH
	DD	0ffffffffH
	DD	010H
	DD	00H
	ORG $+4
	DQ	00000000000003c5H
	DD	0ffffffffH
	DD	0eH
	DD	00H
	ORG $+4
	DQ	00000000000003beH
	DD	0ffffffffH
	DD	01fH
	DD	00H
	ORG $+4
	DQ	00000000000003b5H
	DD	0ffffffffH
	DD	010H
	DD	00H
	ORG $+4
	DQ	00000000000003bdH
	DD	0ffffffffH
	DD	04H
	DD	00H
	ORG $+4
	DQ	00000000000003b6H
	DD	0ffffffffH
	DD	06H
	DD	00H
	ORG $+4
	DQ	00000000000003a3H
	DD	0ffffffffH
	DD	01aH
	DD	00H
	ORG $+4
	DQ	0000000000000392H
	DD	0ffffffffH
	DD	07H
	DD	00H
	ORG $+4
	DQ	0000000000000395H
	DD	0ffffffffH
	DD	01fH
	DD	00H
	ORG $+4
	DQ	0000000000000385H
	DD	0ffffffffH
	DD	021H
	DD	00H
	ORG $+4
	DQ	000000000000038dH
	DD	0ffffffffH
	DD	025H
	DD	00H
	ORG $+4
	DQ	0000000000000397H
	DD	0ffffffffH
	DD	01dH
	DD	00H
	ORG $+4
	DQ	00000000000003a5H
	DD	0ffffffffH
	DD	02dH
	DD	00H
	ORG $+4
	DQ	00000000000003abH
	DD	0ffffffffH
	DD	05H
	DD	00H
	ORG $+4
	DQ	00000000000003c1H
	DD	0ffffffffH
	DD	01cH
	DD	00H
	ORG $+4
	DQ	00000000000003afH
	DD	0ffffffffH
	DD	01fH
	DD	00H
	ORG $+4
	DQ	00000000000003b4H
	DD	0ffffffffH
	DD	01fH
	DD	00H
	ORG $+4
	DQ	00000000000003bcH
	DD	0ffffffffH
	DD	020H
	DD	00H
	ORG $+4
	DQ	00000000000003c4H
	DD	0ffffffffH
	DD	020H
	DD	00H
	ORG $+4
	DQ	00000000000003cdH
	DD	0ffffffffH
	DD	021H
	DD	00H
	ORG $+4
	DQ	00000000000003d6H
	DD	0ffffffffH
	DD	021H
	DD	00H
	ORG $+4
	DQ	00000000000003e0H
	DD	0ffffffffH
	DD	0dH
	DD	00H
	ORG $+4
	DQ	00000000000003eaH
	DD	0ffffffffH
	DD	0cH
	DD	00H
	ORG $+4
	DQ	00000000000003e0H
	DD	0ffffffffH
	DD	0eH
	DD	00H
	ORG $+4
	DQ	00000000000003d5H
	DD	0ffffffffH
	DD	02H
	DD	00H
	ORG $+4
	DQ	00000000000003ccH
	DD	0ffffffffH
	DD	010H
	DD	00H
	ORG $+4
	DQ	00000000000003b7H
	DD	0ffffffffH
	DD	016H
	DD	00H
	ORG $+4
	DQ	00000000000003b0H
	DD	0ffffffffH
	DD	016H
	DD	00H
	ORG $+4
	DQ	00000000000003afH
	DD	0ffffffffH
	DD	016H
	DD	00H
	ORG $+4
	DQ	00000000000003aeH
	DD	0ffffffffH
	DD	016H
	DD	00H
	ORG $+4
	DQ	00000000000003adH
	DD	0ffffffffH
	DD	016H
	DD	00H
	ORG $+4
	DQ	00000000000003acH
	DD	0ffffffffH
	DD	016H
	DD	00H
	ORG $+4
	DQ	00000000000003abH
	DD	0ffffffffH
	DD	016H
	DD	00H
	ORG $+4
	DQ	00000000000003aaH
	DD	0ffffffffH
	DD	016H
	DD	00H
	ORG $+4
	DQ	00000000000003a9H
	DD	0ffffffffH
	DD	01aH
	DD	00H
	ORG $+4
	DQ	00000000000003a8H
	DD	0ffffffffH
	DD	01bH
	DD	00H
	ORG $+4
	DQ	00000000000003abH
	DD	0ffffffffH
	DD	01cH
	DD	00H
	ORG $+4
	DQ	00000000000003afH
	DD	0ffffffffH
	DD	027H
	DD	00H
	ORG $+4
	DQ	00000000000003b4H
	DB	'CLineCameraManagerUI', 00H, 'signalShowImage', 00H, 00H, 's'
	DB	'ignalUpdateUI', 00H, 'signalCancelWait', 00H, 'signalFinished'
	DB	00H, 'on_treeWidget_itemDoubleClicked', 00H, 'QTreeWidgetItem*'
	DB	00H, 'item', 00H, 'column', 00H, 'on_pushButton_save_clicked', 00H
	DB	'checked', 00H, 'on_pushButton_get_image_clicked', 00H, 'on_pu'
	DB	'shButton_singlePhoto_clicked', 00H, 'on_pushButton_realTimeDi'
	DB	'splay_clicked', 00H, 'on_pushButton_Refresh_clicked', 00H, 'o'
	DB	'n_comboBox_Camera_Select_currentIndexChanged', 00H, 'index', 00H
	DB	'on_pushButton_browse_clicked', 00H, 'on_spinBox_min_col_value'
	DB	'Changed', 00H, 'on_spinBox_max_col_valueChanged', 00H, 'on_sp'
	DB	'inBox_min_gray_valueChanged', 00H, 'on_spinBox_max_gray_value'
	DB	'Changed', 00H, 'on_spinBox_min_limit_valueChanged', 00H, 'on_'
	DB	'spinBox_max_limit_valueChanged', 00H, 'slotShowImage', 00H, 's'
	DB	'lotUpdateUI', 00H, 'slotWaitCancel', 00H, 'iR', 00H, 'slotWai'
	DB	'tFinished', 00H, 'on_checkBox_C1_clicked', 00H, 'on_checkBox_'
	DB	'C2_clicked', 00H, 'on_checkBox_C3_clicked', 00H, 'on_checkBox'
	DB	'_C4_clicked', 00H, 'on_checkBox_C5_clicked', 00H, 'on_checkBo'
	DB	'x_C6_clicked', 00H, 'on_checkBox_C7_clicked', 00H, 'on_checkB'
	DB	'ox_C8_clicked', 00H, 'on_pushButton_test_clicked', 00H, 'on_p'
	DB	'ushButton_calib_clicked', 00H, 'on_pushButton_signal_clicked', 00H
	DB	'on_pushButton_calib_pluse_ratio_clicked', 00H
	ORG $+4
$SG205034 DB	'C:\Qt\Qt5.9.3\5.9.3\msvc2015_64\include\QtCore/qmetatype'
	DB	'.h', 00H
	ORG $+13
$SG205035 DB	'qRegisterNormalizedMetaType was called with a not normal'
	DB	'ized type name, please call qRegisterMetaType instead.', 00H
	ORG $+1
$SG205036 DB	'qRegisterNormalizedMetaType', 00H
	ORG $+4
?qt_meta_data_CLineCameraManagerUI@@3QBIB DD 07H	; qt_meta_data_CLineCameraManagerUI
	DD	00H
	DD	00H
	DD	00H
	DD	024H
	DD	0eH
	DD	00H
	DD	00H
	DD	00H
	DD	00H
	DD	00H
	DD	00H
	DD	00H
	DD	04H
	DD	01H
	DD	00H
	DD	0c2H
	DD	02H
	DD	06H
	DD	03H
	DD	00H
	DD	0c3H
	DD	02H
	DD	06H
	DD	04H
	DD	00H
	DD	0c4H
	DD	02H
	DD	06H
	DD	05H
	DD	00H
	DD	0c5H
	DD	02H
	DD	06H
	DD	06H
	DD	02H
	DD	0c6H
	DD	02H
	DD	0aH
	DD	0aH
	DD	01H
	DD	0cbH
	DD	02H
	DD	0aH
	DD	0aH
	DD	00H
	DD	0ceH
	DD	02H
	DD	02aH
	DD	0cH
	DD	00H
	DD	0cfH
	DD	02H
	DD	0aH
	DD	0dH
	DD	00H
	DD	0d0H
	DD	02H
	DD	0aH
	DD	0eH
	DD	01H
	DD	0d1H
	DD	02H
	DD	0aH
	DD	0fH
	DD	00H
	DD	0d4H
	DD	02H
	DD	0aH
	DD	010H
	DD	01H
	DD	0d5H
	DD	02H
	DD	0aH
	DD	012H
	DD	00H
	DD	0d8H
	DD	02H
	DD	0aH
	DD	013H
	DD	00H
	DD	0d9H
	DD	02H
	DD	0aH
	DD	014H
	DD	00H
	DD	0daH
	DD	02H
	DD	0aH
	DD	015H
	DD	00H
	DD	0dbH
	DD	02H
	DD	0aH
	DD	016H
	DD	00H
	DD	0dcH
	DD	02H
	DD	0aH
	DD	017H
	DD	00H
	DD	0ddH
	DD	02H
	DD	0aH
	DD	018H
	DD	00H
	DD	0deH
	DD	02H
	DD	0aH
	DD	019H
	DD	00H
	DD	0dfH
	DD	02H
	DD	0aH
	DD	01aH
	DD	00H
	DD	0e0H
	DD	02H
	DD	0aH
	DD	01bH
	DD	00H
	DD	0e1H
	DD	02H
	DD	0aH
	DD	01bH
	DD	01H
	DD	0e2H
	DD	02H
	DD	0aH
	DD	01dH
	DD	00H
	DD	0e5H
	DD	02H
	DD	0aH
	DD	01eH
	DD	01H
	DD	0e6H
	DD	02H
	DD	0aH
	DD	01fH
	DD	01H
	DD	0e9H
	DD	02H
	DD	0aH
	DD	020H
	DD	01H
	DD	0ecH
	DD	02H
	DD	0aH
	DD	021H
	DD	01H
	DD	0efH
	DD	02H
	DD	0aH
	DD	022H
	DD	01H
	DD	0f2H
	DD	02H
	DD	0aH
	DD	023H
	DD	01H
	DD	0f5H
	DD	02H
	DD	0aH
	DD	024H
	DD	01H
	DD	0f8H
	DD	02H
	DD	0aH
	DD	025H
	DD	01H
	DD	0fbH
	DD	02H
	DD	0aH
	DD	026H
	DD	01H
	DD	0feH
	DD	02H
	DD	0aH
	DD	027H
	DD	01H
	DD	0101H
	DD	02H
	DD	0aH
	DD	028H
	DD	01H
	DD	0104H
	DD	02H
	DD	0aH
	DD	029H
	DD	01H
	DD	0107H
	DD	02H
	DD	0aH
	DD	02bH
	DD	02bH
	DD	02bH
	DD	02bH
	DD	02bH
	DD	080000007H
	DD	02H
	DD	08H
	DD	09H
	DD	02bH
	DD	01H
	DD	0bH
	DD	02bH
	DD	02bH
	DD	02bH
	DD	02bH
	DD	01H
	DD	0bH
	DD	02bH
	DD	02bH
	DD	02H
	DD	011H
	DD	02bH
	DD	02bH
	DD	02bH
	DD	02bH
	DD	02bH
	DD	02bH
	DD	02bH
	DD	02bH
	DD	02bH
	DD	02bH
	DD	02bH
	DD	02H
	DD	01cH
	DD	02bH
	DD	02bH
	DD	01H
	DD	0bH
	DD	02bH
	DD	01H
	DD	0bH
	DD	02bH
	DD	01H
	DD	0bH
	DD	02bH
	DD	01H
	DD	0bH
	DD	02bH
	DD	01H
	DD	0bH
	DD	02bH
	DD	01H
	DD	0bH
	DD	02bH
	DD	01H
	DD	0bH
	DD	02bH
	DD	01H
	DD	0bH
	DD	02bH
	DD	01H
	DD	0bH
	DD	02bH
	DD	01H
	DD	0bH
	DD	02bH
	DD	01H
	DD	0bH
	DD	02bH
	DD	01H
	DD	0bH
	DD	00H
	ORG $+4
$SG204183 DB	'C:\Qt\Qt5.9.3\5.9.3\msvc2015_64\include\QtCore/qmetatype'
	DB	'.h', 00H
	ORG $+5
$SG204184 DB	'qRegisterNormalizedMetaType was called with a not normal'
	DB	'ized type name, please call qRegisterMetaType instead.', 00H
	ORG $+1
$SG204185 DB	'qRegisterNormalizedMetaType', 00H
	ORG $+4
$SG205344 DB	'C:\Qt\Qt5.9.3\5.9.3\msvc2015_64\include\QtCore/qmetatype'
	DB	'.h', 00H
	ORG $+5
$SG205345 DB	'qRegisterNormalizedMetaType was called with a not normal'
	DB	'ized type name, please call qRegisterMetaType instead.', 00H
	ORG $+1
$SG205346 DB	'qRegisterNormalizedMetaType', 00H
	ORG $+4
$SG206424 DB	'C:\Qt\Qt5.9.3\5.9.3\msvc2015_64\include\QtCore/qmetatype'
	DB	'.h', 00H
	ORG $+5
$SG206425 DB	'qRegisterNormalizedMetaType was called with a not normal'
	DB	'ized type name, please call qRegisterMetaType instead.', 00H
	ORG $+1
$SG206426 DB	'qRegisterNormalizedMetaType', 00H
	ORG $+4
$SG203563 DB	'C:\Qt\Qt5.9.3\5.9.3\msvc2015_64\include\QtCore/qmetatype'
	DB	'.h', 00H
	ORG $+5
$SG203564 DB	'qRegisterNormalizedMetaType was called with a not normal'
	DB	'ized type name, please call qRegisterMetaType instead.', 00H
	ORG $+1
$SG203565 DB	'qRegisterNormalizedMetaType', 00H
	ORG $+4
$SG205654 DB	'C:\Qt\Qt5.9.3\5.9.3\msvc2015_64\include\QtCore/qmetatype'
	DB	'.h', 00H
	ORG $+5
$SG205655 DB	'qRegisterNormalizedMetaType was called with a not normal'
	DB	'ized type name, please call qRegisterMetaType instead.', 00H
	ORG $+1
$SG205656 DB	'qRegisterNormalizedMetaType', 00H
CONST	ENDS
PUBLIC	?__empty_global_delete@@YAXPEAX@Z		; __empty_global_delete
PUBLIC	?__empty_global_delete@@YAXPEAX_K@Z		; __empty_global_delete
PUBLIC	??C?$QScopedPointer@VQObjectData@@U?$QScopedPointerDeleter@VQObjectData@@@@@@QEBAPEAVQObjectData@@XZ ; QScopedPointer<QObjectData,QScopedPointerDeleter<QObjectData> >::operator->
PUBLIC	?metaObject@CLineCameraManagerUI@@UEBAPEBUQMetaObject@@XZ ; CLineCameraManagerUI::metaObject
PUBLIC	?qt_metacast@CLineCameraManagerUI@@UEAAPEAXPEBD@Z ; CLineCameraManagerUI::qt_metacast
PUBLIC	?qt_metacall@CLineCameraManagerUI@@UEAAHW4Call@QMetaObject@@HPEAPEAX@Z ; CLineCameraManagerUI::qt_metacall
PUBLIC	?qt_static_metacall@CLineCameraManagerUI@@CAXPEAVQObject@@W4Call@QMetaObject@@HPEAPEAX@Z ; CLineCameraManagerUI::qt_static_metacall
PUBLIC	?signalShowImage@CLineCameraManagerUI@@QEAAXXZ	; CLineCameraManagerUI::signalShowImage
PUBLIC	?signalUpdateUI@CLineCameraManagerUI@@QEAAXXZ	; CLineCameraManagerUI::signalUpdateUI
PUBLIC	?signalCancelWait@CLineCameraManagerUI@@QEAAXXZ	; CLineCameraManagerUI::signalCancelWait
PUBLIC	?signalFinished@CLineCameraManagerUI@@QEAAXXZ	; CLineCameraManagerUI::signalFinished
PUBLIC	?staticMetaObject@CLineCameraManagerUI@@2UQMetaObject@@B ; CLineCameraManagerUI::staticMetaObject
EXTRN	strcmp:PROC
EXTRN	__imp_?activate@QMetaObject@@SAXPEAVQObject@@PEBU1@HPEAPEAX@Z:PROC
EXTRN	__imp_?dynamicMetaObject@QObjectData@@QEBAPEAUQMetaObject@@XZ:PROC
EXTRN	__imp_?qt_metacast@QWidget@@UEAAPEAXPEBD@Z:PROC
EXTRN	__imp_?qt_metacall@QWidget@@UEAAHW4Call@QMetaObject@@HPEAPEAX@Z:PROC
EXTRN	?on_treeWidget_itemDoubleClicked@CLineCameraManagerUI@@QEAAXPEAVQTreeWidgetItem@@H@Z:PROC ; CLineCameraManagerUI::on_treeWidget_itemDoubleClicked
EXTRN	?on_pushButton_save_clicked@CLineCameraManagerUI@@QEAAX_N@Z:PROC ; CLineCameraManagerUI::on_pushButton_save_clicked
EXTRN	?on_pushButton_get_image_clicked@CLineCameraManagerUI@@QEAAXXZ:PROC ; CLineCameraManagerUI::on_pushButton_get_image_clicked
EXTRN	?on_pushButton_singlePhoto_clicked@CLineCameraManagerUI@@QEAAXXZ:PROC ; CLineCameraManagerUI::on_pushButton_singlePhoto_clicked
EXTRN	?on_pushButton_realTimeDisplay_clicked@CLineCameraManagerUI@@QEAAX_N@Z:PROC ; CLineCameraManagerUI::on_pushButton_realTimeDisplay_clicked
EXTRN	?on_pushButton_Refresh_clicked@CLineCameraManagerUI@@QEAAXXZ:PROC ; CLineCameraManagerUI::on_pushButton_Refresh_clicked
EXTRN	?on_comboBox_Camera_Select_currentIndexChanged@CLineCameraManagerUI@@QEAAXH@Z:PROC ; CLineCameraManagerUI::on_comboBox_Camera_Select_currentIndexChanged
EXTRN	?on_pushButton_browse_clicked@CLineCameraManagerUI@@QEAAXXZ:PROC ; CLineCameraManagerUI::on_pushButton_browse_clicked
EXTRN	?on_spinBox_min_col_valueChanged@CLineCameraManagerUI@@QEAAXXZ:PROC ; CLineCameraManagerUI::on_spinBox_min_col_valueChanged
EXTRN	?on_spinBox_max_col_valueChanged@CLineCameraManagerUI@@QEAAXXZ:PROC ; CLineCameraManagerUI::on_spinBox_max_col_valueChanged
EXTRN	?on_spinBox_min_gray_valueChanged@CLineCameraManagerUI@@QEAAXXZ:PROC ; CLineCameraManagerUI::on_spinBox_min_gray_valueChanged
EXTRN	?on_spinBox_max_gray_valueChanged@CLineCameraManagerUI@@QEAAXXZ:PROC ; CLineCameraManagerUI::on_spinBox_max_gray_valueChanged
EXTRN	?on_spinBox_min_limit_valueChanged@CLineCameraManagerUI@@QEAAXXZ:PROC ; CLineCameraManagerUI::on_spinBox_min_limit_valueChanged
EXTRN	?on_spinBox_max_limit_valueChanged@CLineCameraManagerUI@@QEAAXXZ:PROC ; CLineCameraManagerUI::on_spinBox_max_limit_valueChanged
EXTRN	?slotShowImage@CLineCameraManagerUI@@QEAAXXZ:PROC ; CLineCameraManagerUI::slotShowImage
EXTRN	?slotUpdateUI@CLineCameraManagerUI@@QEAAXXZ:PROC ; CLineCameraManagerUI::slotUpdateUI
EXTRN	?slotWaitCancel@CLineCameraManagerUI@@QEAAXXZ:PROC ; CLineCameraManagerUI::slotWaitCancel
EXTRN	?slotWaitCancel@CLineCameraManagerUI@@QEAAXH@Z:PROC ; CLineCameraManagerUI::slotWaitCancel
EXTRN	?slotWaitFinished@CLineCameraManagerUI@@QEAAXXZ:PROC ; CLineCameraManagerUI::slotWaitFinished
EXTRN	?on_checkBox_C1_clicked@CLineCameraManagerUI@@QEAAX_N@Z:PROC ; CLineCameraManagerUI::on_checkBox_C1_clicked
EXTRN	?on_checkBox_C2_clicked@CLineCameraManagerUI@@QEAAX_N@Z:PROC ; CLineCameraManagerUI::on_checkBox_C2_clicked
EXTRN	?on_checkBox_C3_clicked@CLineCameraManagerUI@@QEAAX_N@Z:PROC ; CLineCameraManagerUI::on_checkBox_C3_clicked
EXTRN	?on_checkBox_C4_clicked@CLineCameraManagerUI@@QEAAX_N@Z:PROC ; CLineCameraManagerUI::on_checkBox_C4_clicked
EXTRN	?on_checkBox_C5_clicked@CLineCameraManagerUI@@QEAAX_N@Z:PROC ; CLineCameraManagerUI::on_checkBox_C5_clicked
EXTRN	?on_checkBox_C6_clicked@CLineCameraManagerUI@@QEAAX_N@Z:PROC ; CLineCameraManagerUI::on_checkBox_C6_clicked
EXTRN	?on_checkBox_C7_clicked@CLineCameraManagerUI@@QEAAX_N@Z:PROC ; CLineCameraManagerUI::on_checkBox_C7_clicked
EXTRN	?on_checkBox_C8_clicked@CLineCameraManagerUI@@QEAAX_N@Z:PROC ; CLineCameraManagerUI::on_checkBox_C8_clicked
EXTRN	?on_pushButton_test_clicked@CLineCameraManagerUI@@QEAAX_N@Z:PROC ; CLineCameraManagerUI::on_pushButton_test_clicked
EXTRN	?on_pushButton_calib_clicked@CLineCameraManagerUI@@QEAAX_N@Z:PROC ; CLineCameraManagerUI::on_pushButton_calib_clicked
EXTRN	?on_pushButton_signal_clicked@CLineCameraManagerUI@@QEAAX_N@Z:PROC ; CLineCameraManagerUI::on_pushButton_signal_clicked
EXTRN	?on_pushButton_calib_pluse_ratio_clicked@CLineCameraManagerUI@@QEAAX_N@Z:PROC ; CLineCameraManagerUI::on_pushButton_calib_pluse_ratio_clicked
EXTRN	__imp_?staticMetaObject@QWidget@@2UQMetaObject@@B:BYTE
EXTRN	__ImageBase:BYTE
_BSS	SEGMENT
?staticMetaObject@CLineCameraManagerUI@@2UQMetaObject@@B DB 030H DUP (?) ; CLineCameraManagerUI::staticMetaObject
_BSS	ENDS
pdata	SEGMENT
$pdata$?metaObject@CLineCameraManagerUI@@UEBAPEBUQMetaObject@@XZ DD imagerel $LN5
	DD	imagerel $LN5+88
	DD	imagerel $unwind$?metaObject@CLineCameraManagerUI@@UEBAPEBUQMetaObject@@XZ
$pdata$?qt_metacast@CLineCameraManagerUI@@UEAAPEAXPEBD@Z DD imagerel $LN5
	DD	imagerel $LN5+75
	DD	imagerel $unwind$?qt_metacast@CLineCameraManagerUI@@UEAAPEAXPEBD@Z
$pdata$?qt_metacall@CLineCameraManagerUI@@UEAAHW4Call@QMetaObject@@HPEAPEAX@Z DD imagerel $LN9
	DD	imagerel $LN9+174
	DD	imagerel $unwind$?qt_metacall@CLineCameraManagerUI@@UEAAHW4Call@QMetaObject@@HPEAPEAX@Z
$pdata$?qt_static_metacall@CLineCameraManagerUI@@CAXPEAVQObject@@W4Call@QMetaObject@@HPEAPEAX@Z DD imagerel $LN62
	DD	imagerel $LN62+1852
	DD	imagerel $unwind$?qt_static_metacall@CLineCameraManagerUI@@CAXPEAVQObject@@W4Call@QMetaObject@@HPEAPEAX@Z
$pdata$?signalShowImage@CLineCameraManagerUI@@QEAAXXZ DD imagerel $LN3
	DD	imagerel $LN3+38
	DD	imagerel $unwind$?signalShowImage@CLineCameraManagerUI@@QEAAXXZ
$pdata$?signalUpdateUI@CLineCameraManagerUI@@QEAAXXZ DD imagerel $LN3
	DD	imagerel $LN3+41
	DD	imagerel $unwind$?signalUpdateUI@CLineCameraManagerUI@@QEAAXXZ
$pdata$?signalCancelWait@CLineCameraManagerUI@@QEAAXXZ DD imagerel $LN3
	DD	imagerel $LN3+41
	DD	imagerel $unwind$?signalCancelWait@CLineCameraManagerUI@@QEAAXXZ
$pdata$?signalFinished@CLineCameraManagerUI@@QEAAXXZ DD imagerel $LN3
	DD	imagerel $LN3+41
	DD	imagerel $unwind$?signalFinished@CLineCameraManagerUI@@QEAAXXZ
pdata	ENDS
CRT$XCU	SEGMENT
??staticMetaObject$initializer$@CLineCameraManagerUI@@2P6AXXZEA@@3P6AXXZEA DQ FLAT:??__E?staticMetaObject@CLineCameraManagerUI@@2UQMetaObject@@B@@YAXXZ ; ??staticMetaObject$initializer$@CLineCameraManagerUI@@2P6AXXZEA@@3P6AXXZEA
CRT$XCU	ENDS
xdata	SEGMENT
$unwind$?metaObject@CLineCameraManagerUI@@UEBAPEBUQMetaObject@@XZ DD 010901H
	DD	06209H
$unwind$?qt_metacast@CLineCameraManagerUI@@UEAAPEAXPEBD@Z DD 010e01H
	DD	0420eH
$unwind$?qt_metacall@CLineCameraManagerUI@@UEAAHW4Call@QMetaObject@@HPEAPEAX@Z DD 011701H
	DD	04217H
$unwind$?qt_static_metacall@CLineCameraManagerUI@@CAXPEAVQObject@@W4Call@QMetaObject@@HPEAPEAX@Z DD 021a01H
	DD	013011aH
$unwind$?signalShowImage@CLineCameraManagerUI@@QEAAXXZ DD 010901H
	DD	04209H
$unwind$?signalUpdateUI@CLineCameraManagerUI@@QEAAXXZ DD 010901H
	DD	04209H
$unwind$?signalCancelWait@CLineCameraManagerUI@@QEAAXXZ DD 010901H
	DD	04209H
$unwind$?signalFinished@CLineCameraManagerUI@@QEAAXXZ DD 010901H
	DD	04209H
xdata	ENDS
; Function compile flags: /Odtp
;	COMDAT ??__E?staticMetaObject@CLineCameraManagerUI@@2UQMetaObject@@B@@YAXXZ
text$di	SEGMENT
??__E?staticMetaObject@CLineCameraManagerUI@@2UQMetaObject@@B@@YAXXZ PROC ; `dynamic initializer for 'CLineCameraManagerUI::staticMetaObject'', COMDAT
; File e:\g12_work\weidali_code\b\g12_4_b\ui\src\linecamerasettingui\x64\debug\moc\moc_linecameramanagerui.cpp
; Line 282
	mov	rax, QWORD PTR __imp_?staticMetaObject@QWidget@@2UQMetaObject@@B
	mov	QWORD PTR ?staticMetaObject@CLineCameraManagerUI@@2UQMetaObject@@B, rax
	lea	rax, OFFSET FLAT:?qt_meta_stringdata_CLineCameraManagerUI@@3Uqt_meta_stringdata_CLineCameraManagerUI_t@@B
	mov	QWORD PTR ?staticMetaObject@CLineCameraManagerUI@@2UQMetaObject@@B+8, rax
; Line 283
	lea	rax, OFFSET FLAT:?qt_meta_data_CLineCameraManagerUI@@3QBIB
	mov	QWORD PTR ?staticMetaObject@CLineCameraManagerUI@@2UQMetaObject@@B+16, rax
	lea	rax, OFFSET FLAT:?qt_static_metacall@CLineCameraManagerUI@@CAXPEAVQObject@@W4Call@QMetaObject@@HPEAPEAX@Z ; CLineCameraManagerUI::qt_static_metacall
	mov	QWORD PTR ?staticMetaObject@CLineCameraManagerUI@@2UQMetaObject@@B+24, rax
	mov	QWORD PTR ?staticMetaObject@CLineCameraManagerUI@@2UQMetaObject@@B+32, 0
	mov	QWORD PTR ?staticMetaObject@CLineCameraManagerUI@@2UQMetaObject@@B+40, 0
	ret	0
??__E?staticMetaObject@CLineCameraManagerUI@@2UQMetaObject@@B@@YAXXZ ENDP ; `dynamic initializer for 'CLineCameraManagerUI::staticMetaObject''
text$di	ENDS
; Function compile flags: /Odtp
_TEXT	SEGMENT
this$ = 48
?signalFinished@CLineCameraManagerUI@@QEAAXXZ PROC	; CLineCameraManagerUI::signalFinished
; File e:\g12_work\weidali_code\b\g12_4_b\ui\src\linecamerasettingui\x64\debug\moc\moc_linecameramanagerui.cpp
; Line 337
$LN3:
	mov	QWORD PTR [rsp+8], rcx
	sub	rsp, 40					; 00000028H
; Line 338
	xor	r9d, r9d
	mov	r8d, 3
	lea	rdx, OFFSET FLAT:?staticMetaObject@CLineCameraManagerUI@@2UQMetaObject@@B ; CLineCameraManagerUI::staticMetaObject
	mov	rcx, QWORD PTR this$[rsp]
	call	QWORD PTR __imp_?activate@QMetaObject@@SAXPEAVQObject@@PEBU1@HPEAPEAX@Z
; Line 339
	add	rsp, 40					; 00000028H
	ret	0
?signalFinished@CLineCameraManagerUI@@QEAAXXZ ENDP	; CLineCameraManagerUI::signalFinished
_TEXT	ENDS
; Function compile flags: /Odtp
_TEXT	SEGMENT
this$ = 48
?signalCancelWait@CLineCameraManagerUI@@QEAAXXZ PROC	; CLineCameraManagerUI::signalCancelWait
; File e:\g12_work\weidali_code\b\g12_4_b\ui\src\linecamerasettingui\x64\debug\moc\moc_linecameramanagerui.cpp
; Line 331
$LN3:
	mov	QWORD PTR [rsp+8], rcx
	sub	rsp, 40					; 00000028H
; Line 332
	xor	r9d, r9d
	mov	r8d, 2
	lea	rdx, OFFSET FLAT:?staticMetaObject@CLineCameraManagerUI@@2UQMetaObject@@B ; CLineCameraManagerUI::staticMetaObject
	mov	rcx, QWORD PTR this$[rsp]
	call	QWORD PTR __imp_?activate@QMetaObject@@SAXPEAVQObject@@PEBU1@HPEAPEAX@Z
; Line 333
	add	rsp, 40					; 00000028H
	ret	0
?signalCancelWait@CLineCameraManagerUI@@QEAAXXZ ENDP	; CLineCameraManagerUI::signalCancelWait
_TEXT	ENDS
; Function compile flags: /Odtp
_TEXT	SEGMENT
this$ = 48
?signalUpdateUI@CLineCameraManagerUI@@QEAAXXZ PROC	; CLineCameraManagerUI::signalUpdateUI
; File e:\g12_work\weidali_code\b\g12_4_b\ui\src\linecamerasettingui\x64\debug\moc\moc_linecameramanagerui.cpp
; Line 325
$LN3:
	mov	QWORD PTR [rsp+8], rcx
	sub	rsp, 40					; 00000028H
; Line 326
	xor	r9d, r9d
	mov	r8d, 1
	lea	rdx, OFFSET FLAT:?staticMetaObject@CLineCameraManagerUI@@2UQMetaObject@@B ; CLineCameraManagerUI::staticMetaObject
	mov	rcx, QWORD PTR this$[rsp]
	call	QWORD PTR __imp_?activate@QMetaObject@@SAXPEAVQObject@@PEBU1@HPEAPEAX@Z
; Line 327
	add	rsp, 40					; 00000028H
	ret	0
?signalUpdateUI@CLineCameraManagerUI@@QEAAXXZ ENDP	; CLineCameraManagerUI::signalUpdateUI
_TEXT	ENDS
; Function compile flags: /Odtp
_TEXT	SEGMENT
this$ = 48
?signalShowImage@CLineCameraManagerUI@@QEAAXXZ PROC	; CLineCameraManagerUI::signalShowImage
; File e:\g12_work\weidali_code\b\g12_4_b\ui\src\linecamerasettingui\x64\debug\moc\moc_linecameramanagerui.cpp
; Line 319
$LN3:
	mov	QWORD PTR [rsp+8], rcx
	sub	rsp, 40					; 00000028H
; Line 320
	xor	r9d, r9d
	xor	r8d, r8d
	lea	rdx, OFFSET FLAT:?staticMetaObject@CLineCameraManagerUI@@2UQMetaObject@@B ; CLineCameraManagerUI::staticMetaObject
	mov	rcx, QWORD PTR this$[rsp]
	call	QWORD PTR __imp_?activate@QMetaObject@@SAXPEAVQObject@@PEBU1@HPEAPEAX@Z
; Line 321
	add	rsp, 40					; 00000028H
	ret	0
?signalShowImage@CLineCameraManagerUI@@QEAAXXZ ENDP	; CLineCameraManagerUI::signalShowImage
_TEXT	ENDS
; Function compile flags: /Odtp
_TEXT	SEGMENT
_t$1 = 32
tv69 = 40
tv227 = 44
tv241 = 48
tv255 = 52
tv269 = 56
result$2 = 64
$T3 = 72
$T4 = 88
$T5 = 104
$T6 = 120
_o$ = 160
_c$ = 168
_id$ = 176
_a$ = 184
?qt_static_metacall@CLineCameraManagerUI@@CAXPEAVQObject@@W4Call@QMetaObject@@HPEAPEAX@Z PROC ; CLineCameraManagerUI::qt_static_metacall
; File e:\g12_work\weidali_code\b\g12_4_b\ui\src\linecamerasettingui\x64\debug\moc\moc_linecameramanagerui.cpp
; Line 205
$LN62:
	mov	QWORD PTR [rsp+32], r9
	mov	DWORD PTR [rsp+24], r8d
	mov	DWORD PTR [rsp+16], edx
	mov	QWORD PTR [rsp+8], rcx
	sub	rsp, 152				; 00000098H
; Line 206
	cmp	DWORD PTR _c$[rsp], 0
	jne	$LN4@qt_static_
; Line 207
	mov	rax, QWORD PTR _o$[rsp]
	mov	QWORD PTR _t$1[rsp], rax
; Line 209
	mov	eax, DWORD PTR _id$[rsp]
	mov	DWORD PTR tv69[rsp], eax
	cmp	DWORD PTR tv69[rsp], 35			; 00000023H
	ja	$LN42@qt_static_
	movsxd	rax, DWORD PTR tv69[rsp]
	lea	rcx, OFFSET FLAT:__ImageBase
	mov	eax, DWORD PTR $LN61@qt_static_[rcx+rax*4]
	add	rax, rcx
	jmp	rax
$LN6@qt_static_:
; Line 210
	mov	rcx, QWORD PTR _t$1[rsp]
	call	?signalShowImage@CLineCameraManagerUI@@QEAAXXZ ; CLineCameraManagerUI::signalShowImage
	jmp	$LN2@qt_static_
$LN7@qt_static_:
; Line 211
	mov	rcx, QWORD PTR _t$1[rsp]
	call	?signalUpdateUI@CLineCameraManagerUI@@QEAAXXZ ; CLineCameraManagerUI::signalUpdateUI
	jmp	$LN2@qt_static_
$LN8@qt_static_:
; Line 212
	mov	rcx, QWORD PTR _t$1[rsp]
	call	?signalCancelWait@CLineCameraManagerUI@@QEAAXXZ ; CLineCameraManagerUI::signalCancelWait
	jmp	$LN2@qt_static_
$LN9@qt_static_:
; Line 213
	mov	rcx, QWORD PTR _t$1[rsp]
	call	?signalFinished@CLineCameraManagerUI@@QEAAXXZ ; CLineCameraManagerUI::signalFinished
	jmp	$LN2@qt_static_
$LN10@qt_static_:
; Line 214
	mov	eax, 8
	imul	rax, rax, 2
	mov	rcx, QWORD PTR _a$[rsp]
	mov	rax, QWORD PTR [rcx+rax]
	mov	ecx, 8
	imul	rcx, rcx, 1
	mov	rdx, QWORD PTR _a$[rsp]
	mov	rcx, QWORD PTR [rdx+rcx]
	mov	r8d, DWORD PTR [rax]
	mov	rdx, QWORD PTR [rcx]
	mov	rcx, QWORD PTR _t$1[rsp]
	call	?on_treeWidget_itemDoubleClicked@CLineCameraManagerUI@@QEAAXPEAVQTreeWidgetItem@@H@Z ; CLineCameraManagerUI::on_treeWidget_itemDoubleClicked
	jmp	$LN2@qt_static_
$LN11@qt_static_:
; Line 215
	mov	eax, 8
	imul	rax, rax, 1
	mov	rcx, QWORD PTR _a$[rsp]
	mov	rax, QWORD PTR [rcx+rax]
	movzx	edx, BYTE PTR [rax]
	mov	rcx, QWORD PTR _t$1[rsp]
	call	?on_pushButton_save_clicked@CLineCameraManagerUI@@QEAAX_N@Z ; CLineCameraManagerUI::on_pushButton_save_clicked
	jmp	$LN2@qt_static_
$LN12@qt_static_:
; Line 216
	xor	edx, edx
	mov	rcx, QWORD PTR _t$1[rsp]
	call	?on_pushButton_save_clicked@CLineCameraManagerUI@@QEAAX_N@Z ; CLineCameraManagerUI::on_pushButton_save_clicked
	jmp	$LN2@qt_static_
$LN13@qt_static_:
; Line 217
	mov	rcx, QWORD PTR _t$1[rsp]
	call	?on_pushButton_get_image_clicked@CLineCameraManagerUI@@QEAAXXZ ; CLineCameraManagerUI::on_pushButton_get_image_clicked
	jmp	$LN2@qt_static_
$LN14@qt_static_:
; Line 218
	mov	rcx, QWORD PTR _t$1[rsp]
	call	?on_pushButton_singlePhoto_clicked@CLineCameraManagerUI@@QEAAXXZ ; CLineCameraManagerUI::on_pushButton_singlePhoto_clicked
	jmp	$LN2@qt_static_
$LN15@qt_static_:
; Line 219
	mov	eax, 8
	imul	rax, rax, 1
	mov	rcx, QWORD PTR _a$[rsp]
	mov	rax, QWORD PTR [rcx+rax]
	movzx	edx, BYTE PTR [rax]
	mov	rcx, QWORD PTR _t$1[rsp]
	call	?on_pushButton_realTimeDisplay_clicked@CLineCameraManagerUI@@QEAAX_N@Z ; CLineCameraManagerUI::on_pushButton_realTimeDisplay_clicked
	jmp	$LN2@qt_static_
$LN16@qt_static_:
; Line 220
	mov	rcx, QWORD PTR _t$1[rsp]
	call	?on_pushButton_Refresh_clicked@CLineCameraManagerUI@@QEAAXXZ ; CLineCameraManagerUI::on_pushButton_Refresh_clicked
	jmp	$LN2@qt_static_
$LN17@qt_static_:
; Line 221
	mov	eax, 8
	imul	rax, rax, 1
	mov	rcx, QWORD PTR _a$[rsp]
	mov	rax, QWORD PTR [rcx+rax]
	mov	edx, DWORD PTR [rax]
	mov	rcx, QWORD PTR _t$1[rsp]
	call	?on_comboBox_Camera_Select_currentIndexChanged@CLineCameraManagerUI@@QEAAXH@Z ; CLineCameraManagerUI::on_comboBox_Camera_Select_currentIndexChanged
	jmp	$LN2@qt_static_
$LN18@qt_static_:
; Line 222
	mov	rcx, QWORD PTR _t$1[rsp]
	call	?on_pushButton_browse_clicked@CLineCameraManagerUI@@QEAAXXZ ; CLineCameraManagerUI::on_pushButton_browse_clicked
	jmp	$LN2@qt_static_
$LN19@qt_static_:
; Line 223
	mov	rcx, QWORD PTR _t$1[rsp]
	call	?on_spinBox_min_col_valueChanged@CLineCameraManagerUI@@QEAAXXZ ; CLineCameraManagerUI::on_spinBox_min_col_valueChanged
	jmp	$LN2@qt_static_
$LN20@qt_static_:
; Line 224
	mov	rcx, QWORD PTR _t$1[rsp]
	call	?on_spinBox_max_col_valueChanged@CLineCameraManagerUI@@QEAAXXZ ; CLineCameraManagerUI::on_spinBox_max_col_valueChanged
	jmp	$LN2@qt_static_
$LN21@qt_static_:
; Line 225
	mov	rcx, QWORD PTR _t$1[rsp]
	call	?on_spinBox_min_gray_valueChanged@CLineCameraManagerUI@@QEAAXXZ ; CLineCameraManagerUI::on_spinBox_min_gray_valueChanged
	jmp	$LN2@qt_static_
$LN22@qt_static_:
; Line 226
	mov	rcx, QWORD PTR _t$1[rsp]
	call	?on_spinBox_max_gray_valueChanged@CLineCameraManagerUI@@QEAAXXZ ; CLineCameraManagerUI::on_spinBox_max_gray_valueChanged
	jmp	$LN2@qt_static_
$LN23@qt_static_:
; Line 227
	mov	rcx, QWORD PTR _t$1[rsp]
	call	?on_spinBox_min_limit_valueChanged@CLineCameraManagerUI@@QEAAXXZ ; CLineCameraManagerUI::on_spinBox_min_limit_valueChanged
	jmp	$LN2@qt_static_
$LN24@qt_static_:
; Line 228
	mov	rcx, QWORD PTR _t$1[rsp]
	call	?on_spinBox_max_limit_valueChanged@CLineCameraManagerUI@@QEAAXXZ ; CLineCameraManagerUI::on_spinBox_max_limit_valueChanged
	jmp	$LN2@qt_static_
$LN25@qt_static_:
; Line 229
	mov	rcx, QWORD PTR _t$1[rsp]
	call	?slotShowImage@CLineCameraManagerUI@@QEAAXXZ ; CLineCameraManagerUI::slotShowImage
	jmp	$LN2@qt_static_
$LN26@qt_static_:
; Line 230
	mov	rcx, QWORD PTR _t$1[rsp]
	call	?slotUpdateUI@CLineCameraManagerUI@@QEAAXXZ ; CLineCameraManagerUI::slotUpdateUI
	jmp	$LN2@qt_static_
$LN27@qt_static_:
; Line 231
	mov	rcx, QWORD PTR _t$1[rsp]
	call	?slotWaitCancel@CLineCameraManagerUI@@QEAAXXZ ; CLineCameraManagerUI::slotWaitCancel
	jmp	$LN2@qt_static_
$LN28@qt_static_:
; Line 232
	mov	eax, 8
	imul	rax, rax, 1
	mov	rcx, QWORD PTR _a$[rsp]
	mov	rax, QWORD PTR [rcx+rax]
	mov	edx, DWORD PTR [rax]
	mov	rcx, QWORD PTR _t$1[rsp]
	call	?slotWaitCancel@CLineCameraManagerUI@@QEAAXH@Z ; CLineCameraManagerUI::slotWaitCancel
	jmp	$LN2@qt_static_
$LN29@qt_static_:
; Line 233
	mov	rcx, QWORD PTR _t$1[rsp]
	call	?slotWaitFinished@CLineCameraManagerUI@@QEAAXXZ ; CLineCameraManagerUI::slotWaitFinished
	jmp	$LN2@qt_static_
$LN30@qt_static_:
; Line 234
	mov	eax, 8
	imul	rax, rax, 1
	mov	rcx, QWORD PTR _a$[rsp]
	mov	rax, QWORD PTR [rcx+rax]
	movzx	edx, BYTE PTR [rax]
	mov	rcx, QWORD PTR _t$1[rsp]
	call	?on_checkBox_C1_clicked@CLineCameraManagerUI@@QEAAX_N@Z ; CLineCameraManagerUI::on_checkBox_C1_clicked
	jmp	$LN2@qt_static_
$LN31@qt_static_:
; Line 235
	mov	eax, 8
	imul	rax, rax, 1
	mov	rcx, QWORD PTR _a$[rsp]
	mov	rax, QWORD PTR [rcx+rax]
	movzx	edx, BYTE PTR [rax]
	mov	rcx, QWORD PTR _t$1[rsp]
	call	?on_checkBox_C2_clicked@CLineCameraManagerUI@@QEAAX_N@Z ; CLineCameraManagerUI::on_checkBox_C2_clicked
	jmp	$LN2@qt_static_
$LN32@qt_static_:
; Line 236
	mov	eax, 8
	imul	rax, rax, 1
	mov	rcx, QWORD PTR _a$[rsp]
	mov	rax, QWORD PTR [rcx+rax]
	movzx	edx, BYTE PTR [rax]
	mov	rcx, QWORD PTR _t$1[rsp]
	call	?on_checkBox_C3_clicked@CLineCameraManagerUI@@QEAAX_N@Z ; CLineCameraManagerUI::on_checkBox_C3_clicked
	jmp	$LN2@qt_static_
$LN33@qt_static_:
; Line 237
	mov	eax, 8
	imul	rax, rax, 1
	mov	rcx, QWORD PTR _a$[rsp]
	mov	rax, QWORD PTR [rcx+rax]
	movzx	edx, BYTE PTR [rax]
	mov	rcx, QWORD PTR _t$1[rsp]
	call	?on_checkBox_C4_clicked@CLineCameraManagerUI@@QEAAX_N@Z ; CLineCameraManagerUI::on_checkBox_C4_clicked
	jmp	$LN2@qt_static_
$LN34@qt_static_:
; Line 238
	mov	eax, 8
	imul	rax, rax, 1
	mov	rcx, QWORD PTR _a$[rsp]
	mov	rax, QWORD PTR [rcx+rax]
	movzx	edx, BYTE PTR [rax]
	mov	rcx, QWORD PTR _t$1[rsp]
	call	?on_checkBox_C5_clicked@CLineCameraManagerUI@@QEAAX_N@Z ; CLineCameraManagerUI::on_checkBox_C5_clicked
	jmp	$LN2@qt_static_
$LN35@qt_static_:
; Line 239
	mov	eax, 8
	imul	rax, rax, 1
	mov	rcx, QWORD PTR _a$[rsp]
	mov	rax, QWORD PTR [rcx+rax]
	movzx	edx, BYTE PTR [rax]
	mov	rcx, QWORD PTR _t$1[rsp]
	call	?on_checkBox_C6_clicked@CLineCameraManagerUI@@QEAAX_N@Z ; CLineCameraManagerUI::on_checkBox_C6_clicked
	jmp	$LN2@qt_static_
$LN36@qt_static_:
; Line 240
	mov	eax, 8
	imul	rax, rax, 1
	mov	rcx, QWORD PTR _a$[rsp]
	mov	rax, QWORD PTR [rcx+rax]
	movzx	edx, BYTE PTR [rax]
	mov	rcx, QWORD PTR _t$1[rsp]
	call	?on_checkBox_C7_clicked@CLineCameraManagerUI@@QEAAX_N@Z ; CLineCameraManagerUI::on_checkBox_C7_clicked
	jmp	$LN2@qt_static_
$LN37@qt_static_:
; Line 241
	mov	eax, 8
	imul	rax, rax, 1
	mov	rcx, QWORD PTR _a$[rsp]
	mov	rax, QWORD PTR [rcx+rax]
	movzx	edx, BYTE PTR [rax]
	mov	rcx, QWORD PTR _t$1[rsp]
	call	?on_checkBox_C8_clicked@CLineCameraManagerUI@@QEAAX_N@Z ; CLineCameraManagerUI::on_checkBox_C8_clicked
	jmp	$LN2@qt_static_
$LN38@qt_static_:
; Line 242
	mov	eax, 8
	imul	rax, rax, 1
	mov	rcx, QWORD PTR _a$[rsp]
	mov	rax, QWORD PTR [rcx+rax]
	movzx	edx, BYTE PTR [rax]
	mov	rcx, QWORD PTR _t$1[rsp]
	call	?on_pushButton_test_clicked@CLineCameraManagerUI@@QEAAX_N@Z ; CLineCameraManagerUI::on_pushButton_test_clicked
	jmp	SHORT $LN2@qt_static_
$LN39@qt_static_:
; Line 243
	mov	eax, 8
	imul	rax, rax, 1
	mov	rcx, QWORD PTR _a$[rsp]
	mov	rax, QWORD PTR [rcx+rax]
	movzx	edx, BYTE PTR [rax]
	mov	rcx, QWORD PTR _t$1[rsp]
	call	?on_pushButton_calib_clicked@CLineCameraManagerUI@@QEAAX_N@Z ; CLineCameraManagerUI::on_pushButton_calib_clicked
	jmp	SHORT $LN2@qt_static_
$LN40@qt_static_:
; Line 244
	mov	eax, 8
	imul	rax, rax, 1
	mov	rcx, QWORD PTR _a$[rsp]
	mov	rax, QWORD PTR [rcx+rax]
	movzx	edx, BYTE PTR [rax]
	mov	rcx, QWORD PTR _t$1[rsp]
	call	?on_pushButton_signal_clicked@CLineCameraManagerUI@@QEAAX_N@Z ; CLineCameraManagerUI::on_pushButton_signal_clicked
	jmp	SHORT $LN2@qt_static_
$LN41@qt_static_:
; Line 245
	mov	eax, 8
	imul	rax, rax, 1
	mov	rcx, QWORD PTR _a$[rsp]
	mov	rax, QWORD PTR [rcx+rax]
	movzx	edx, BYTE PTR [rax]
	mov	rcx, QWORD PTR _t$1[rsp]
	call	?on_pushButton_calib_pluse_ratio_clicked@CLineCameraManagerUI@@QEAAX_N@Z ; CLineCameraManagerUI::on_pushButton_calib_pluse_ratio_clicked
$LN42@qt_static_:
$LN2@qt_static_:
; Line 248
	jmp	$LN5@qt_static_
$LN4@qt_static_:
	cmp	DWORD PTR _c$[rsp], 10
	jne	$LN43@qt_static_
; Line 249
	mov	eax, 8
	imul	rax, rax, 0
	mov	rcx, QWORD PTR _a$[rsp]
	mov	rax, QWORD PTR [rcx+rax]
	mov	QWORD PTR result$2[rsp], rax
; Line 252
	lea	rax, OFFSET FLAT:?signalShowImage@CLineCameraManagerUI@@QEAAXXZ ; CLineCameraManagerUI::signalShowImage
	mov	QWORD PTR $T3[rsp], rax
	mov	DWORD PTR $T3[rsp+8], 0
	mov	eax, 8
	imul	rax, rax, 1
	mov	rcx, QWORD PTR _a$[rsp]
	mov	rax, QWORD PTR [rcx+rax]
	mov	rcx, QWORD PTR $T3[rsp]
	cmp	QWORD PTR [rax], rcx
	jne	SHORT $LN50@qt_static_
	mov	eax, 8
	imul	rax, rax, 1
	mov	rcx, QWORD PTR _a$[rsp]
	mov	rax, QWORD PTR [rcx+rax]
	cmp	QWORD PTR [rax], 0
	je	SHORT $LN49@qt_static_
	mov	eax, 8
	imul	rax, rax, 1
	mov	rcx, QWORD PTR _a$[rsp]
	mov	rax, QWORD PTR [rcx+rax]
	mov	ecx, DWORD PTR $T3[rsp+8]
	cmp	DWORD PTR [rax+8], ecx
	jne	SHORT $LN50@qt_static_
$LN49@qt_static_:
	mov	DWORD PTR tv227[rsp], 1
	jmp	SHORT $LN51@qt_static_
$LN50@qt_static_:
	mov	DWORD PTR tv227[rsp], 0
$LN51@qt_static_:
	cmp	DWORD PTR tv227[rsp], 0
	je	SHORT $LN44@qt_static_
; Line 253
	mov	rax, QWORD PTR result$2[rsp]
	mov	DWORD PTR [rax], 0
; Line 254
	jmp	$LN1@qt_static_
$LN44@qt_static_:
; Line 259
	lea	rax, OFFSET FLAT:?signalUpdateUI@CLineCameraManagerUI@@QEAAXXZ ; CLineCameraManagerUI::signalUpdateUI
	mov	QWORD PTR $T4[rsp], rax
	mov	DWORD PTR $T4[rsp+8], 0
	mov	eax, 8
	imul	rax, rax, 1
	mov	rcx, QWORD PTR _a$[rsp]
	mov	rax, QWORD PTR [rcx+rax]
	mov	rcx, QWORD PTR $T4[rsp]
	cmp	QWORD PTR [rax], rcx
	jne	SHORT $LN53@qt_static_
	mov	eax, 8
	imul	rax, rax, 1
	mov	rcx, QWORD PTR _a$[rsp]
	mov	rax, QWORD PTR [rcx+rax]
	cmp	QWORD PTR [rax], 0
	je	SHORT $LN52@qt_static_
	mov	eax, 8
	imul	rax, rax, 1
	mov	rcx, QWORD PTR _a$[rsp]
	mov	rax, QWORD PTR [rcx+rax]
	mov	ecx, DWORD PTR $T4[rsp+8]
	cmp	DWORD PTR [rax+8], ecx
	jne	SHORT $LN53@qt_static_
$LN52@qt_static_:
	mov	DWORD PTR tv241[rsp], 1
	jmp	SHORT $LN54@qt_static_
$LN53@qt_static_:
	mov	DWORD PTR tv241[rsp], 0
$LN54@qt_static_:
	cmp	DWORD PTR tv241[rsp], 0
	je	SHORT $LN45@qt_static_
; Line 260
	mov	rax, QWORD PTR result$2[rsp]
	mov	DWORD PTR [rax], 1
; Line 261
	jmp	$LN1@qt_static_
$LN45@qt_static_:
; Line 266
	lea	rax, OFFSET FLAT:?signalCancelWait@CLineCameraManagerUI@@QEAAXXZ ; CLineCameraManagerUI::signalCancelWait
	mov	QWORD PTR $T5[rsp], rax
	mov	DWORD PTR $T5[rsp+8], 0
	mov	eax, 8
	imul	rax, rax, 1
	mov	rcx, QWORD PTR _a$[rsp]
	mov	rax, QWORD PTR [rcx+rax]
	mov	rcx, QWORD PTR $T5[rsp]
	cmp	QWORD PTR [rax], rcx
	jne	SHORT $LN56@qt_static_
	mov	eax, 8
	imul	rax, rax, 1
	mov	rcx, QWORD PTR _a$[rsp]
	mov	rax, QWORD PTR [rcx+rax]
	cmp	QWORD PTR [rax], 0
	je	SHORT $LN55@qt_static_
	mov	eax, 8
	imul	rax, rax, 1
	mov	rcx, QWORD PTR _a$[rsp]
	mov	rax, QWORD PTR [rcx+rax]
	mov	ecx, DWORD PTR $T5[rsp+8]
	cmp	DWORD PTR [rax+8], ecx
	jne	SHORT $LN56@qt_static_
$LN55@qt_static_:
	mov	DWORD PTR tv255[rsp], 1
	jmp	SHORT $LN57@qt_static_
$LN56@qt_static_:
	mov	DWORD PTR tv255[rsp], 0
$LN57@qt_static_:
	cmp	DWORD PTR tv255[rsp], 0
	je	SHORT $LN46@qt_static_
; Line 267
	mov	rax, QWORD PTR result$2[rsp]
	mov	DWORD PTR [rax], 2
; Line 268
	jmp	$LN1@qt_static_
$LN46@qt_static_:
; Line 273
	lea	rax, OFFSET FLAT:?signalFinished@CLineCameraManagerUI@@QEAAXXZ ; CLineCameraManagerUI::signalFinished
	mov	QWORD PTR $T6[rsp], rax
	mov	DWORD PTR $T6[rsp+8], 0
	mov	eax, 8
	imul	rax, rax, 1
	mov	rcx, QWORD PTR _a$[rsp]
	mov	rax, QWORD PTR [rcx+rax]
	mov	rcx, QWORD PTR $T6[rsp]
	cmp	QWORD PTR [rax], rcx
	jne	SHORT $LN59@qt_static_
	mov	eax, 8
	imul	rax, rax, 1
	mov	rcx, QWORD PTR _a$[rsp]
	mov	rax, QWORD PTR [rcx+rax]
	cmp	QWORD PTR [rax], 0
	je	SHORT $LN58@qt_static_
	mov	eax, 8
	imul	rax, rax, 1
	mov	rcx, QWORD PTR _a$[rsp]
	mov	rax, QWORD PTR [rcx+rax]
	mov	ecx, DWORD PTR $T6[rsp+8]
	cmp	DWORD PTR [rax+8], ecx
	jne	SHORT $LN59@qt_static_
$LN58@qt_static_:
	mov	DWORD PTR tv269[rsp], 1
	jmp	SHORT $LN60@qt_static_
$LN59@qt_static_:
	mov	DWORD PTR tv269[rsp], 0
$LN60@qt_static_:
	cmp	DWORD PTR tv269[rsp], 0
	je	SHORT $LN47@qt_static_
; Line 274
	mov	rax, QWORD PTR result$2[rsp]
	mov	DWORD PTR [rax], 3
$LN47@qt_static_:
$LN43@qt_static_:
$LN5@qt_static_:
$LN1@qt_static_:
; Line 279
	add	rsp, 152				; 00000098H
	ret	0
	npad	1
$LN61@qt_static_:
	DD	$LN6@qt_static_
	DD	$LN7@qt_static_
	DD	$LN8@qt_static_
	DD	$LN9@qt_static_
	DD	$LN10@qt_static_
	DD	$LN11@qt_static_
	DD	$LN12@qt_static_
	DD	$LN13@qt_static_
	DD	$LN14@qt_static_
	DD	$LN15@qt_static_
	DD	$LN16@qt_static_
	DD	$LN17@qt_static_
	DD	$LN18@qt_static_
	DD	$LN19@qt_static_
	DD	$LN20@qt_static_
	DD	$LN21@qt_static_
	DD	$LN22@qt_static_
	DD	$LN23@qt_static_
	DD	$LN24@qt_static_
	DD	$LN25@qt_static_
	DD	$LN26@qt_static_
	DD	$LN27@qt_static_
	DD	$LN28@qt_static_
	DD	$LN29@qt_static_
	DD	$LN30@qt_static_
	DD	$LN31@qt_static_
	DD	$LN32@qt_static_
	DD	$LN33@qt_static_
	DD	$LN34@qt_static_
	DD	$LN35@qt_static_
	DD	$LN36@qt_static_
	DD	$LN37@qt_static_
	DD	$LN38@qt_static_
	DD	$LN39@qt_static_
	DD	$LN40@qt_static_
	DD	$LN41@qt_static_
?qt_static_metacall@CLineCameraManagerUI@@CAXPEAVQObject@@W4Call@QMetaObject@@HPEAPEAX@Z ENDP ; CLineCameraManagerUI::qt_static_metacall
_TEXT	ENDS
; Function compile flags: /Odtp
_TEXT	SEGMENT
this$ = 48
_c$ = 56
_id$ = 64
_a$ = 72
?qt_metacall@CLineCameraManagerUI@@UEAAHW4Call@QMetaObject@@HPEAPEAX@Z PROC ; CLineCameraManagerUI::qt_metacall
; File e:\g12_work\weidali_code\b\g12_4_b\ui\src\linecamerasettingui\x64\debug\moc\moc_linecameramanagerui.cpp
; Line 301
$LN9:
	mov	QWORD PTR [rsp+32], r9
	mov	DWORD PTR [rsp+24], r8d
	mov	DWORD PTR [rsp+16], edx
	mov	QWORD PTR [rsp+8], rcx
	sub	rsp, 40					; 00000028H
; Line 302
	mov	r9, QWORD PTR _a$[rsp]
	mov	r8d, DWORD PTR _id$[rsp]
	mov	edx, DWORD PTR _c$[rsp]
	mov	rcx, QWORD PTR this$[rsp]
	call	QWORD PTR __imp_?qt_metacall@QWidget@@UEAAHW4Call@QMetaObject@@HPEAPEAX@Z
	mov	DWORD PTR _id$[rsp], eax
; Line 303
	cmp	DWORD PTR _id$[rsp], 0
	jge	SHORT $LN2@qt_metacal
; Line 304
	mov	eax, DWORD PTR _id$[rsp]
	jmp	SHORT $LN1@qt_metacal
$LN2@qt_metacal:
; Line 305
	cmp	DWORD PTR _c$[rsp], 0
	jne	SHORT $LN3@qt_metacal
; Line 306
	cmp	DWORD PTR _id$[rsp], 36			; 00000024H
	jge	SHORT $LN5@qt_metacal
; Line 307
	mov	r9, QWORD PTR _a$[rsp]
	mov	r8d, DWORD PTR _id$[rsp]
	mov	edx, DWORD PTR _c$[rsp]
	mov	rcx, QWORD PTR this$[rsp]
	call	?qt_static_metacall@CLineCameraManagerUI@@CAXPEAVQObject@@W4Call@QMetaObject@@HPEAPEAX@Z ; CLineCameraManagerUI::qt_static_metacall
$LN5@qt_metacal:
; Line 308
	mov	eax, DWORD PTR _id$[rsp]
	sub	eax, 36					; 00000024H
	mov	DWORD PTR _id$[rsp], eax
	jmp	SHORT $LN4@qt_metacal
$LN3@qt_metacal:
; Line 309
	cmp	DWORD PTR _c$[rsp], 12
	jne	SHORT $LN6@qt_metacal
; Line 310
	cmp	DWORD PTR _id$[rsp], 36			; 00000024H
	jge	SHORT $LN7@qt_metacal
; Line 311
	mov	eax, 8
	imul	rax, rax, 0
	mov	rcx, QWORD PTR _a$[rsp]
	mov	rax, QWORD PTR [rcx+rax]
	mov	DWORD PTR [rax], -1
$LN7@qt_metacal:
; Line 312
	mov	eax, DWORD PTR _id$[rsp]
	sub	eax, 36					; 00000024H
	mov	DWORD PTR _id$[rsp], eax
$LN6@qt_metacal:
$LN4@qt_metacal:
; Line 314
	mov	eax, DWORD PTR _id$[rsp]
$LN1@qt_metacal:
; Line 315
	add	rsp, 40					; 00000028H
	ret	0
?qt_metacall@CLineCameraManagerUI@@UEAAHW4Call@QMetaObject@@HPEAPEAX@Z ENDP ; CLineCameraManagerUI::qt_metacall
_TEXT	ENDS
; Function compile flags: /Odtp
_TEXT	SEGMENT
this$ = 48
_clname$ = 56
?qt_metacast@CLineCameraManagerUI@@UEAAPEAXPEBD@Z PROC	; CLineCameraManagerUI::qt_metacast
; File e:\g12_work\weidali_code\b\g12_4_b\ui\src\linecamerasettingui\x64\debug\moc\moc_linecameramanagerui.cpp
; Line 293
$LN5:
	mov	QWORD PTR [rsp+16], rdx
	mov	QWORD PTR [rsp+8], rcx
	sub	rsp, 40					; 00000028H
; Line 294
	cmp	QWORD PTR _clname$[rsp], 0
	jne	SHORT $LN2@qt_metacas
	xor	eax, eax
	jmp	SHORT $LN1@qt_metacas
$LN2@qt_metacas:
; Line 295
	lea	rdx, OFFSET FLAT:?qt_meta_stringdata_CLineCameraManagerUI@@3Uqt_meta_stringdata_CLineCameraManagerUI_t@@B+1008
	mov	rcx, QWORD PTR _clname$[rsp]
	call	strcmp
	test	eax, eax
	jne	SHORT $LN3@qt_metacas
; Line 296
	mov	rax, QWORD PTR this$[rsp]
	jmp	SHORT $LN1@qt_metacas
$LN3@qt_metacas:
; Line 297
	mov	rdx, QWORD PTR _clname$[rsp]
	mov	rcx, QWORD PTR this$[rsp]
	call	QWORD PTR __imp_?qt_metacast@QWidget@@UEAAPEAXPEBD@Z
$LN1@qt_metacas:
; Line 298
	add	rsp, 40					; 00000028H
	ret	0
?qt_metacast@CLineCameraManagerUI@@UEAAPEAXPEBD@Z ENDP	; CLineCameraManagerUI::qt_metacast
_TEXT	ENDS
; Function compile flags: /Odtp
_TEXT	SEGMENT
tv82 = 32
this$ = 64
?metaObject@CLineCameraManagerUI@@UEBAPEBUQMetaObject@@XZ PROC ; CLineCameraManagerUI::metaObject
; File e:\g12_work\weidali_code\b\g12_4_b\ui\src\linecamerasettingui\x64\debug\moc\moc_linecameramanagerui.cpp
; Line 288
$LN5:
	mov	QWORD PTR [rsp+8], rcx
	sub	rsp, 56					; 00000038H
; Line 289
	mov	rax, QWORD PTR this$[rsp]
	add	rax, 8
	mov	rcx, rax
	call	??C?$QScopedPointer@VQObjectData@@U?$QScopedPointerDeleter@VQObjectData@@@@@@QEBAPEAVQObjectData@@XZ ; QScopedPointer<QObjectData,QScopedPointerDeleter<QObjectData> >::operator->
	cmp	QWORD PTR [rax+40], 0
	je	SHORT $LN3@metaObject
	mov	rax, QWORD PTR this$[rsp]
	add	rax, 8
	mov	rcx, rax
	call	??C?$QScopedPointer@VQObjectData@@U?$QScopedPointerDeleter@VQObjectData@@@@@@QEBAPEAVQObjectData@@XZ ; QScopedPointer<QObjectData,QScopedPointerDeleter<QObjectData> >::operator->
	mov	rcx, rax
	call	QWORD PTR __imp_?dynamicMetaObject@QObjectData@@QEBAPEAUQMetaObject@@XZ
	mov	QWORD PTR tv82[rsp], rax
	jmp	SHORT $LN4@metaObject
$LN3@metaObject:
	lea	rax, OFFSET FLAT:?staticMetaObject@CLineCameraManagerUI@@2UQMetaObject@@B ; CLineCameraManagerUI::staticMetaObject
	mov	QWORD PTR tv82[rsp], rax
$LN4@metaObject:
	mov	rax, QWORD PTR tv82[rsp]
; Line 290
	add	rsp, 56					; 00000038H
	ret	0
?metaObject@CLineCameraManagerUI@@UEBAPEBUQMetaObject@@XZ ENDP ; CLineCameraManagerUI::metaObject
_TEXT	ENDS
; Function compile flags: /Odtp
;	COMDAT ??C?$QScopedPointer@VQObjectData@@U?$QScopedPointerDeleter@VQObjectData@@@@@@QEBAPEAVQObjectData@@XZ
_TEXT	SEGMENT
this$ = 8
??C?$QScopedPointer@VQObjectData@@U?$QScopedPointerDeleter@VQObjectData@@@@@@QEBAPEAVQObjectData@@XZ PROC ; QScopedPointer<QObjectData,QScopedPointerDeleter<QObjectData> >::operator->, COMDAT
; File c:\qt\qt5.9.3\5.9.3\msvc2015_64\include\qtcore\qscopedpointer.h
; Line 117
	mov	QWORD PTR [rsp+8], rcx
; Line 118
	mov	rax, QWORD PTR this$[rsp]
	mov	rax, QWORD PTR [rax]
; Line 119
	ret	0
??C?$QScopedPointer@VQObjectData@@U?$QScopedPointerDeleter@VQObjectData@@@@@@QEBAPEAVQObjectData@@XZ ENDP ; QScopedPointer<QObjectData,QScopedPointerDeleter<QObjectData> >::operator->
_TEXT	ENDS
; Function compile flags: /Odtp
;	COMDAT ?__empty_global_delete@@YAXPEAX_K@Z
_TEXT	SEGMENT
__formal$ = 8
__formal$ = 16
?__empty_global_delete@@YAXPEAX_K@Z PROC		; __empty_global_delete, COMDAT
; File e:\g12_work\weidali_code\b\g12_4_b\ui\src\linecamerasettingui\x64\debug\moc\moc_linecameramanagerui.cpp
; Line 342
	mov	QWORD PTR [rsp+16], rdx
	mov	QWORD PTR [rsp+8], rcx
	ret	0
?__empty_global_delete@@YAXPEAX_K@Z ENDP		; __empty_global_delete
_TEXT	ENDS
; Function compile flags: /Odtp
;	COMDAT ?__empty_global_delete@@YAXPEAX@Z
_TEXT	SEGMENT
__formal$ = 8
?__empty_global_delete@@YAXPEAX@Z PROC			; __empty_global_delete, COMDAT
; File e:\g12_work\weidali_code\b\g12_4_b\ui\src\linecamerasettingui\x64\debug\moc\moc_linecameramanagerui.cpp
; Line 342
	mov	QWORD PTR [rsp+8], rcx
	ret	0
?__empty_global_delete@@YAXPEAX@Z ENDP			; __empty_global_delete
_TEXT	ENDS
END
