; Listing generated by Microsoft (R) Optimizing Compiler Version 19.00.24215.1 

include listing.inc

INCLUDELIB MSVCRTD
INCLUDELIB OLDNAMES

PUBLIC	?staticMetaObject@GeneralPage@@2UQMetaObject@@B	; GeneralPage::staticMetaObject
PUBLIC	?qt_static_metacall@GeneralPage@@CAXPEAVQObject@@W4Call@QMetaObject@@HPEAPEAX@Z ; GeneralPage::qt_static_metacall
PUBLIC	?staticMetaObject@QualificationPage@@2UQMetaObject@@B ; QualificationPage::staticMetaObject
PUBLIC	?qt_static_metacall@QualificationPage@@CAXPEAVQObject@@W4Call@QMetaObject@@HPEAPEAX@Z ; QualificationPage::qt_static_metacall
PUBLIC	?staticMetaObject@DefectQualificationPage@@2UQMetaObject@@B ; DefectQualificationPage::staticMetaObject
PUBLIC	?qt_static_metacall@DefectQualificationPage@@CAXPEAVQObject@@W4Call@QMetaObject@@HPEAPEAX@Z ; DefectQualificationPage::qt_static_metacall
EXTRN	?staticMetaObject@AbstractPageWidget@@2UQMetaObject@@B:BYTE ; AbstractPageWidget::staticMetaObject
_DATA	SEGMENT
?szdefectTypeEn@@3PAPEBDA DQ FLAT:$SG117034		; szdefectTypeEn
	DQ	FLAT:$SG117035
	DQ	FLAT:$SG117036
	DQ	FLAT:$SG117037
	DQ	FLAT:$SG117038
	DQ	FLAT:$SG117039
	DQ	FLAT:$SG117040
	DQ	FLAT:$SG117041
	DQ	FLAT:$SG117042
	DQ	FLAT:$SG117043
	DQ	FLAT:$SG117044
	DQ	FLAT:$SG117045
	DQ	FLAT:$SG117046
	DQ	FLAT:$SG117047
	DQ	FLAT:$SG117048
	DQ	FLAT:$SG117049
	DQ	FLAT:$SG117050
	DQ	FLAT:$SG117051
	DQ	FLAT:$SG117052
	DQ	FLAT:$SG117053
	DQ	FLAT:$SG117054
	DQ	FLAT:$SG117055
?szdefectTypeCn@@3PAPEBDA DQ FLAT:$SG117057		; szdefectTypeCn
	DQ	FLAT:$SG117058
	DQ	FLAT:$SG117059
	DQ	FLAT:$SG117060
	DQ	FLAT:$SG117061
	DQ	FLAT:$SG117062
	DQ	FLAT:$SG117063
	DQ	FLAT:$SG117064
	DQ	FLAT:$SG117065
	DQ	FLAT:$SG117066
	DQ	FLAT:$SG117067
	DQ	FLAT:$SG117068
	DQ	FLAT:$SG117069
	DQ	FLAT:$SG117070
	DQ	FLAT:$SG117071
	DQ	FLAT:$SG117072
	DQ	FLAT:$SG117073
	DQ	FLAT:$SG117074
	DQ	FLAT:$SG117075
	DQ	FLAT:$SG117076
	DQ	FLAT:$SG117077
	DQ	FLAT:$SG117078
?g_strTableTitle@@3PEBDEB DQ FLAT:$SG117080		; g_strTableTitle
?g_strFlag@@3PAPEBDA DQ FLAT:$SG117082			; g_strFlag
	DQ	FLAT:$SG117083
?szFilterTypeEn@@3PAPEBDA DQ FLAT:$SG117391		; szFilterTypeEn
	DQ	FLAT:$SG117392
	DQ	FLAT:$SG117393
?szFilterTypeCn@@3PAPEBDA DQ FLAT:$SG117395		; szFilterTypeCn
	DQ	FLAT:$SG117396
	DQ	FLAT:$SG117397
_DATA	ENDS
CONST	SEGMENT
$SG140503 DB	'C:\Qt\Qt5.9.3\5.9.3\msvc2015_64\include\QtCore/qmetatype'
	DB	'.h', 00H
	ORG $+5
$SG140504 DB	'qRegisterNormalizedMetaType was called with a not normal'
	DB	'ized type name, please call qRegisterMetaType instead.', 00H
	ORG $+1
$SG140505 DB	'qRegisterNormalizedMetaType', 00H
$SG117034 DB	'OK', 00H
	ORG $+1
?staticMetaObject@GeneralPage@@2UQMetaObject@@B DQ FLAT:?staticMetaObject@AbstractPageWidget@@2UQMetaObject@@B ; GeneralPage::staticMetaObject
	DQ	FLAT:?qt_meta_stringdata_GeneralPage@@3Uqt_meta_stringdata_GeneralPage_t@@B
	DQ	FLAT:?qt_meta_data_GeneralPage@@3QBIB
	DQ	FLAT:?qt_static_metacall@GeneralPage@@CAXPEAVQObject@@W4Call@QMetaObject@@HPEAPEAX@Z
	DQ	0000000000000000H
	DQ	0000000000000000H
$SG117035 DB	'LightLeak', 00H
	ORG $+2
$SG117039 DB	'Smirch', 00H
	ORG $+1
$SG117057 DB	'OK', 00H
	ORG $+1
$SG117036 DB	'ExcessInk', 00H
	ORG $+2
$SG117052 DB	'MarkNg', 00H
	ORG $+5
$SG117037 DB	'Discolouration', 00H
	ORG $+1
$SG117038 DB	'SawEgdge', 00H
	ORG $+7
$SG117040 DB	'AccuLnk', 00H
$SG117041 DB	'DistHole', 00H
	ORG $+7
$SG117042 DB	'MisPrint', 00H
	ORG $+7
$SG117043 DB	'Scratches', 00H
	ORG $+2
$SG117044 DB	'Chips', 00H
	ORG $+2
$SG117045 DB	'Dent', 00H
	ORG $+7
$SG117046 DB	'Impress', 00H
$SG117047 DB	'Ripples', 00H
$SG117048 DB	'FalseSmirch', 00H
	ORG $+4
$SG117049 DB	'FalseScratches', 00H
	ORG $+1
$SG117050 DB	'PolishingBadness', 00H
	ORG $+7
$SG117051 DB	'BrightLine', 00H
	ORG $+5
$SG117053 DB	'ForeignMatter', 00H
	ORG $+2
$SG117054 DB	'Hair', 00H
	ORG $+3
$SG117055 DB	'Dirtpits', 00H
	ORG $+3
$SG117058 DB	0c2H, 0a9H, 0b9H, 0e2H, 00H
	ORG $+3
$SG117059 DB	0d2H, 0e7H, 0c4H, 0abH, 00H
	ORG $+3
$SG117060 DB	0d2H, 0ecH, 0c9H, 0abH, 00H
	ORG $+3
$SG117061 DB	0beH, 0e2H, 0b3H, 0ddH, 00H
	ORG $+3
$SG117062 DB	0d4H, 0e0H, 0ceH, 0dbH, 00H
	ORG $+7
$SG117063 DB	0d3H, 0cdH, 0c4H, 0abH, 0b6H, 0d1H, 0bbH, 0fdH, 00H
	ORG $+3
$SG117064 DB	0bfH, 0d7H, 0b1H, 0e4H, 0d0H, 0ceH, 00H
	ORG $+1
$SG117065 DB	0c2H, 0a9H, 0d3H, 0a1H, 00H
	ORG $+3
$SG117066 DB	0b9H, 0ceH, 0c9H, 0cbH, 00H
	ORG $+3
$SG117067 DB	0b1H, 0c0H, 0b1H, 0dfH, 00H
	ORG $+3
$SG117068 DB	0b0H, 0bcH, 0cdH, 0b9H, 0b5H, 0e3H, 00H
	ORG $+1
$SG117069 DB	0d1H, 0b9H, 0baH, 0dbH, 00H
	ORG $+3
$SG117070 DB	0cbH, 0aeH, 0b2H, 0a8H, 0ceH, 0c6H, 00H
	ORG $+5
$SG117071 DB	0c4H, 0a3H, 0baH, 0fdH, 0d4H, 0e0H, 0ceH, 0dbH, 00H
	ORG $+7
$SG117072 DB	0c4H, 0a3H, 0baH, 0fdH, 0b9H, 0ceH, 0c9H, 0cbH, 00H
	ORG $+7
$SG117073 DB	0c9H, 0a8H, 0b9H, 0e2H, 0b2H, 0bbH, 0c1H, 0bcH, 00H
	ORG $+3
$SG117074 DB	0c9H, 0eeH, 0bbH, 0aeH, 00H
	ORG $+7
$SG117075 DB	'mark', 0cfH, 0dfH, 0b2H, 0bbH, 0c1H, 0bcH, 00H
	ORG $+1
$SG117076 DB	0d2H, 0ecH, 0ceH, 0efH, 00H
	ORG $+3
$SG117077 DB	0c3H, 0abH, 0b7H, 0a2H, 00H
	ORG $+3
$SG117078 DB	0b3H, 0beH, 0b5H, 0e3H, 00H
	ORG $+3
$SG117082 DB	0b1H, 0dfH, 0d4H, 0b5H, 00H
	ORG $+7
$SG117080 DB	0cdH, 0a8H, 0b5H, 0c0H, ',', 0d0H, 0f2H, 0c1H, 0d0H, ',', 0b5H
	DB	0c8H, 0bcH, 0b6H, ',Size,', 0c0H, 0e0H, 0d0H, 0cdH, ',', 0c7H, 0f8H
	DB	0d3H, 0f2H, ',', 0b6H, 0d4H, 0b1H, 0c8H, 0b6H, 0c8H, ',', 0b7H
	DB	0d6H, 0caH, 0fdH, ',', 0bbH, 0d2H, 0b6H, 0c8H, ',', 0bfH, 0edH
	DB	0b6H, 0c8H, ',', 0b8H, 0dfH, 0b6H, 0c8H, ',X,Y,', 0c8H, 0b1H, 0cfH
	DB	0ddH, 0c0H, 0b4H, 0d4H, 0b4H, 00H
	ORG $+2
$SG117083 DB	0caH, 0d3H, 0b4H, 0b0H, 00H
	ORG $+3
?qt_meta_stringdata_QualificationPage@@3Uqt_meta_stringdata_QualificationPage_t@@B DD 0ffffffffH ; qt_meta_stringdata_QualificationPage
	DD	011H
	DD	00H
	ORG $+4
	DQ	0000000000000060H
	DD	0ffffffffH
	DD	011H
	DD	00H
	ORG $+4
	DQ	000000000000005aH
	DD	0ffffffffH
	DD	00H
	DD	00H
	ORG $+4
	DQ	0000000000000054H
	DD	0ffffffffH
	DD	05H
	DD	00H
	ORG $+4
	DQ	000000000000003dH
	DB	'QualificationPage', 00H, 'on_currentChanged', 00H, 00H, 'i'
	DB	'ndex', 00H
	ORG $+5
$SG141664 DB	'C:\Qt\Qt5.9.3\5.9.3\msvc2015_64\include\QtCore/qmetatype'
	DB	'.h', 00H
	ORG $+5
$SG141665 DB	'qRegisterNormalizedMetaType was called with a not normal'
	DB	'ized type name, please call qRegisterMetaType instead.', 00H
	ORG $+1
$SG141666 DB	'qRegisterNormalizedMetaType', 00H
	ORG $+4
?qt_meta_data_QualificationPage@@3QBIB DD 07H		; qt_meta_data_QualificationPage
	DD	00H
	DD	00H
	DD	00H
	DD	01H
	DD	0eH
	DD	00H
	DD	00H
	DD	00H
	DD	00H
	DD	00H
	DD	00H
	DD	00H
	DD	00H
	DD	01H
	DD	01H
	DD	013H
	DD	02H
	DD	08H
	DD	02bH
	DD	02H
	DD	03H
	DD	00H
	ORG $+4
?qt_meta_stringdata_DefectQualificationPage@@3Uqt_meta_stringdata_DefectQualificationPage_t@@B DD 0ffffffffH ; qt_meta_stringdata_DefectQualificationPage
	DD	017H
	DD	00H
	ORG $+4
	DQ	0000000000000048H
	DD	0ffffffffH
	DD	09H
	DD	00H
	ORG $+4
	DQ	0000000000000048H
	DD	0ffffffffH
	DD	00H
	DD	00H
	ORG $+4
	DQ	000000000000003aH
	DB	'DefectQualificationPage', 00H, 'slot_test', 00H, 00H
	ORG $+5
?qt_meta_data_DefectQualificationPage@@3QBIB DD 07H	; qt_meta_data_DefectQualificationPage
	DD	00H
	DD	00H
	DD	00H
	DD	01H
	DD	0eH
	DD	00H
	DD	00H
	DD	00H
	DD	00H
	DD	00H
	DD	00H
	DD	00H
	DD	00H
	DD	01H
	DD	00H
	DD	013H
	DD	02H
	DD	08H
	DD	02bH
	DD	00H
	ORG $+4
$SG140813 DB	'C:\Qt\Qt5.9.3\5.9.3\msvc2015_64\include\QtCore/qmetatype'
	DB	'.h', 00H
	ORG $+5
$SG140815 DB	'qRegisterNormalizedMetaType', 00H
$SG117391 DB	'Area', 00H
	ORG $+7
$SG140814 DB	'qRegisterNormalizedMetaType was called with a not normal'
	DB	'ized type name, please call qRegisterMetaType instead.', 00H
	ORG $+1
?qt_meta_stringdata_GeneralPage@@3Uqt_meta_stringdata_GeneralPage_t@@B DD 0ffffffffH ; qt_meta_stringdata_GeneralPage
	DD	0bH
	DD	00H
	ORG $+4
	DQ	0000000000000018H
	DB	'GeneralPage', 00H
	ORG $+4
?qt_meta_data_GeneralPage@@3QBIB DD 07H			; qt_meta_data_GeneralPage
	DD	00H
	DD	00H
	DD	00H
	DD	00H
	DD	00H
	DD	00H
	DD	00H
	DD	00H
	DD	00H
	DD	00H
	DD	00H
	DD	00H
	DD	00H
	DD	00H
$SG117392 DB	'Score', 00H
	ORG $+6
$SG117393 DB	'Contrast', 00H
	ORG $+3
$SG117395 DB	0c3H, 0e6H, 0bbH, 0fdH, 00H
	ORG $+3
$SG117396 DB	0b5H, 0c3H, 0b7H, 0d6H, 00H
	ORG $+3
$SG117397 DB	0b6H, 0d4H, 0b1H, 0c8H, 0b6H, 0c8H, 00H
	ORG $+5
$SG141974 DB	'C:\Qt\Qt5.9.3\5.9.3\msvc2015_64\include\QtCore/qmetatype'
	DB	'.h', 00H
	ORG $+5
$SG141976 DB	'qRegisterNormalizedMetaType', 00H
	ORG $+12
$SG141975 DB	'qRegisterNormalizedMetaType was called with a not normal'
	DB	'ized type name, please call qRegisterMetaType instead.', 00H
	ORG $+1
$SG143144 DB	'C:\Qt\Qt5.9.3\5.9.3\msvc2015_64\include\QtCore/qmetatype'
	DB	'.h', 00H
	ORG $+5
$SG143145 DB	'qRegisterNormalizedMetaType was called with a not normal'
	DB	'ized type name, please call qRegisterMetaType instead.', 00H
	ORG $+1
$SG143146 DB	'qRegisterNormalizedMetaType', 00H
	ORG $+4
?staticMetaObject@QualificationPage@@2UQMetaObject@@B DQ FLAT:?staticMetaObject@AbstractPageWidget@@2UQMetaObject@@B ; QualificationPage::staticMetaObject
	DQ	FLAT:?qt_meta_stringdata_QualificationPage@@3Uqt_meta_stringdata_QualificationPage_t@@B
	DQ	FLAT:?qt_meta_data_QualificationPage@@3QBIB
	DQ	FLAT:?qt_static_metacall@QualificationPage@@CAXPEAVQObject@@W4Call@QMetaObject@@HPEAPEAX@Z
	DQ	0000000000000000H
	DQ	0000000000000000H
?staticMetaObject@DefectQualificationPage@@2UQMetaObject@@B DQ FLAT:?staticMetaObject@AbstractPageWidget@@2UQMetaObject@@B ; DefectQualificationPage::staticMetaObject
	DQ	FLAT:?qt_meta_stringdata_DefectQualificationPage@@3Uqt_meta_stringdata_DefectQualificationPage_t@@B
	DQ	FLAT:?qt_meta_data_DefectQualificationPage@@3QBIB
	DQ	FLAT:?qt_static_metacall@DefectQualificationPage@@CAXPEAVQObject@@W4Call@QMetaObject@@HPEAPEAX@Z
	DQ	0000000000000000H
	DQ	0000000000000000H
$SG140193 DB	'C:\Qt\Qt5.9.3\5.9.3\msvc2015_64\include\QtCore/qmetatype'
	DB	'.h', 00H
	ORG $+5
$SG140194 DB	'qRegisterNormalizedMetaType was called with a not normal'
	DB	'ized type name, please call qRegisterMetaType instead.', 00H
	ORG $+1
$SG140195 DB	'qRegisterNormalizedMetaType', 00H
	ORG $+4
$SG142284 DB	'C:\Qt\Qt5.9.3\5.9.3\msvc2015_64\include\QtCore/qmetatype'
	DB	'.h', 00H
	ORG $+5
$SG142285 DB	'qRegisterNormalizedMetaType was called with a not normal'
	DB	'ized type name, please call qRegisterMetaType instead.', 00H
	ORG $+1
$SG142286 DB	'qRegisterNormalizedMetaType', 00H
CONST	ENDS
PUBLIC	?__empty_global_delete@@YAXPEAX@Z		; __empty_global_delete
PUBLIC	?__empty_global_delete@@YAXPEAX_K@Z		; __empty_global_delete
PUBLIC	??C?$QScopedPointer@VQObjectData@@U?$QScopedPointerDeleter@VQObjectData@@@@@@QEBAPEAVQObjectData@@XZ ; QScopedPointer<QObjectData,QScopedPointerDeleter<QObjectData> >::operator->
PUBLIC	?metaObject@QualificationPage@@UEBAPEBUQMetaObject@@XZ ; QualificationPage::metaObject
PUBLIC	?qt_metacast@QualificationPage@@UEAAPEAXPEBD@Z	; QualificationPage::qt_metacast
PUBLIC	?qt_metacall@QualificationPage@@UEAAHW4Call@QMetaObject@@HPEAPEAX@Z ; QualificationPage::qt_metacall
PUBLIC	?metaObject@DefectQualificationPage@@UEBAPEBUQMetaObject@@XZ ; DefectQualificationPage::metaObject
PUBLIC	?qt_metacast@DefectQualificationPage@@UEAAPEAXPEBD@Z ; DefectQualificationPage::qt_metacast
PUBLIC	?qt_metacall@DefectQualificationPage@@UEAAHW4Call@QMetaObject@@HPEAPEAX@Z ; DefectQualificationPage::qt_metacall
PUBLIC	?metaObject@GeneralPage@@UEBAPEBUQMetaObject@@XZ ; GeneralPage::metaObject
PUBLIC	?qt_metacast@GeneralPage@@UEAAPEAXPEBD@Z	; GeneralPage::qt_metacast
PUBLIC	?qt_metacall@GeneralPage@@UEAAHW4Call@QMetaObject@@HPEAPEAX@Z ; GeneralPage::qt_metacall
EXTRN	strcmp:PROC
EXTRN	__imp_?dynamicMetaObject@QObjectData@@QEBAPEAUQMetaObject@@XZ:PROC
EXTRN	?qt_metacast@AbstractPageWidget@@UEAAPEAXPEBD@Z:PROC ; AbstractPageWidget::qt_metacast
EXTRN	?qt_metacall@AbstractPageWidget@@UEAAHW4Call@QMetaObject@@HPEAPEAX@Z:PROC ; AbstractPageWidget::qt_metacall
EXTRN	?on_currentChanged@QualificationPage@@AEAAXH@Z:PROC ; QualificationPage::on_currentChanged
EXTRN	?slot_test@DefectQualificationPage@@AEAAXXZ:PROC ; DefectQualificationPage::slot_test
pdata	SEGMENT
$pdata$?metaObject@QualificationPage@@UEBAPEBUQMetaObject@@XZ DD imagerel $LN5
	DD	imagerel $LN5+88
	DD	imagerel $unwind$?metaObject@QualificationPage@@UEBAPEBUQMetaObject@@XZ
$pdata$?qt_metacast@QualificationPage@@UEAAPEAXPEBD@Z DD imagerel $LN5
	DD	imagerel $LN5+74
	DD	imagerel $unwind$?qt_metacast@QualificationPage@@UEAAPEAXPEBD@Z
$pdata$?qt_metacall@QualificationPage@@UEAAHW4Call@QMetaObject@@HPEAPEAX@Z DD imagerel $LN9
	DD	imagerel $LN9+171
	DD	imagerel $unwind$?qt_metacall@QualificationPage@@UEAAHW4Call@QMetaObject@@HPEAPEAX@Z
$pdata$?qt_static_metacall@QualificationPage@@CAXPEAVQObject@@W4Call@QMetaObject@@HPEAPEAX@Z DD imagerel $LN8
	DD	imagerel $LN8+92
	DD	imagerel $unwind$?qt_static_metacall@QualificationPage@@CAXPEAVQObject@@W4Call@QMetaObject@@HPEAPEAX@Z
$pdata$?metaObject@DefectQualificationPage@@UEBAPEBUQMetaObject@@XZ DD imagerel $LN5
	DD	imagerel $LN5+88
	DD	imagerel $unwind$?metaObject@DefectQualificationPage@@UEBAPEBUQMetaObject@@XZ
$pdata$?qt_metacast@DefectQualificationPage@@UEAAPEAXPEBD@Z DD imagerel $LN5
	DD	imagerel $LN5+74
	DD	imagerel $unwind$?qt_metacast@DefectQualificationPage@@UEAAPEAXPEBD@Z
$pdata$?qt_metacall@DefectQualificationPage@@UEAAHW4Call@QMetaObject@@HPEAPEAX@Z DD imagerel $LN9
	DD	imagerel $LN9+171
	DD	imagerel $unwind$?qt_metacall@DefectQualificationPage@@UEAAHW4Call@QMetaObject@@HPEAPEAX@Z
$pdata$?qt_static_metacall@DefectQualificationPage@@CAXPEAVQObject@@W4Call@QMetaObject@@HPEAPEAX@Z DD imagerel $LN8
	DD	imagerel $LN8+72
	DD	imagerel $unwind$?qt_static_metacall@DefectQualificationPage@@CAXPEAVQObject@@W4Call@QMetaObject@@HPEAPEAX@Z
$pdata$?metaObject@GeneralPage@@UEBAPEBUQMetaObject@@XZ DD imagerel $LN5
	DD	imagerel $LN5+88
	DD	imagerel $unwind$?metaObject@GeneralPage@@UEBAPEBUQMetaObject@@XZ
$pdata$?qt_metacast@GeneralPage@@UEAAPEAXPEBD@Z DD imagerel $LN5
	DD	imagerel $LN5+74
	DD	imagerel $unwind$?qt_metacast@GeneralPage@@UEAAPEAXPEBD@Z
$pdata$?qt_metacall@GeneralPage@@UEAAHW4Call@QMetaObject@@HPEAPEAX@Z DD imagerel $LN3
	DD	imagerel $LN3+60
	DD	imagerel $unwind$?qt_metacall@GeneralPage@@UEAAHW4Call@QMetaObject@@HPEAPEAX@Z
pdata	ENDS
xdata	SEGMENT
$unwind$?metaObject@QualificationPage@@UEBAPEBUQMetaObject@@XZ DD 010901H
	DD	06209H
$unwind$?qt_metacast@QualificationPage@@UEAAPEAXPEBD@Z DD 010e01H
	DD	0420eH
$unwind$?qt_metacall@QualificationPage@@UEAAHW4Call@QMetaObject@@HPEAPEAX@Z DD 011701H
	DD	04217H
$unwind$?qt_static_metacall@QualificationPage@@CAXPEAVQObject@@W4Call@QMetaObject@@HPEAPEAX@Z DD 011701H
	DD	06217H
$unwind$?metaObject@DefectQualificationPage@@UEBAPEBUQMetaObject@@XZ DD 010901H
	DD	06209H
$unwind$?qt_metacast@DefectQualificationPage@@UEAAPEAXPEBD@Z DD 010e01H
	DD	0420eH
$unwind$?qt_metacall@DefectQualificationPage@@UEAAHW4Call@QMetaObject@@HPEAPEAX@Z DD 011701H
	DD	04217H
$unwind$?qt_static_metacall@DefectQualificationPage@@CAXPEAVQObject@@W4Call@QMetaObject@@HPEAPEAX@Z DD 011701H
	DD	06217H
$unwind$?metaObject@GeneralPage@@UEBAPEBUQMetaObject@@XZ DD 010901H
	DD	06209H
$unwind$?qt_metacast@GeneralPage@@UEAAPEAXPEBD@Z DD 010e01H
	DD	0420eH
$unwind$?qt_metacall@GeneralPage@@UEAAHW4Call@QMetaObject@@HPEAPEAX@Z DD 011701H
	DD	04217H
xdata	ENDS
; Function compile flags: /Odtp
_TEXT	SEGMENT
_o$ = 8
_c$ = 16
_id$ = 24
_a$ = 32
?qt_static_metacall@GeneralPage@@CAXPEAVQObject@@W4Call@QMetaObject@@HPEAPEAX@Z PROC ; GeneralPage::qt_static_metacall
; File e:\g12_work\weidali_code\b\g12_4_b\ui\src\recipesuiplugin\x64\debug\moc\pages\moc_qualificationpage.cpp
; Line 239
	mov	QWORD PTR [rsp+32], r9
	mov	DWORD PTR [rsp+24], r8d
	mov	DWORD PTR [rsp+16], edx
	mov	QWORD PTR [rsp+8], rcx
; Line 244
	ret	0
?qt_static_metacall@GeneralPage@@CAXPEAVQObject@@W4Call@QMetaObject@@HPEAPEAX@Z ENDP ; GeneralPage::qt_static_metacall
_TEXT	ENDS
; Function compile flags: /Odtp
_TEXT	SEGMENT
this$ = 48
_c$ = 56
_id$ = 64
_a$ = 72
?qt_metacall@GeneralPage@@UEAAHW4Call@QMetaObject@@HPEAPEAX@Z PROC ; GeneralPage::qt_metacall
; File e:\g12_work\weidali_code\b\g12_4_b\ui\src\recipesuiplugin\x64\debug\moc\pages\moc_qualificationpage.cpp
; Line 266
$LN3:
	mov	QWORD PTR [rsp+32], r9
	mov	DWORD PTR [rsp+24], r8d
	mov	DWORD PTR [rsp+16], edx
	mov	QWORD PTR [rsp+8], rcx
	sub	rsp, 40					; 00000028H
; Line 267
	mov	r9, QWORD PTR _a$[rsp]
	mov	r8d, DWORD PTR _id$[rsp]
	mov	edx, DWORD PTR _c$[rsp]
	mov	rcx, QWORD PTR this$[rsp]
	call	?qt_metacall@AbstractPageWidget@@UEAAHW4Call@QMetaObject@@HPEAPEAX@Z ; AbstractPageWidget::qt_metacall
	mov	DWORD PTR _id$[rsp], eax
; Line 268
	mov	eax, DWORD PTR _id$[rsp]
; Line 269
	add	rsp, 40					; 00000028H
	ret	0
?qt_metacall@GeneralPage@@UEAAHW4Call@QMetaObject@@HPEAPEAX@Z ENDP ; GeneralPage::qt_metacall
_TEXT	ENDS
; Function compile flags: /Odtp
_TEXT	SEGMENT
this$ = 48
_clname$ = 56
?qt_metacast@GeneralPage@@UEAAPEAXPEBD@Z PROC		; GeneralPage::qt_metacast
; File e:\g12_work\weidali_code\b\g12_4_b\ui\src\recipesuiplugin\x64\debug\moc\pages\moc_qualificationpage.cpp
; Line 258
$LN5:
	mov	QWORD PTR [rsp+16], rdx
	mov	QWORD PTR [rsp+8], rcx
	sub	rsp, 40					; 00000028H
; Line 259
	cmp	QWORD PTR _clname$[rsp], 0
	jne	SHORT $LN2@qt_metacas
	xor	eax, eax
	jmp	SHORT $LN1@qt_metacas
$LN2@qt_metacas:
; Line 260
	lea	rdx, OFFSET FLAT:?qt_meta_stringdata_GeneralPage@@3Uqt_meta_stringdata_GeneralPage_t@@B+24
	mov	rcx, QWORD PTR _clname$[rsp]
	call	strcmp
	test	eax, eax
	jne	SHORT $LN3@qt_metacas
; Line 261
	mov	rax, QWORD PTR this$[rsp]
	jmp	SHORT $LN1@qt_metacas
$LN3@qt_metacas:
; Line 262
	mov	rdx, QWORD PTR _clname$[rsp]
	mov	rcx, QWORD PTR this$[rsp]
	call	?qt_metacast@AbstractPageWidget@@UEAAPEAXPEBD@Z ; AbstractPageWidget::qt_metacast
$LN1@qt_metacas:
; Line 263
	add	rsp, 40					; 00000028H
	ret	0
?qt_metacast@GeneralPage@@UEAAPEAXPEBD@Z ENDP		; GeneralPage::qt_metacast
_TEXT	ENDS
; Function compile flags: /Odtp
_TEXT	SEGMENT
tv82 = 32
this$ = 64
?metaObject@GeneralPage@@UEBAPEBUQMetaObject@@XZ PROC	; GeneralPage::metaObject
; File e:\g12_work\weidali_code\b\g12_4_b\ui\src\recipesuiplugin\x64\debug\moc\pages\moc_qualificationpage.cpp
; Line 253
$LN5:
	mov	QWORD PTR [rsp+8], rcx
	sub	rsp, 56					; 00000038H
; Line 254
	mov	rax, QWORD PTR this$[rsp]
	add	rax, 8
	mov	rcx, rax
	call	??C?$QScopedPointer@VQObjectData@@U?$QScopedPointerDeleter@VQObjectData@@@@@@QEBAPEAVQObjectData@@XZ ; QScopedPointer<QObjectData,QScopedPointerDeleter<QObjectData> >::operator->
	cmp	QWORD PTR [rax+40], 0
	je	SHORT $LN3@metaObject
	mov	rax, QWORD PTR this$[rsp]
	add	rax, 8
	mov	rcx, rax
	call	??C?$QScopedPointer@VQObjectData@@U?$QScopedPointerDeleter@VQObjectData@@@@@@QEBAPEAVQObjectData@@XZ ; QScopedPointer<QObjectData,QScopedPointerDeleter<QObjectData> >::operator->
	mov	rcx, rax
	call	QWORD PTR __imp_?dynamicMetaObject@QObjectData@@QEBAPEAUQMetaObject@@XZ
	mov	QWORD PTR tv82[rsp], rax
	jmp	SHORT $LN4@metaObject
$LN3@metaObject:
	lea	rax, OFFSET FLAT:?staticMetaObject@GeneralPage@@2UQMetaObject@@B ; GeneralPage::staticMetaObject
	mov	QWORD PTR tv82[rsp], rax
$LN4@metaObject:
	mov	rax, QWORD PTR tv82[rsp]
; Line 255
	add	rsp, 56					; 00000038H
	ret	0
?metaObject@GeneralPage@@UEBAPEBUQMetaObject@@XZ ENDP	; GeneralPage::metaObject
_TEXT	ENDS
; Function compile flags: /Odtp
_TEXT	SEGMENT
tv69 = 32
_t$1 = 40
_o$ = 64
_c$ = 72
_id$ = 80
_a$ = 88
?qt_static_metacall@DefectQualificationPage@@CAXPEAVQObject@@W4Call@QMetaObject@@HPEAPEAX@Z PROC ; DefectQualificationPage::qt_static_metacall
; File e:\g12_work\weidali_code\b\g12_4_b\ui\src\recipesuiplugin\x64\debug\moc\pages\moc_qualificationpage.cpp
; Line 157
$LN8:
	mov	QWORD PTR [rsp+32], r9
	mov	DWORD PTR [rsp+24], r8d
	mov	DWORD PTR [rsp+16], edx
	mov	QWORD PTR [rsp+8], rcx
	sub	rsp, 56					; 00000038H
; Line 158
	cmp	DWORD PTR _c$[rsp], 0
	jne	SHORT $LN4@qt_static_
; Line 159
	mov	rax, QWORD PTR _o$[rsp]
	mov	QWORD PTR _t$1[rsp], rax
; Line 161
	mov	eax, DWORD PTR _id$[rsp]
	mov	DWORD PTR tv69[rsp], eax
	cmp	DWORD PTR tv69[rsp], 0
	je	SHORT $LN5@qt_static_
	jmp	SHORT $LN6@qt_static_
$LN5@qt_static_:
; Line 162
	mov	rcx, QWORD PTR _t$1[rsp]
	call	?slot_test@DefectQualificationPage@@AEAAXXZ ; DefectQualificationPage::slot_test
$LN6@qt_static_:
$LN4@qt_static_:
; Line 167
	add	rsp, 56					; 00000038H
	ret	0
?qt_static_metacall@DefectQualificationPage@@CAXPEAVQObject@@W4Call@QMetaObject@@HPEAPEAX@Z ENDP ; DefectQualificationPage::qt_static_metacall
_TEXT	ENDS
; Function compile flags: /Odtp
_TEXT	SEGMENT
this$ = 48
_c$ = 56
_id$ = 64
_a$ = 72
?qt_metacall@DefectQualificationPage@@UEAAHW4Call@QMetaObject@@HPEAPEAX@Z PROC ; DefectQualificationPage::qt_metacall
; File e:\g12_work\weidali_code\b\g12_4_b\ui\src\recipesuiplugin\x64\debug\moc\pages\moc_qualificationpage.cpp
; Line 189
$LN9:
	mov	QWORD PTR [rsp+32], r9
	mov	DWORD PTR [rsp+24], r8d
	mov	DWORD PTR [rsp+16], edx
	mov	QWORD PTR [rsp+8], rcx
	sub	rsp, 40					; 00000028H
; Line 190
	mov	r9, QWORD PTR _a$[rsp]
	mov	r8d, DWORD PTR _id$[rsp]
	mov	edx, DWORD PTR _c$[rsp]
	mov	rcx, QWORD PTR this$[rsp]
	call	?qt_metacall@AbstractPageWidget@@UEAAHW4Call@QMetaObject@@HPEAPEAX@Z ; AbstractPageWidget::qt_metacall
	mov	DWORD PTR _id$[rsp], eax
; Line 191
	cmp	DWORD PTR _id$[rsp], 0
	jge	SHORT $LN2@qt_metacal
; Line 192
	mov	eax, DWORD PTR _id$[rsp]
	jmp	SHORT $LN1@qt_metacal
$LN2@qt_metacal:
; Line 193
	cmp	DWORD PTR _c$[rsp], 0
	jne	SHORT $LN3@qt_metacal
; Line 194
	cmp	DWORD PTR _id$[rsp], 1
	jge	SHORT $LN5@qt_metacal
; Line 195
	mov	r9, QWORD PTR _a$[rsp]
	mov	r8d, DWORD PTR _id$[rsp]
	mov	edx, DWORD PTR _c$[rsp]
	mov	rcx, QWORD PTR this$[rsp]
	call	?qt_static_metacall@DefectQualificationPage@@CAXPEAVQObject@@W4Call@QMetaObject@@HPEAPEAX@Z ; DefectQualificationPage::qt_static_metacall
$LN5@qt_metacal:
; Line 196
	mov	eax, DWORD PTR _id$[rsp]
	dec	eax
	mov	DWORD PTR _id$[rsp], eax
	jmp	SHORT $LN4@qt_metacal
$LN3@qt_metacal:
; Line 197
	cmp	DWORD PTR _c$[rsp], 12
	jne	SHORT $LN6@qt_metacal
; Line 198
	cmp	DWORD PTR _id$[rsp], 1
	jge	SHORT $LN7@qt_metacal
; Line 199
	mov	eax, 8
	imul	rax, rax, 0
	mov	rcx, QWORD PTR _a$[rsp]
	mov	rax, QWORD PTR [rcx+rax]
	mov	DWORD PTR [rax], -1
$LN7@qt_metacal:
; Line 200
	mov	eax, DWORD PTR _id$[rsp]
	dec	eax
	mov	DWORD PTR _id$[rsp], eax
$LN6@qt_metacal:
$LN4@qt_metacal:
; Line 202
	mov	eax, DWORD PTR _id$[rsp]
$LN1@qt_metacal:
; Line 203
	add	rsp, 40					; 00000028H
	ret	0
?qt_metacall@DefectQualificationPage@@UEAAHW4Call@QMetaObject@@HPEAPEAX@Z ENDP ; DefectQualificationPage::qt_metacall
_TEXT	ENDS
; Function compile flags: /Odtp
_TEXT	SEGMENT
this$ = 48
_clname$ = 56
?qt_metacast@DefectQualificationPage@@UEAAPEAXPEBD@Z PROC ; DefectQualificationPage::qt_metacast
; File e:\g12_work\weidali_code\b\g12_4_b\ui\src\recipesuiplugin\x64\debug\moc\pages\moc_qualificationpage.cpp
; Line 181
$LN5:
	mov	QWORD PTR [rsp+16], rdx
	mov	QWORD PTR [rsp+8], rcx
	sub	rsp, 40					; 00000028H
; Line 182
	cmp	QWORD PTR _clname$[rsp], 0
	jne	SHORT $LN2@qt_metacas
	xor	eax, eax
	jmp	SHORT $LN1@qt_metacas
$LN2@qt_metacas:
; Line 183
	lea	rdx, OFFSET FLAT:?qt_meta_stringdata_DefectQualificationPage@@3Uqt_meta_stringdata_DefectQualificationPage_t@@B+72
	mov	rcx, QWORD PTR _clname$[rsp]
	call	strcmp
	test	eax, eax
	jne	SHORT $LN3@qt_metacas
; Line 184
	mov	rax, QWORD PTR this$[rsp]
	jmp	SHORT $LN1@qt_metacas
$LN3@qt_metacas:
; Line 185
	mov	rdx, QWORD PTR _clname$[rsp]
	mov	rcx, QWORD PTR this$[rsp]
	call	?qt_metacast@AbstractPageWidget@@UEAAPEAXPEBD@Z ; AbstractPageWidget::qt_metacast
$LN1@qt_metacas:
; Line 186
	add	rsp, 40					; 00000028H
	ret	0
?qt_metacast@DefectQualificationPage@@UEAAPEAXPEBD@Z ENDP ; DefectQualificationPage::qt_metacast
_TEXT	ENDS
; Function compile flags: /Odtp
_TEXT	SEGMENT
tv82 = 32
this$ = 64
?metaObject@DefectQualificationPage@@UEBAPEBUQMetaObject@@XZ PROC ; DefectQualificationPage::metaObject
; File e:\g12_work\weidali_code\b\g12_4_b\ui\src\recipesuiplugin\x64\debug\moc\pages\moc_qualificationpage.cpp
; Line 176
$LN5:
	mov	QWORD PTR [rsp+8], rcx
	sub	rsp, 56					; 00000038H
; Line 177
	mov	rax, QWORD PTR this$[rsp]
	add	rax, 8
	mov	rcx, rax
	call	??C?$QScopedPointer@VQObjectData@@U?$QScopedPointerDeleter@VQObjectData@@@@@@QEBAPEAVQObjectData@@XZ ; QScopedPointer<QObjectData,QScopedPointerDeleter<QObjectData> >::operator->
	cmp	QWORD PTR [rax+40], 0
	je	SHORT $LN3@metaObject
	mov	rax, QWORD PTR this$[rsp]
	add	rax, 8
	mov	rcx, rax
	call	??C?$QScopedPointer@VQObjectData@@U?$QScopedPointerDeleter@VQObjectData@@@@@@QEBAPEAVQObjectData@@XZ ; QScopedPointer<QObjectData,QScopedPointerDeleter<QObjectData> >::operator->
	mov	rcx, rax
	call	QWORD PTR __imp_?dynamicMetaObject@QObjectData@@QEBAPEAUQMetaObject@@XZ
	mov	QWORD PTR tv82[rsp], rax
	jmp	SHORT $LN4@metaObject
$LN3@metaObject:
	lea	rax, OFFSET FLAT:?staticMetaObject@DefectQualificationPage@@2UQMetaObject@@B ; DefectQualificationPage::staticMetaObject
	mov	QWORD PTR tv82[rsp], rax
$LN4@metaObject:
	mov	rax, QWORD PTR tv82[rsp]
; Line 178
	add	rsp, 56					; 00000038H
	ret	0
?metaObject@DefectQualificationPage@@UEBAPEBUQMetaObject@@XZ ENDP ; DefectQualificationPage::metaObject
_TEXT	ENDS
; Function compile flags: /Odtp
_TEXT	SEGMENT
tv69 = 32
_t$1 = 40
_o$ = 64
_c$ = 72
_id$ = 80
_a$ = 88
?qt_static_metacall@QualificationPage@@CAXPEAVQObject@@W4Call@QMetaObject@@HPEAPEAX@Z PROC ; QualificationPage::qt_static_metacall
; File e:\g12_work\weidali_code\b\g12_4_b\ui\src\recipesuiplugin\x64\debug\moc\pages\moc_qualificationpage.cpp
; Line 68
$LN8:
	mov	QWORD PTR [rsp+32], r9
	mov	DWORD PTR [rsp+24], r8d
	mov	DWORD PTR [rsp+16], edx
	mov	QWORD PTR [rsp+8], rcx
	sub	rsp, 56					; 00000038H
; Line 69
	cmp	DWORD PTR _c$[rsp], 0
	jne	SHORT $LN4@qt_static_
; Line 70
	mov	rax, QWORD PTR _o$[rsp]
	mov	QWORD PTR _t$1[rsp], rax
; Line 72
	mov	eax, DWORD PTR _id$[rsp]
	mov	DWORD PTR tv69[rsp], eax
	cmp	DWORD PTR tv69[rsp], 0
	je	SHORT $LN5@qt_static_
	jmp	SHORT $LN6@qt_static_
$LN5@qt_static_:
; Line 73
	mov	eax, 8
	imul	rax, rax, 1
	mov	rcx, QWORD PTR _a$[rsp]
	mov	rax, QWORD PTR [rcx+rax]
	mov	edx, DWORD PTR [rax]
	mov	rcx, QWORD PTR _t$1[rsp]
	call	?on_currentChanged@QualificationPage@@AEAAXH@Z ; QualificationPage::on_currentChanged
$LN6@qt_static_:
$LN4@qt_static_:
; Line 77
	add	rsp, 56					; 00000038H
	ret	0
?qt_static_metacall@QualificationPage@@CAXPEAVQObject@@W4Call@QMetaObject@@HPEAPEAX@Z ENDP ; QualificationPage::qt_static_metacall
_TEXT	ENDS
; Function compile flags: /Odtp
_TEXT	SEGMENT
this$ = 48
_c$ = 56
_id$ = 64
_a$ = 72
?qt_metacall@QualificationPage@@UEAAHW4Call@QMetaObject@@HPEAPEAX@Z PROC ; QualificationPage::qt_metacall
; File e:\g12_work\weidali_code\b\g12_4_b\ui\src\recipesuiplugin\x64\debug\moc\pages\moc_qualificationpage.cpp
; Line 99
$LN9:
	mov	QWORD PTR [rsp+32], r9
	mov	DWORD PTR [rsp+24], r8d
	mov	DWORD PTR [rsp+16], edx
	mov	QWORD PTR [rsp+8], rcx
	sub	rsp, 40					; 00000028H
; Line 100
	mov	r9, QWORD PTR _a$[rsp]
	mov	r8d, DWORD PTR _id$[rsp]
	mov	edx, DWORD PTR _c$[rsp]
	mov	rcx, QWORD PTR this$[rsp]
	call	?qt_metacall@AbstractPageWidget@@UEAAHW4Call@QMetaObject@@HPEAPEAX@Z ; AbstractPageWidget::qt_metacall
	mov	DWORD PTR _id$[rsp], eax
; Line 101
	cmp	DWORD PTR _id$[rsp], 0
	jge	SHORT $LN2@qt_metacal
; Line 102
	mov	eax, DWORD PTR _id$[rsp]
	jmp	SHORT $LN1@qt_metacal
$LN2@qt_metacal:
; Line 103
	cmp	DWORD PTR _c$[rsp], 0
	jne	SHORT $LN3@qt_metacal
; Line 104
	cmp	DWORD PTR _id$[rsp], 1
	jge	SHORT $LN5@qt_metacal
; Line 105
	mov	r9, QWORD PTR _a$[rsp]
	mov	r8d, DWORD PTR _id$[rsp]
	mov	edx, DWORD PTR _c$[rsp]
	mov	rcx, QWORD PTR this$[rsp]
	call	?qt_static_metacall@QualificationPage@@CAXPEAVQObject@@W4Call@QMetaObject@@HPEAPEAX@Z ; QualificationPage::qt_static_metacall
$LN5@qt_metacal:
; Line 106
	mov	eax, DWORD PTR _id$[rsp]
	dec	eax
	mov	DWORD PTR _id$[rsp], eax
	jmp	SHORT $LN4@qt_metacal
$LN3@qt_metacal:
; Line 107
	cmp	DWORD PTR _c$[rsp], 12
	jne	SHORT $LN6@qt_metacal
; Line 108
	cmp	DWORD PTR _id$[rsp], 1
	jge	SHORT $LN7@qt_metacal
; Line 109
	mov	eax, 8
	imul	rax, rax, 0
	mov	rcx, QWORD PTR _a$[rsp]
	mov	rax, QWORD PTR [rcx+rax]
	mov	DWORD PTR [rax], -1
$LN7@qt_metacal:
; Line 110
	mov	eax, DWORD PTR _id$[rsp]
	dec	eax
	mov	DWORD PTR _id$[rsp], eax
$LN6@qt_metacal:
$LN4@qt_metacal:
; Line 112
	mov	eax, DWORD PTR _id$[rsp]
$LN1@qt_metacal:
; Line 113
	add	rsp, 40					; 00000028H
	ret	0
?qt_metacall@QualificationPage@@UEAAHW4Call@QMetaObject@@HPEAPEAX@Z ENDP ; QualificationPage::qt_metacall
_TEXT	ENDS
; Function compile flags: /Odtp
_TEXT	SEGMENT
this$ = 48
_clname$ = 56
?qt_metacast@QualificationPage@@UEAAPEAXPEBD@Z PROC	; QualificationPage::qt_metacast
; File e:\g12_work\weidali_code\b\g12_4_b\ui\src\recipesuiplugin\x64\debug\moc\pages\moc_qualificationpage.cpp
; Line 91
$LN5:
	mov	QWORD PTR [rsp+16], rdx
	mov	QWORD PTR [rsp+8], rcx
	sub	rsp, 40					; 00000028H
; Line 92
	cmp	QWORD PTR _clname$[rsp], 0
	jne	SHORT $LN2@qt_metacas
	xor	eax, eax
	jmp	SHORT $LN1@qt_metacas
$LN2@qt_metacas:
; Line 93
	lea	rdx, OFFSET FLAT:?qt_meta_stringdata_QualificationPage@@3Uqt_meta_stringdata_QualificationPage_t@@B+96
	mov	rcx, QWORD PTR _clname$[rsp]
	call	strcmp
	test	eax, eax
	jne	SHORT $LN3@qt_metacas
; Line 94
	mov	rax, QWORD PTR this$[rsp]
	jmp	SHORT $LN1@qt_metacas
$LN3@qt_metacas:
; Line 95
	mov	rdx, QWORD PTR _clname$[rsp]
	mov	rcx, QWORD PTR this$[rsp]
	call	?qt_metacast@AbstractPageWidget@@UEAAPEAXPEBD@Z ; AbstractPageWidget::qt_metacast
$LN1@qt_metacas:
; Line 96
	add	rsp, 40					; 00000028H
	ret	0
?qt_metacast@QualificationPage@@UEAAPEAXPEBD@Z ENDP	; QualificationPage::qt_metacast
_TEXT	ENDS
; Function compile flags: /Odtp
_TEXT	SEGMENT
tv82 = 32
this$ = 64
?metaObject@QualificationPage@@UEBAPEBUQMetaObject@@XZ PROC ; QualificationPage::metaObject
; File e:\g12_work\weidali_code\b\g12_4_b\ui\src\recipesuiplugin\x64\debug\moc\pages\moc_qualificationpage.cpp
; Line 86
$LN5:
	mov	QWORD PTR [rsp+8], rcx
	sub	rsp, 56					; 00000038H
; Line 87
	mov	rax, QWORD PTR this$[rsp]
	add	rax, 8
	mov	rcx, rax
	call	??C?$QScopedPointer@VQObjectData@@U?$QScopedPointerDeleter@VQObjectData@@@@@@QEBAPEAVQObjectData@@XZ ; QScopedPointer<QObjectData,QScopedPointerDeleter<QObjectData> >::operator->
	cmp	QWORD PTR [rax+40], 0
	je	SHORT $LN3@metaObject
	mov	rax, QWORD PTR this$[rsp]
	add	rax, 8
	mov	rcx, rax
	call	??C?$QScopedPointer@VQObjectData@@U?$QScopedPointerDeleter@VQObjectData@@@@@@QEBAPEAVQObjectData@@XZ ; QScopedPointer<QObjectData,QScopedPointerDeleter<QObjectData> >::operator->
	mov	rcx, rax
	call	QWORD PTR __imp_?dynamicMetaObject@QObjectData@@QEBAPEAUQMetaObject@@XZ
	mov	QWORD PTR tv82[rsp], rax
	jmp	SHORT $LN4@metaObject
$LN3@metaObject:
	lea	rax, OFFSET FLAT:?staticMetaObject@QualificationPage@@2UQMetaObject@@B ; QualificationPage::staticMetaObject
	mov	QWORD PTR tv82[rsp], rax
$LN4@metaObject:
	mov	rax, QWORD PTR tv82[rsp]
; Line 88
	add	rsp, 56					; 00000038H
	ret	0
?metaObject@QualificationPage@@UEBAPEBUQMetaObject@@XZ ENDP ; QualificationPage::metaObject
_TEXT	ENDS
; Function compile flags: /Odtp
;	COMDAT ??C?$QScopedPointer@VQObjectData@@U?$QScopedPointerDeleter@VQObjectData@@@@@@QEBAPEAVQObjectData@@XZ
_TEXT	SEGMENT
this$ = 8
??C?$QScopedPointer@VQObjectData@@U?$QScopedPointerDeleter@VQObjectData@@@@@@QEBAPEAVQObjectData@@XZ PROC ; QScopedPointer<QObjectData,QScopedPointerDeleter<QObjectData> >::operator->, COMDAT
; File c:\qt\qt5.9.3\5.9.3\msvc2015_64\include\qtcore\qscopedpointer.h
; Line 117
	mov	QWORD PTR [rsp+8], rcx
; Line 118
	mov	rax, QWORD PTR this$[rsp]
	mov	rax, QWORD PTR [rax]
; Line 119
	ret	0
??C?$QScopedPointer@VQObjectData@@U?$QScopedPointerDeleter@VQObjectData@@@@@@QEBAPEAVQObjectData@@XZ ENDP ; QScopedPointer<QObjectData,QScopedPointerDeleter<QObjectData> >::operator->
_TEXT	ENDS
; Function compile flags: /Odtp
;	COMDAT ?__empty_global_delete@@YAXPEAX_K@Z
_TEXT	SEGMENT
__formal$ = 8
__formal$ = 16
?__empty_global_delete@@YAXPEAX_K@Z PROC		; __empty_global_delete, COMDAT
; File e:\g12_work\weidali_code\b\g12_4_b\ui\src\recipesuiplugin\x64\debug\moc\pages\moc_qualificationpage.cpp
; Line 272
	mov	QWORD PTR [rsp+16], rdx
	mov	QWORD PTR [rsp+8], rcx
	ret	0
?__empty_global_delete@@YAXPEAX_K@Z ENDP		; __empty_global_delete
_TEXT	ENDS
; Function compile flags: /Odtp
;	COMDAT ?__empty_global_delete@@YAXPEAX@Z
_TEXT	SEGMENT
__formal$ = 8
?__empty_global_delete@@YAXPEAX@Z PROC			; __empty_global_delete, COMDAT
; File e:\g12_work\weidali_code\b\g12_4_b\ui\src\recipesuiplugin\x64\debug\moc\pages\moc_qualificationpage.cpp
; Line 272
	mov	QWORD PTR [rsp+8], rcx
	ret	0
?__empty_global_delete@@YAXPEAX@Z ENDP			; __empty_global_delete
_TEXT	ENDS
END
