; Listing generated by Microsoft (R) Optimizing Compiler Version 19.00.24215.1 

include listing.inc

INCLUDELIB MSVCRTD
INCLUDELIB OLDNAMES

PUBLIC	?staticMetaObject@CompoundSetUi@@2UQMetaObject@@B ; CompoundSetUi::staticMetaObject
PUBLIC	?qt_static_metacall@CompoundSetUi@@CAXPEAVQObject@@W4Call@QMetaObject@@HPEAPEAX@Z ; CompoundSetUi::qt_static_metacall
EXTRN	?staticMetaObject@AbstractPageWidget@@2UQMetaObject@@B:BYTE ; AbstractPageWidget::staticMetaObject
CONST	SEGMENT
$SG106670 DB	'C:\Qt\Qt5.9.3\5.9.3\msvc2015_64\include\QtCore/qmetatype'
	DB	'.h', 00H
	ORG $+5
$SG106671 DB	'qRegisterNormalizedMetaType was called with a not normal'
	DB	'ized type name, please call qRegisterMetaType instead.', 00H
	ORG $+1
$SG106672 DB	'qRegisterNormalizedMetaType', 00H
	ORG $+4
$SG107925 DB	'C:\Qt\Qt5.9.3\5.9.3\msvc2015_64\include\QtCore/qmetatype'
	DB	'.h', 00H
	ORG $+5
$SG107926 DB	'qRegisterNormalizedMetaType was called with a not normal'
	DB	'ized type name, please call qRegisterMetaType instead.', 00H
	ORG $+1
$SG107927 DB	'qRegisterNormalizedMetaType', 00H
	ORG $+4
$SG106066 DB	'C:\Qt\Qt5.9.3\5.9.3\msvc2015_64\include\QtCore/qmetatype'
	DB	'.h', 00H
	ORG $+5
$SG106067 DB	'qRegisterNormalizedMetaType was called with a not normal'
	DB	'ized type name, please call qRegisterMetaType instead.', 00H
	ORG $+1
$SG106068 DB	'qRegisterNormalizedMetaType', 00H
	ORG $+4
?staticMetaObject@CompoundSetUi@@2UQMetaObject@@B DQ FLAT:?staticMetaObject@AbstractPageWidget@@2UQMetaObject@@B ; CompoundSetUi::staticMetaObject
	DQ	FLAT:?qt_meta_stringdata_CompoundSetUi@@3Uqt_meta_stringdata_CompoundSetUi_t@@B
	DQ	FLAT:?qt_meta_data_CompoundSetUi@@3QBIB
	DQ	FLAT:?qt_static_metacall@CompoundSetUi@@CAXPEAVQObject@@W4Call@QMetaObject@@HPEAPEAX@Z
	DQ	0000000000000000H
	DQ	0000000000000000H
$SG106368 DB	'C:\Qt\Qt5.9.3\5.9.3\msvc2015_64\include\QtCore/qmetatype'
	DB	'.h', 00H
	ORG $+5
$SG106369 DB	'qRegisterNormalizedMetaType was called with a not normal'
	DB	'ized type name, please call qRegisterMetaType instead.', 00H
	ORG $+1
$SG106370 DB	'qRegisterNormalizedMetaType', 00H
	ORG $+4
?qt_meta_stringdata_CompoundSetUi@@3Uqt_meta_stringdata_CompoundSetUi_t@@B DD 0ffffffffH ; qt_meta_stringdata_CompoundSetUi
	DD	0dH
	DD	00H
	ORG $+4
	DQ	0000000000000060H
	DD	0ffffffffH
	DD	01fH
	DD	00H
	ORG $+4
	DQ	0000000000000056H
	DD	0ffffffffH
	DD	00H
	DD	00H
	ORG $+4
	DQ	000000000000005eH
	DD	0ffffffffH
	DD	01cH
	DD	00H
	ORG $+4
	DQ	0000000000000047H
	DB	'CompoundSetUi', 00H, 'on_pushButton_loadImage_clicked', 00H
	DB	00H, 'on_pushButton_SetROI_clicked', 00H
	ORG $+4
?qt_meta_data_CompoundSetUi@@3QBIB DD 07H		; qt_meta_data_CompoundSetUi
	DD	00H
	DD	00H
	DD	00H
	DD	02H
	DD	0eH
	DD	00H
	DD	00H
	DD	00H
	DD	00H
	DD	00H
	DD	00H
	DD	00H
	DD	00H
	DD	01H
	DD	00H
	DD	018H
	DD	02H
	DD	08H
	DD	03H
	DD	00H
	DD	019H
	DD	02H
	DD	08H
	DD	02bH
	DD	02bH
	DD	00H
CONST	ENDS
PUBLIC	?__empty_global_delete@@YAXPEAX@Z		; __empty_global_delete
PUBLIC	?__empty_global_delete@@YAXPEAX_K@Z		; __empty_global_delete
PUBLIC	??C?$QScopedPointer@VQObjectData@@U?$QScopedPointerDeleter@VQObjectData@@@@@@QEBAPEAVQObjectData@@XZ ; QScopedPointer<QObjectData,QScopedPointerDeleter<QObjectData> >::operator->
PUBLIC	?metaObject@CompoundSetUi@@UEBAPEBUQMetaObject@@XZ ; CompoundSetUi::metaObject
PUBLIC	?qt_metacast@CompoundSetUi@@UEAAPEAXPEBD@Z	; CompoundSetUi::qt_metacast
PUBLIC	?qt_metacall@CompoundSetUi@@UEAAHW4Call@QMetaObject@@HPEAPEAX@Z ; CompoundSetUi::qt_metacall
EXTRN	strcmp:PROC
EXTRN	__imp_?dynamicMetaObject@QObjectData@@QEBAPEAUQMetaObject@@XZ:PROC
EXTRN	?qt_metacast@AbstractPageWidget@@UEAAPEAXPEBD@Z:PROC ; AbstractPageWidget::qt_metacast
EXTRN	?qt_metacall@AbstractPageWidget@@UEAAHW4Call@QMetaObject@@HPEAPEAX@Z:PROC ; AbstractPageWidget::qt_metacall
EXTRN	?on_pushButton_loadImage_clicked@CompoundSetUi@@AEAAXXZ:PROC ; CompoundSetUi::on_pushButton_loadImage_clicked
EXTRN	?on_pushButton_SetROI_clicked@CompoundSetUi@@AEAAXXZ:PROC ; CompoundSetUi::on_pushButton_SetROI_clicked
pdata	SEGMENT
$pdata$?metaObject@CompoundSetUi@@UEBAPEBUQMetaObject@@XZ DD imagerel $LN5
	DD	imagerel $LN5+88
	DD	imagerel $unwind$?metaObject@CompoundSetUi@@UEBAPEBUQMetaObject@@XZ
$pdata$?qt_metacast@CompoundSetUi@@UEAAPEAXPEBD@Z DD imagerel $LN5
	DD	imagerel $LN5+74
	DD	imagerel $unwind$?qt_metacast@CompoundSetUi@@UEAAPEAXPEBD@Z
$pdata$?qt_metacall@CompoundSetUi@@UEAAHW4Call@QMetaObject@@HPEAPEAX@Z DD imagerel $LN9
	DD	imagerel $LN9+173
	DD	imagerel $unwind$?qt_metacall@CompoundSetUi@@UEAAHW4Call@QMetaObject@@HPEAPEAX@Z
$pdata$?qt_static_metacall@CompoundSetUi@@CAXPEAVQObject@@W4Call@QMetaObject@@HPEAPEAX@Z DD imagerel $LN9
	DD	imagerel $LN9+91
	DD	imagerel $unwind$?qt_static_metacall@CompoundSetUi@@CAXPEAVQObject@@W4Call@QMetaObject@@HPEAPEAX@Z
pdata	ENDS
xdata	SEGMENT
$unwind$?metaObject@CompoundSetUi@@UEBAPEBUQMetaObject@@XZ DD 010901H
	DD	06209H
$unwind$?qt_metacast@CompoundSetUi@@UEAAPEAXPEBD@Z DD 010e01H
	DD	0420eH
$unwind$?qt_metacall@CompoundSetUi@@UEAAHW4Call@QMetaObject@@HPEAPEAX@Z DD 011701H
	DD	04217H
$unwind$?qt_static_metacall@CompoundSetUi@@CAXPEAVQObject@@W4Call@QMetaObject@@HPEAPEAX@Z DD 011701H
	DD	06217H
xdata	ENDS
; Function compile flags: /Odtp
_TEXT	SEGMENT
tv69 = 32
_t$1 = 40
_o$ = 64
_c$ = 72
_id$ = 80
_a$ = 88
?qt_static_metacall@CompoundSetUi@@CAXPEAVQObject@@W4Call@QMetaObject@@HPEAPEAX@Z PROC ; CompoundSetUi::qt_static_metacall
; File e:\g12_work\weidali_code\b\g12_4_b\ui\src\recipesuiplugin\x64\debug\moc\pages\moc_compoundsetui.cpp
; Line 70
$LN9:
	mov	QWORD PTR [rsp+32], r9
	mov	DWORD PTR [rsp+24], r8d
	mov	DWORD PTR [rsp+16], edx
	mov	QWORD PTR [rsp+8], rcx
	sub	rsp, 56					; 00000038H
; Line 71
	cmp	DWORD PTR _c$[rsp], 0
	jne	SHORT $LN4@qt_static_
; Line 72
	mov	rax, QWORD PTR _o$[rsp]
	mov	QWORD PTR _t$1[rsp], rax
; Line 74
	mov	eax, DWORD PTR _id$[rsp]
	mov	DWORD PTR tv69[rsp], eax
	cmp	DWORD PTR tv69[rsp], 0
	je	SHORT $LN5@qt_static_
	cmp	DWORD PTR tv69[rsp], 1
	je	SHORT $LN6@qt_static_
	jmp	SHORT $LN7@qt_static_
$LN5@qt_static_:
; Line 75
	mov	rcx, QWORD PTR _t$1[rsp]
	call	?on_pushButton_loadImage_clicked@CompoundSetUi@@AEAAXXZ ; CompoundSetUi::on_pushButton_loadImage_clicked
	jmp	SHORT $LN2@qt_static_
$LN6@qt_static_:
; Line 76
	mov	rcx, QWORD PTR _t$1[rsp]
	call	?on_pushButton_SetROI_clicked@CompoundSetUi@@AEAAXXZ ; CompoundSetUi::on_pushButton_SetROI_clicked
$LN7@qt_static_:
$LN2@qt_static_:
$LN4@qt_static_:
; Line 81
	add	rsp, 56					; 00000038H
	ret	0
?qt_static_metacall@CompoundSetUi@@CAXPEAVQObject@@W4Call@QMetaObject@@HPEAPEAX@Z ENDP ; CompoundSetUi::qt_static_metacall
_TEXT	ENDS
; Function compile flags: /Odtp
_TEXT	SEGMENT
this$ = 48
_c$ = 56
_id$ = 64
_a$ = 72
?qt_metacall@CompoundSetUi@@UEAAHW4Call@QMetaObject@@HPEAPEAX@Z PROC ; CompoundSetUi::qt_metacall
; File e:\g12_work\weidali_code\b\g12_4_b\ui\src\recipesuiplugin\x64\debug\moc\pages\moc_compoundsetui.cpp
; Line 103
$LN9:
	mov	QWORD PTR [rsp+32], r9
	mov	DWORD PTR [rsp+24], r8d
	mov	DWORD PTR [rsp+16], edx
	mov	QWORD PTR [rsp+8], rcx
	sub	rsp, 40					; 00000028H
; Line 104
	mov	r9, QWORD PTR _a$[rsp]
	mov	r8d, DWORD PTR _id$[rsp]
	mov	edx, DWORD PTR _c$[rsp]
	mov	rcx, QWORD PTR this$[rsp]
	call	?qt_metacall@AbstractPageWidget@@UEAAHW4Call@QMetaObject@@HPEAPEAX@Z ; AbstractPageWidget::qt_metacall
	mov	DWORD PTR _id$[rsp], eax
; Line 105
	cmp	DWORD PTR _id$[rsp], 0
	jge	SHORT $LN2@qt_metacal
; Line 106
	mov	eax, DWORD PTR _id$[rsp]
	jmp	SHORT $LN1@qt_metacal
$LN2@qt_metacal:
; Line 107
	cmp	DWORD PTR _c$[rsp], 0
	jne	SHORT $LN3@qt_metacal
; Line 108
	cmp	DWORD PTR _id$[rsp], 2
	jge	SHORT $LN5@qt_metacal
; Line 109
	mov	r9, QWORD PTR _a$[rsp]
	mov	r8d, DWORD PTR _id$[rsp]
	mov	edx, DWORD PTR _c$[rsp]
	mov	rcx, QWORD PTR this$[rsp]
	call	?qt_static_metacall@CompoundSetUi@@CAXPEAVQObject@@W4Call@QMetaObject@@HPEAPEAX@Z ; CompoundSetUi::qt_static_metacall
$LN5@qt_metacal:
; Line 110
	mov	eax, DWORD PTR _id$[rsp]
	sub	eax, 2
	mov	DWORD PTR _id$[rsp], eax
	jmp	SHORT $LN4@qt_metacal
$LN3@qt_metacal:
; Line 111
	cmp	DWORD PTR _c$[rsp], 12
	jne	SHORT $LN6@qt_metacal
; Line 112
	cmp	DWORD PTR _id$[rsp], 2
	jge	SHORT $LN7@qt_metacal
; Line 113
	mov	eax, 8
	imul	rax, rax, 0
	mov	rcx, QWORD PTR _a$[rsp]
	mov	rax, QWORD PTR [rcx+rax]
	mov	DWORD PTR [rax], -1
$LN7@qt_metacal:
; Line 114
	mov	eax, DWORD PTR _id$[rsp]
	sub	eax, 2
	mov	DWORD PTR _id$[rsp], eax
$LN6@qt_metacal:
$LN4@qt_metacal:
; Line 116
	mov	eax, DWORD PTR _id$[rsp]
$LN1@qt_metacal:
; Line 117
	add	rsp, 40					; 00000028H
	ret	0
?qt_metacall@CompoundSetUi@@UEAAHW4Call@QMetaObject@@HPEAPEAX@Z ENDP ; CompoundSetUi::qt_metacall
_TEXT	ENDS
; Function compile flags: /Odtp
_TEXT	SEGMENT
this$ = 48
_clname$ = 56
?qt_metacast@CompoundSetUi@@UEAAPEAXPEBD@Z PROC		; CompoundSetUi::qt_metacast
; File e:\g12_work\weidali_code\b\g12_4_b\ui\src\recipesuiplugin\x64\debug\moc\pages\moc_compoundsetui.cpp
; Line 95
$LN5:
	mov	QWORD PTR [rsp+16], rdx
	mov	QWORD PTR [rsp+8], rcx
	sub	rsp, 40					; 00000028H
; Line 96
	cmp	QWORD PTR _clname$[rsp], 0
	jne	SHORT $LN2@qt_metacas
	xor	eax, eax
	jmp	SHORT $LN1@qt_metacas
$LN2@qt_metacas:
; Line 97
	lea	rdx, OFFSET FLAT:?qt_meta_stringdata_CompoundSetUi@@3Uqt_meta_stringdata_CompoundSetUi_t@@B+96
	mov	rcx, QWORD PTR _clname$[rsp]
	call	strcmp
	test	eax, eax
	jne	SHORT $LN3@qt_metacas
; Line 98
	mov	rax, QWORD PTR this$[rsp]
	jmp	SHORT $LN1@qt_metacas
$LN3@qt_metacas:
; Line 99
	mov	rdx, QWORD PTR _clname$[rsp]
	mov	rcx, QWORD PTR this$[rsp]
	call	?qt_metacast@AbstractPageWidget@@UEAAPEAXPEBD@Z ; AbstractPageWidget::qt_metacast
$LN1@qt_metacas:
; Line 100
	add	rsp, 40					; 00000028H
	ret	0
?qt_metacast@CompoundSetUi@@UEAAPEAXPEBD@Z ENDP		; CompoundSetUi::qt_metacast
_TEXT	ENDS
; Function compile flags: /Odtp
_TEXT	SEGMENT
tv82 = 32
this$ = 64
?metaObject@CompoundSetUi@@UEBAPEBUQMetaObject@@XZ PROC	; CompoundSetUi::metaObject
; File e:\g12_work\weidali_code\b\g12_4_b\ui\src\recipesuiplugin\x64\debug\moc\pages\moc_compoundsetui.cpp
; Line 90
$LN5:
	mov	QWORD PTR [rsp+8], rcx
	sub	rsp, 56					; 00000038H
; Line 91
	mov	rax, QWORD PTR this$[rsp]
	add	rax, 8
	mov	rcx, rax
	call	??C?$QScopedPointer@VQObjectData@@U?$QScopedPointerDeleter@VQObjectData@@@@@@QEBAPEAVQObjectData@@XZ ; QScopedPointer<QObjectData,QScopedPointerDeleter<QObjectData> >::operator->
	cmp	QWORD PTR [rax+40], 0
	je	SHORT $LN3@metaObject
	mov	rax, QWORD PTR this$[rsp]
	add	rax, 8
	mov	rcx, rax
	call	??C?$QScopedPointer@VQObjectData@@U?$QScopedPointerDeleter@VQObjectData@@@@@@QEBAPEAVQObjectData@@XZ ; QScopedPointer<QObjectData,QScopedPointerDeleter<QObjectData> >::operator->
	mov	rcx, rax
	call	QWORD PTR __imp_?dynamicMetaObject@QObjectData@@QEBAPEAUQMetaObject@@XZ
	mov	QWORD PTR tv82[rsp], rax
	jmp	SHORT $LN4@metaObject
$LN3@metaObject:
	lea	rax, OFFSET FLAT:?staticMetaObject@CompoundSetUi@@2UQMetaObject@@B ; CompoundSetUi::staticMetaObject
	mov	QWORD PTR tv82[rsp], rax
$LN4@metaObject:
	mov	rax, QWORD PTR tv82[rsp]
; Line 92
	add	rsp, 56					; 00000038H
	ret	0
?metaObject@CompoundSetUi@@UEBAPEBUQMetaObject@@XZ ENDP	; CompoundSetUi::metaObject
_TEXT	ENDS
; Function compile flags: /Odtp
;	COMDAT ??C?$QScopedPointer@VQObjectData@@U?$QScopedPointerDeleter@VQObjectData@@@@@@QEBAPEAVQObjectData@@XZ
_TEXT	SEGMENT
this$ = 8
??C?$QScopedPointer@VQObjectData@@U?$QScopedPointerDeleter@VQObjectData@@@@@@QEBAPEAVQObjectData@@XZ PROC ; QScopedPointer<QObjectData,QScopedPointerDeleter<QObjectData> >::operator->, COMDAT
; File c:\qt\qt5.9.3\5.9.3\msvc2015_64\include\qtcore\qscopedpointer.h
; Line 117
	mov	QWORD PTR [rsp+8], rcx
; Line 118
	mov	rax, QWORD PTR this$[rsp]
	mov	rax, QWORD PTR [rax]
; Line 119
	ret	0
??C?$QScopedPointer@VQObjectData@@U?$QScopedPointerDeleter@VQObjectData@@@@@@QEBAPEAVQObjectData@@XZ ENDP ; QScopedPointer<QObjectData,QScopedPointerDeleter<QObjectData> >::operator->
_TEXT	ENDS
; Function compile flags: /Odtp
;	COMDAT ?__empty_global_delete@@YAXPEAX_K@Z
_TEXT	SEGMENT
__formal$ = 8
__formal$ = 16
?__empty_global_delete@@YAXPEAX_K@Z PROC		; __empty_global_delete, COMDAT
; File e:\g12_work\weidali_code\b\g12_4_b\ui\src\recipesuiplugin\x64\debug\moc\pages\moc_compoundsetui.cpp
; Line 120
	mov	QWORD PTR [rsp+16], rdx
	mov	QWORD PTR [rsp+8], rcx
	ret	0
?__empty_global_delete@@YAXPEAX_K@Z ENDP		; __empty_global_delete
_TEXT	ENDS
; Function compile flags: /Odtp
;	COMDAT ?__empty_global_delete@@YAXPEAX@Z
_TEXT	SEGMENT
__formal$ = 8
?__empty_global_delete@@YAXPEAX@Z PROC			; __empty_global_delete, COMDAT
; File e:\g12_work\weidali_code\b\g12_4_b\ui\src\recipesuiplugin\x64\debug\moc\pages\moc_compoundsetui.cpp
; Line 120
	mov	QWORD PTR [rsp+8], rcx
	ret	0
?__empty_global_delete@@YAXPEAX@Z ENDP			; __empty_global_delete
_TEXT	ENDS
END
