; Listing generated by Microsoft (R) Optimizing Compiler Version 19.00.24215.1 

include listing.inc

INCLUDELIB MSVCRTD
INCLUDELIB OLDNAMES

CONST	SEGMENT
?qt_meta_stringdata_CSendMessage@@3Uqt_meta_stringdata_CSendMessage_t@@B DD 0ffffffffH ; qt_meta_stringdata_CSendMessage
	DD	0cH
	DD	00H
	ORG $+4
	DQ	0000000000000060H
	DD	0ffffffffH
	DD	0dH
	DD	00H
	ORG $+4
	DQ	0000000000000055H
	DD	0ffffffffH
	DD	00H
	DD	00H
	ORG $+4
	DQ	000000000000004bH
	DD	0ffffffffH
	DD	016H
	DD	00H
	ORG $+4
	DQ	0000000000000034H
	DB	'CSendMessage', 00H, 'signalMessage', 00H, 00H, 'signalLo'
	DB	'ginModelChange', 00H
	ORG $+5
$SG269849 DB	'!x->ref.isStatic()', 00H
	ORG $+5
?qt_meta_data_CSendMessage@@3QBIB DD 07H		; qt_meta_data_CSendMessage
	DD	00H
	DD	00H
	DD	00H
	DD	02H
	DD	0eH
	DD	00H
	DD	00H
	DD	00H
	DD	00H
	DD	00H
	DD	00H
	DD	00H
	DD	02H
	DD	01H
	DD	02H
	DD	018H
	DD	02H
	DD	06H
	DD	03H
	DD	01H
	DD	01dH
	DD	02H
	DD	06H
	DD	02bH
	DD	0aH
	DD	02H
	DD	02H
	DD	02H
	DD	02bH
	DD	02H
	DD	02H
	DD	00H
	ORG $+4
$SG274484 DB	'C:\Qt\Qt5.9.3\5.9.3\msvc2015_64\include\QtCore/qmetatype'
	DB	'.h', 00H
	ORG $+5
$SG274486 DB	'qRegisterNormalizedMetaType', 00H
$SG269861 DB	'x == d', 00H
	ORG $+5
$SG274485 DB	'qRegisterNormalizedMetaType was called with a not normal'
	DB	'ized type name, please call qRegisterMetaType instead.', 00H
	ORG $+1
$SG275513 DB	'C:\Qt\Qt5.9.3\5.9.3\msvc2015_64\include\QtCore/qmetatype'
	DB	'.h', 00H
	ORG $+5
$SG275514 DB	'qRegisterNormalizedMetaType was called with a not normal'
	DB	'ized type name, please call qRegisterMetaType instead.', 00H
	ORG $+1
$SG275515 DB	'qRegisterNormalizedMetaType', 00H
	ORG $+4
$SG276604 DB	'C:\Qt\Qt5.9.3\5.9.3\msvc2015_64\include\QtCore/qmetatype'
	DB	'.h', 00H
	ORG $+5
$SG276605 DB	'qRegisterNormalizedMetaType was called with a not normal'
	DB	'ized type name, please call qRegisterMetaType instead.', 00H
	ORG $+1
$SG276606 DB	'qRegisterNormalizedMetaType', 00H
	ORG $+4
$SG271525 DB	'C:\Qt\Qt5.9.3\5.9.3\msvc2015_64\include\QtCore/qmetatype'
	DB	'.h', 00H
	ORG $+5
$SG271526 DB	'qRegisterNormalizedMetaType was called with a not normal'
	DB	'ized type name, please call qRegisterMetaType instead.', 00H
	ORG $+1
$SG271527 DB	'qRegisterNormalizedMetaType', 00H
	ORG $+4
$SG273576 DB	'C:\Qt\Qt5.9.3\5.9.3\msvc2015_64\include\QtCore/qmetatype'
	DB	'.h', 00H
	ORG $+5
$SG273577 DB	'qRegisterNormalizedMetaType was called with a not normal'
	DB	'ized type name, please call qRegisterMetaType instead.', 00H
	ORG $+1
$SG273578 DB	'qRegisterNormalizedMetaType', 00H
	ORG $+4
$SG278701 DB	'C:\Qt\Qt5.9.3\5.9.3\msvc2015_64\include\QtCore/qmetatype'
	DB	'.h', 00H
	ORG $+5
$SG278702 DB	'qRegisterNormalizedMetaType was called with a not normal'
	DB	'ized type name, please call qRegisterMetaType instead.', 00H
	ORG $+1
$SG278703 DB	'qRegisterNormalizedMetaType', 00H
	ORG $+4
$SG277681 DB	'C:\Qt\Qt5.9.3\5.9.3\msvc2015_64\include\QtCore/qmetatype'
	DB	'.h', 00H
	ORG $+5
$SG277682 DB	'qRegisterNormalizedMetaType was called with a not normal'
	DB	'ized type name, please call qRegisterMetaType instead.', 00H
	ORG $+1
$SG277683 DB	'qRegisterNormalizedMetaType', 00H
	ORG $+4
$SG279783 DB	'C:\Qt\Qt5.9.3\5.9.3\msvc2015_64\include\QtCore/qmetatype'
	DB	'.h', 00H
	ORG $+5
$SG279784 DB	'qRegisterNormalizedMetaType was called with a not normal'
	DB	'ized type name, please call qRegisterMetaType instead.', 00H
	ORG $+1
$SG279785 DB	'qRegisterNormalizedMetaType', 00H
	ORG $+4
$SG280865 DB	'C:\Qt\Qt5.9.3\5.9.3\msvc2015_64\include\QtCore/qmetatype'
	DB	'.h', 00H
	ORG $+5
$SG280866 DB	'qRegisterNormalizedMetaType was called with a not normal'
	DB	'ized type name, please call qRegisterMetaType instead.', 00H
	ORG $+1
$SG280867 DB	'qRegisterNormalizedMetaType', 00H
	ORG $+4
$SG281948 DB	'C:\Qt\Qt5.9.3\5.9.3\msvc2015_64\include\QtCore/qmetatype'
	DB	'.h', 00H
	ORG $+5
$SG281949 DB	'qRegisterNormalizedMetaType was called with a not normal'
	DB	'ized type name, please call qRegisterMetaType instead.', 00H
	ORG $+1
$SG281950 DB	'qRegisterNormalizedMetaType', 00H
	ORG $+4
$SG274786 DB	'C:\Qt\Qt5.9.3\5.9.3\msvc2015_64\include\QtCore/qmetatype'
	DB	'.h', 00H
	ORG $+5
$SG274787 DB	'qRegisterNormalizedMetaType was called with a not normal'
	DB	'ized type name, please call qRegisterMetaType instead.', 00H
	ORG $+1
$SG274788 DB	'qRegisterNormalizedMetaType', 00H
	ORG $+4
$SG275886 DB	'C:\Qt\Qt5.9.3\5.9.3\msvc2015_64\include\QtCore/qmetatype'
	DB	'.h', 00H
	ORG $+5
$SG275887 DB	'qRegisterNormalizedMetaType was called with a not normal'
	DB	'ized type name, please call qRegisterMetaType instead.', 00H
	ORG $+1
$SG275888 DB	'qRegisterNormalizedMetaType', 00H
	ORG $+4
$SG271827 DB	'C:\Qt\Qt5.9.3\5.9.3\msvc2015_64\include\QtCore/qmetatype'
	DB	'.h', 00H
	ORG $+5
$SG271828 DB	'qRegisterNormalizedMetaType was called with a not normal'
	DB	'ized type name, please call qRegisterMetaType instead.', 00H
	ORG $+1
$SG271829 DB	'qRegisterNormalizedMetaType', 00H
	ORG $+4
$SG273878 DB	'C:\Qt\Qt5.9.3\5.9.3\msvc2015_64\include\QtCore/qmetatype'
	DB	'.h', 00H
	ORG $+5
$SG273879 DB	'qRegisterNormalizedMetaType was called with a not normal'
	DB	'ized type name, please call qRegisterMetaType instead.', 00H
	ORG $+1
$SG273880 DB	'qRegisterNormalizedMetaType', 00H
	ORG $+4
$SG279003 DB	'C:\Qt\Qt5.9.3\5.9.3\msvc2015_64\include\QtCore/qmetatype'
	DB	'.h', 00H
	ORG $+5
$SG279004 DB	'qRegisterNormalizedMetaType was called with a not normal'
	DB	'ized type name, please call qRegisterMetaType instead.', 00H
	ORG $+1
$SG279005 DB	'qRegisterNormalizedMetaType', 00H
	ORG $+4
$SG276963 DB	'C:\Qt\Qt5.9.3\5.9.3\msvc2015_64\include\QtCore/qmetatype'
	DB	'.h', 00H
	ORG $+5
$SG276964 DB	'qRegisterNormalizedMetaType was called with a not normal'
	DB	'ized type name, please call qRegisterMetaType instead.', 00H
	ORG $+1
$SG276965 DB	'qRegisterNormalizedMetaType', 00H
	ORG $+4
$SG269837 DB	'C:\Qt\Qt5.9.3\5.9.3\msvc2015_64\include\QtCore/qvector.h'
	DB	00H
	ORG $+7
$SG269838 DB	'asize >= 0 && asize <= aalloc', 00H
	ORG $+2
$SG280085 DB	'C:\Qt\Qt5.9.3\5.9.3\msvc2015_64\include\QtCore/qmetatype'
	DB	'.h', 00H
	ORG $+5
$SG280086 DB	'qRegisterNormalizedMetaType was called with a not normal'
	DB	'ized type name, please call qRegisterMetaType instead.', 00H
	ORG $+1
$SG269846 DB	'C:\Qt\Qt5.9.3\5.9.3\msvc2015_64\include\QtCore/qvector.h'
	DB	00H
	ORG $+7
$SG280087 DB	'qRegisterNormalizedMetaType', 00H
	ORG $+4
$SG269847 DB	'x->ref.isSharable() || options.testFlag(QArrayData::Unsh'
	DB	'arable)', 00H
$SG278040 DB	'C:\Qt\Qt5.9.3\5.9.3\msvc2015_64\include\QtCore/qmetatype'
	DB	'.h', 00H
	ORG $+5
$SG269848 DB	'C:\Qt\Qt5.9.3\5.9.3\msvc2015_64\include\QtCore/qvector.h'
	DB	00H
	ORG $+7
$SG278041 DB	'qRegisterNormalizedMetaType was called with a not normal'
	DB	'ized type name, please call qRegisterMetaType instead.', 00H
	ORG $+1
$SG278042 DB	'qRegisterNormalizedMetaType', 00H
	ORG $+4
$SG269856 DB	'C:\Qt\Qt5.9.3\5.9.3\msvc2015_64\include\QtCore/qvector.h'
	DB	00H
	ORG $+7
$SG269857 DB	'int(d->alloc) == aalloc', 00H
$SG269858 DB	'C:\Qt\Qt5.9.3\5.9.3\msvc2015_64\include\QtCore/qvector.h'
	DB	00H
	ORG $+7
$SG269859 DB	'isDetached()', 00H
	ORG $+3
$SG269860 DB	'C:\Qt\Qt5.9.3\5.9.3\msvc2015_64\include\QtCore/qvector.h'
	DB	00H
	ORG $+7
$SG269869 DB	'C:\Qt\Qt5.9.3\5.9.3\msvc2015_64\include\QtCore/qvector.h'
	DB	00H
	ORG $+7
$SG269870 DB	'd->data()', 00H
	ORG $+6
$SG269871 DB	'C:\Qt\Qt5.9.3\5.9.3\msvc2015_64\include\QtCore/qvector.h'
	DB	00H
	ORG $+7
$SG269872 DB	'uint(d->size) <= d->alloc', 00H
	ORG $+6
$SG269873 DB	'C:\Qt\Qt5.9.3\5.9.3\msvc2015_64\include\QtCore/qvector.h'
	DB	00H
	ORG $+7
$SG269874 DB	'd != Data::unsharableEmpty()', 00H
	ORG $+3
$SG269875 DB	'C:\Qt\Qt5.9.3\5.9.3\msvc2015_64\include\QtCore/qvector.h'
	DB	00H
	ORG $+7
$SG269876 DB	'aalloc ? d != Data::sharedNull() : d == Data::sharedNull'
	DB	'()', 00H
	ORG $+5
$SG269877 DB	'C:\Qt\Qt5.9.3\5.9.3\msvc2015_64\include\QtCore/qvector.h'
	DB	00H
	ORG $+7
$SG269878 DB	'd->alloc >= uint(aalloc)', 00H
	ORG $+7
$SG269879 DB	'C:\Qt\Qt5.9.3\5.9.3\msvc2015_64\include\QtCore/qvector.h'
	DB	00H
	ORG $+7
$SG269880 DB	'd->size == asize', 00H
	ORG $+7
$SG272972 DB	'C:\Qt\Qt5.9.3\5.9.3\msvc2015_64\include\QtCore/qmetatype'
	DB	'.h', 00H
	ORG $+5
$SG272973 DB	'qRegisterNormalizedMetaType was called with a not normal'
	DB	'ized type name, please call qRegisterMetaType instead.', 00H
	ORG $+1
$SG272974 DB	'qRegisterNormalizedMetaType', 00H
	ORG $+4
$SG281167 DB	'C:\Qt\Qt5.9.3\5.9.3\msvc2015_64\include\QtCore/qmetatype'
	DB	'.h', 00H
	ORG $+5
$SG281168 DB	'qRegisterNormalizedMetaType was called with a not normal'
	DB	'ized type name, please call qRegisterMetaType instead.', 00H
	ORG $+1
$SG281169 DB	'qRegisterNormalizedMetaType', 00H
	ORG $+4
$SG275176 DB	'C:\Qt\Qt5.9.3\5.9.3\msvc2015_64\include\QtCore/qmetatype'
	DB	'.h', 00H
	ORG $+5
$SG275177 DB	'qRegisterNormalizedMetaType was called with a not normal'
	DB	'ized type name, please call qRegisterMetaType instead.', 00H
	ORG $+1
$SG275178 DB	'qRegisterNormalizedMetaType', 00H
	ORG $+4
$SG272129 DB	'C:\Qt\Qt5.9.3\5.9.3\msvc2015_64\include\QtCore/qmetatype'
	DB	'.h', 00H
	ORG $+5
$SG272130 DB	'qRegisterNormalizedMetaType was called with a not normal'
	DB	'ized type name, please call qRegisterMetaType instead.', 00H
	ORG $+1
$SG272131 DB	'qRegisterNormalizedMetaType', 00H
	ORG $+4
$SG274180 DB	'C:\Qt\Qt5.9.3\5.9.3\msvc2015_64\include\QtCore/qmetatype'
	DB	'.h', 00H
	ORG $+5
$SG274181 DB	'qRegisterNormalizedMetaType was called with a not normal'
	DB	'ized type name, please call qRegisterMetaType instead.', 00H
	ORG $+1
$SG274182 DB	'qRegisterNormalizedMetaType', 00H
	ORG $+4
$SG276245 DB	'C:\Qt\Qt5.9.3\5.9.3\msvc2015_64\include\QtCore/qmetatype'
	DB	'.h', 00H
	ORG $+5
$SG276246 DB	'qRegisterNormalizedMetaType was called with a not normal'
	DB	'ized type name, please call qRegisterMetaType instead.', 00H
	ORG $+1
$SG276247 DB	'qRegisterNormalizedMetaType', 00H
	ORG $+4
$SG277322 DB	'C:\Qt\Qt5.9.3\5.9.3\msvc2015_64\include\QtCore/qmetatype'
	DB	'.h', 00H
	ORG $+5
$SG277323 DB	'qRegisterNormalizedMetaType was called with a not normal'
	DB	'ized type name, please call qRegisterMetaType instead.', 00H
	ORG $+1
$SG277324 DB	'qRegisterNormalizedMetaType', 00H
	ORG $+4
$SG279393 DB	'C:\Qt\Qt5.9.3\5.9.3\msvc2015_64\include\QtCore/qmetatype'
	DB	'.h', 00H
	ORG $+5
$SG279394 DB	'qRegisterNormalizedMetaType was called with a not normal'
	DB	'ized type name, please call qRegisterMetaType instead.', 00H
	ORG $+1
$SG279395 DB	'qRegisterNormalizedMetaType', 00H
	ORG $+4
$SG273274 DB	'C:\Qt\Qt5.9.3\5.9.3\msvc2015_64\include\QtCore/qmetatype'
	DB	'.h', 00H
	ORG $+5
$SG273275 DB	'qRegisterNormalizedMetaType was called with a not normal'
	DB	'ized type name, please call qRegisterMetaType instead.', 00H
	ORG $+1
$SG273276 DB	'qRegisterNormalizedMetaType', 00H
	ORG $+4
$SG278399 DB	'C:\Qt\Qt5.9.3\5.9.3\msvc2015_64\include\QtCore/qmetatype'
	DB	'.h', 00H
	ORG $+5
$SG278400 DB	'qRegisterNormalizedMetaType was called with a not normal'
	DB	'ized type name, please call qRegisterMetaType instead.', 00H
	ORG $+1
$SG278401 DB	'qRegisterNormalizedMetaType', 00H
	ORG $+4
$SG280475 DB	'C:\Qt\Qt5.9.3\5.9.3\msvc2015_64\include\QtCore/qmetatype'
	DB	'.h', 00H
	ORG $+5
$SG280476 DB	'qRegisterNormalizedMetaType was called with a not normal'
	DB	'ized type name, please call qRegisterMetaType instead.', 00H
	ORG $+1
$SG280477 DB	'qRegisterNormalizedMetaType', 00H
CONST	ENDS
PUBLIC	?__empty_global_delete@@YAXPEAX@Z		; __empty_global_delete
PUBLIC	?__empty_global_delete@@YAXPEAX_K@Z		; __empty_global_delete
PUBLIC	??C?$QScopedPointer@VQObjectData@@U?$QScopedPointerDeleter@VQObjectData@@@@@@QEBAPEAVQObjectData@@XZ ; QScopedPointer<QObjectData,QScopedPointerDeleter<QObjectData> >::operator->
PUBLIC	?metaObject@CSendMessage@@UEBAPEBUQMetaObject@@XZ ; CSendMessage::metaObject
PUBLIC	?qt_metacast@CSendMessage@@UEAAPEAXPEBD@Z	; CSendMessage::qt_metacast
PUBLIC	?qt_metacall@CSendMessage@@UEAAHW4Call@QMetaObject@@HPEAPEAX@Z ; CSendMessage::qt_metacall
PUBLIC	?qt_static_metacall@CSendMessage@@CAXPEAVQObject@@W4Call@QMetaObject@@HPEAPEAX@Z ; CSendMessage::qt_static_metacall
PUBLIC	?signalMessage@CSendMessage@@QEAAXAEBVQString@@H@Z ; CSendMessage::signalMessage
PUBLIC	?signalLoginModelChange@CSendMessage@@QEAAXH@Z	; CSendMessage::signalLoginModelChange
PUBLIC	?staticMetaObject@CSendMessage@@2UQMetaObject@@B ; CSendMessage::staticMetaObject
EXTRN	strcmp:PROC
EXTRN	__imp_?activate@QMetaObject@@SAXPEAVQObject@@PEBU1@HPEAPEAX@Z:PROC
EXTRN	__imp_?dynamicMetaObject@QObjectData@@QEBAPEAUQMetaObject@@XZ:PROC
EXTRN	__imp_?qt_metacast@QObject@@UEAAPEAXPEBD@Z:PROC
EXTRN	__imp_?qt_metacall@QObject@@UEAAHW4Call@QMetaObject@@HPEAPEAX@Z:PROC
EXTRN	__GSHandlerCheck:PROC
EXTRN	__security_check_cookie:PROC
EXTRN	__imp_?staticMetaObject@QObject@@2UQMetaObject@@B:BYTE
EXTRN	__security_cookie:QWORD
_BSS	SEGMENT
?staticMetaObject@CSendMessage@@2UQMetaObject@@B DB 030H DUP (?) ; CSendMessage::staticMetaObject
_BSS	ENDS
pdata	SEGMENT
$pdata$?metaObject@CSendMessage@@UEBAPEBUQMetaObject@@XZ DD imagerel $LN5
	DD	imagerel $LN5+88
	DD	imagerel $unwind$?metaObject@CSendMessage@@UEBAPEBUQMetaObject@@XZ
$pdata$?qt_metacast@CSendMessage@@UEAAPEAXPEBD@Z DD imagerel $LN5
	DD	imagerel $LN5+75
	DD	imagerel $unwind$?qt_metacast@CSendMessage@@UEAAPEAXPEBD@Z
$pdata$?qt_metacall@CSendMessage@@UEAAHW4Call@QMetaObject@@HPEAPEAX@Z DD imagerel $LN9
	DD	imagerel $LN9+174
	DD	imagerel $unwind$?qt_metacall@CSendMessage@@UEAAHW4Call@QMetaObject@@HPEAPEAX@Z
$pdata$?qt_static_metacall@CSendMessage@@CAXPEAVQObject@@W4Call@QMetaObject@@HPEAPEAX@Z DD imagerel $LN13
	DD	imagerel $LN13+266
	DD	imagerel $unwind$?qt_static_metacall@CSendMessage@@CAXPEAVQObject@@W4Call@QMetaObject@@HPEAPEAX@Z
$pdata$?signalMessage@CSendMessage@@QEAAXAEBVQString@@H@Z DD imagerel $LN3
	DD	imagerel $LN3+107
	DD	imagerel $unwind$?signalMessage@CSendMessage@@QEAAXAEBVQString@@H@Z
$pdata$?signalLoginModelChange@CSendMessage@@QEAAXH@Z DD imagerel $LN3
	DD	imagerel $LN3+66
	DD	imagerel $unwind$?signalLoginModelChange@CSendMessage@@QEAAXH@Z
pdata	ENDS
CRT$XCU	SEGMENT
??staticMetaObject$initializer$@CSendMessage@@2P6AXXZEA@@3P6AXXZEA DQ FLAT:??__E?staticMetaObject@CSendMessage@@2UQMetaObject@@B@@YAXXZ ; ??staticMetaObject$initializer$@CSendMessage@@2P6AXXZEA@@3P6AXXZEA
CRT$XCU	ENDS
xdata	SEGMENT
$unwind$?metaObject@CSendMessage@@UEBAPEBUQMetaObject@@XZ DD 010901H
	DD	06209H
$unwind$?qt_metacast@CSendMessage@@UEAAPEAXPEBD@Z DD 010e01H
	DD	0420eH
$unwind$?qt_metacall@CSendMessage@@UEAAHW4Call@QMetaObject@@HPEAPEAX@Z DD 011701H
	DD	04217H
$unwind$?qt_static_metacall@CSendMessage@@CAXPEAVQObject@@W4Call@QMetaObject@@HPEAPEAX@Z DD 011701H
	DD	08217H
$unwind$?signalMessage@CSendMessage@@QEAAXAEBVQString@@H@Z DD 012219H
	DD	08213H
	DD	imagerel __GSHandlerCheck
	DD	038H
$unwind$?signalLoginModelChange@CSendMessage@@QEAAXH@Z DD 010d01H
	DD	0620dH
xdata	ENDS
; Function compile flags: /Odtp
;	COMDAT ??__E?staticMetaObject@CSendMessage@@2UQMetaObject@@B@@YAXXZ
text$di	SEGMENT
??__E?staticMetaObject@CSendMessage@@2UQMetaObject@@B@@YAXXZ PROC ; `dynamic initializer for 'CSendMessage::staticMetaObject'', COMDAT
; File e:\g12_work\weidali_code\b\g12_4_b\ui\src\recipesuiplugin\x64\debug\moc\moc_sendmessage.cpp
; Line 99
	mov	rax, QWORD PTR __imp_?staticMetaObject@QObject@@2UQMetaObject@@B
	mov	QWORD PTR ?staticMetaObject@CSendMessage@@2UQMetaObject@@B, rax
	lea	rax, OFFSET FLAT:?qt_meta_stringdata_CSendMessage@@3Uqt_meta_stringdata_CSendMessage_t@@B
	mov	QWORD PTR ?staticMetaObject@CSendMessage@@2UQMetaObject@@B+8, rax
; Line 100
	lea	rax, OFFSET FLAT:?qt_meta_data_CSendMessage@@3QBIB
	mov	QWORD PTR ?staticMetaObject@CSendMessage@@2UQMetaObject@@B+16, rax
	lea	rax, OFFSET FLAT:?qt_static_metacall@CSendMessage@@CAXPEAVQObject@@W4Call@QMetaObject@@HPEAPEAX@Z ; CSendMessage::qt_static_metacall
	mov	QWORD PTR ?staticMetaObject@CSendMessage@@2UQMetaObject@@B+24, rax
	mov	QWORD PTR ?staticMetaObject@CSendMessage@@2UQMetaObject@@B+32, 0
	mov	QWORD PTR ?staticMetaObject@CSendMessage@@2UQMetaObject@@B+40, 0
	ret	0
??__E?staticMetaObject@CSendMessage@@2UQMetaObject@@B@@YAXXZ ENDP ; `dynamic initializer for 'CSendMessage::staticMetaObject''
text$di	ENDS
; Function compile flags: /Odtp
_TEXT	SEGMENT
_a$ = 32
this$ = 64
_t1$ = 72
?signalLoginModelChange@CSendMessage@@QEAAXH@Z PROC	; CSendMessage::signalLoginModelChange
; File e:\g12_work\weidali_code\b\g12_4_b\ui\src\recipesuiplugin\x64\debug\moc\moc_sendmessage.cpp
; Line 143
$LN3:
	mov	DWORD PTR [rsp+16], edx
	mov	QWORD PTR [rsp+8], rcx
	sub	rsp, 56					; 00000038H
; Line 144
	mov	QWORD PTR _a$[rsp], 0
	lea	rax, QWORD PTR _t1$[rsp]
	mov	QWORD PTR _a$[rsp+8], rax
; Line 145
	lea	r9, QWORD PTR _a$[rsp]
	mov	r8d, 1
	lea	rdx, OFFSET FLAT:?staticMetaObject@CSendMessage@@2UQMetaObject@@B ; CSendMessage::staticMetaObject
	mov	rcx, QWORD PTR this$[rsp]
	call	QWORD PTR __imp_?activate@QMetaObject@@SAXPEAVQObject@@PEBU1@HPEAPEAX@Z
; Line 146
	add	rsp, 56					; 00000038H
	ret	0
?signalLoginModelChange@CSendMessage@@QEAAXH@Z ENDP	; CSendMessage::signalLoginModelChange
_TEXT	ENDS
; Function compile flags: /Odtp
_TEXT	SEGMENT
_a$ = 32
__$ArrayPad$ = 56
this$ = 80
_t1$ = 88
_t2$ = 96
?signalMessage@CSendMessage@@QEAAXAEBVQString@@H@Z PROC	; CSendMessage::signalMessage
; File e:\g12_work\weidali_code\b\g12_4_b\ui\src\recipesuiplugin\x64\debug\moc\moc_sendmessage.cpp
; Line 136
$LN3:
	mov	DWORD PTR [rsp+24], r8d
	mov	QWORD PTR [rsp+16], rdx
	mov	QWORD PTR [rsp+8], rcx
	sub	rsp, 72					; 00000048H
	mov	rax, QWORD PTR __security_cookie
	xor	rax, rsp
	mov	QWORD PTR __$ArrayPad$[rsp], rax
; Line 137
	mov	QWORD PTR _a$[rsp], 0
	mov	rax, QWORD PTR _t1$[rsp]
	mov	QWORD PTR _a$[rsp+8], rax
	lea	rax, QWORD PTR _t2$[rsp]
	mov	QWORD PTR _a$[rsp+16], rax
; Line 138
	lea	r9, QWORD PTR _a$[rsp]
	xor	r8d, r8d
	lea	rdx, OFFSET FLAT:?staticMetaObject@CSendMessage@@2UQMetaObject@@B ; CSendMessage::staticMetaObject
	mov	rcx, QWORD PTR this$[rsp]
	call	QWORD PTR __imp_?activate@QMetaObject@@SAXPEAVQObject@@PEBU1@HPEAPEAX@Z
; Line 139
	mov	rcx, QWORD PTR __$ArrayPad$[rsp]
	xor	rcx, rsp
	call	__security_check_cookie
	add	rsp, 72					; 00000048H
	ret	0
?signalMessage@CSendMessage@@QEAAXAEBVQString@@H@Z ENDP	; CSendMessage::signalMessage
_TEXT	ENDS
; Function compile flags: /Odtp
_TEXT	SEGMENT
tv69 = 32
_t$1 = 40
result$2 = 48
_o$ = 80
_c$ = 88
_id$ = 96
_a$ = 104
?qt_static_metacall@CSendMessage@@CAXPEAVQObject@@W4Call@QMetaObject@@HPEAPEAX@Z PROC ; CSendMessage::qt_static_metacall
; File e:\g12_work\weidali_code\b\g12_4_b\ui\src\recipesuiplugin\x64\debug\moc\moc_sendmessage.cpp
; Line 70
$LN13:
	mov	QWORD PTR [rsp+32], r9
	mov	DWORD PTR [rsp+24], r8d
	mov	DWORD PTR [rsp+16], edx
	mov	QWORD PTR [rsp+8], rcx
	sub	rsp, 72					; 00000048H
; Line 71
	cmp	DWORD PTR _c$[rsp], 0
	jne	SHORT $LN4@qt_static_
; Line 72
	mov	rax, QWORD PTR _o$[rsp]
	mov	QWORD PTR _t$1[rsp], rax
; Line 74
	mov	eax, DWORD PTR _id$[rsp]
	mov	DWORD PTR tv69[rsp], eax
	cmp	DWORD PTR tv69[rsp], 0
	je	SHORT $LN6@qt_static_
	cmp	DWORD PTR tv69[rsp], 1
	je	SHORT $LN7@qt_static_
	jmp	SHORT $LN8@qt_static_
$LN6@qt_static_:
; Line 75
	mov	eax, 8
	imul	rax, rax, 2
	mov	rcx, QWORD PTR _a$[rsp]
	mov	rax, QWORD PTR [rcx+rax]
	mov	ecx, 8
	imul	rcx, rcx, 1
	mov	r8d, DWORD PTR [rax]
	mov	rax, QWORD PTR _a$[rsp]
	mov	rdx, QWORD PTR [rax+rcx]
	mov	rcx, QWORD PTR _t$1[rsp]
	call	?signalMessage@CSendMessage@@QEAAXAEBVQString@@H@Z ; CSendMessage::signalMessage
	jmp	SHORT $LN2@qt_static_
$LN7@qt_static_:
; Line 76
	mov	eax, 8
	imul	rax, rax, 1
	mov	rcx, QWORD PTR _a$[rsp]
	mov	rax, QWORD PTR [rcx+rax]
	mov	edx, DWORD PTR [rax]
	mov	rcx, QWORD PTR _t$1[rsp]
	call	?signalLoginModelChange@CSendMessage@@QEAAXH@Z ; CSendMessage::signalLoginModelChange
$LN8@qt_static_:
$LN2@qt_static_:
; Line 79
	jmp	SHORT $LN5@qt_static_
$LN4@qt_static_:
	cmp	DWORD PTR _c$[rsp], 10
	jne	SHORT $LN9@qt_static_
; Line 80
	mov	eax, 8
	imul	rax, rax, 0
	mov	rcx, QWORD PTR _a$[rsp]
	mov	rax, QWORD PTR [rcx+rax]
	mov	QWORD PTR result$2[rsp], rax
; Line 83
	mov	eax, 8
	imul	rax, rax, 1
	mov	rcx, QWORD PTR _a$[rsp]
	mov	rax, QWORD PTR [rcx+rax]
	lea	rcx, OFFSET FLAT:?signalMessage@CSendMessage@@QEAAXAEBVQString@@H@Z ; CSendMessage::signalMessage
	cmp	QWORD PTR [rax], rcx
	jne	SHORT $LN10@qt_static_
; Line 84
	mov	rax, QWORD PTR result$2[rsp]
	mov	DWORD PTR [rax], 0
; Line 85
	jmp	SHORT $LN1@qt_static_
$LN10@qt_static_:
; Line 90
	mov	eax, 8
	imul	rax, rax, 1
	mov	rcx, QWORD PTR _a$[rsp]
	mov	rax, QWORD PTR [rcx+rax]
	lea	rcx, OFFSET FLAT:?signalLoginModelChange@CSendMessage@@QEAAXH@Z ; CSendMessage::signalLoginModelChange
	cmp	QWORD PTR [rax], rcx
	jne	SHORT $LN11@qt_static_
; Line 91
	mov	rax, QWORD PTR result$2[rsp]
	mov	DWORD PTR [rax], 1
$LN11@qt_static_:
$LN9@qt_static_:
$LN5@qt_static_:
$LN1@qt_static_:
; Line 96
	add	rsp, 72					; 00000048H
	ret	0
?qt_static_metacall@CSendMessage@@CAXPEAVQObject@@W4Call@QMetaObject@@HPEAPEAX@Z ENDP ; CSendMessage::qt_static_metacall
_TEXT	ENDS
; Function compile flags: /Odtp
_TEXT	SEGMENT
this$ = 48
_c$ = 56
_id$ = 64
_a$ = 72
?qt_metacall@CSendMessage@@UEAAHW4Call@QMetaObject@@HPEAPEAX@Z PROC ; CSendMessage::qt_metacall
; File e:\g12_work\weidali_code\b\g12_4_b\ui\src\recipesuiplugin\x64\debug\moc\moc_sendmessage.cpp
; Line 118
$LN9:
	mov	QWORD PTR [rsp+32], r9
	mov	DWORD PTR [rsp+24], r8d
	mov	DWORD PTR [rsp+16], edx
	mov	QWORD PTR [rsp+8], rcx
	sub	rsp, 40					; 00000028H
; Line 119
	mov	r9, QWORD PTR _a$[rsp]
	mov	r8d, DWORD PTR _id$[rsp]
	mov	edx, DWORD PTR _c$[rsp]
	mov	rcx, QWORD PTR this$[rsp]
	call	QWORD PTR __imp_?qt_metacall@QObject@@UEAAHW4Call@QMetaObject@@HPEAPEAX@Z
	mov	DWORD PTR _id$[rsp], eax
; Line 120
	cmp	DWORD PTR _id$[rsp], 0
	jge	SHORT $LN2@qt_metacal
; Line 121
	mov	eax, DWORD PTR _id$[rsp]
	jmp	SHORT $LN1@qt_metacal
$LN2@qt_metacal:
; Line 122
	cmp	DWORD PTR _c$[rsp], 0
	jne	SHORT $LN3@qt_metacal
; Line 123
	cmp	DWORD PTR _id$[rsp], 2
	jge	SHORT $LN5@qt_metacal
; Line 124
	mov	r9, QWORD PTR _a$[rsp]
	mov	r8d, DWORD PTR _id$[rsp]
	mov	edx, DWORD PTR _c$[rsp]
	mov	rcx, QWORD PTR this$[rsp]
	call	?qt_static_metacall@CSendMessage@@CAXPEAVQObject@@W4Call@QMetaObject@@HPEAPEAX@Z ; CSendMessage::qt_static_metacall
$LN5@qt_metacal:
; Line 125
	mov	eax, DWORD PTR _id$[rsp]
	sub	eax, 2
	mov	DWORD PTR _id$[rsp], eax
	jmp	SHORT $LN4@qt_metacal
$LN3@qt_metacal:
; Line 126
	cmp	DWORD PTR _c$[rsp], 12
	jne	SHORT $LN6@qt_metacal
; Line 127
	cmp	DWORD PTR _id$[rsp], 2
	jge	SHORT $LN7@qt_metacal
; Line 128
	mov	eax, 8
	imul	rax, rax, 0
	mov	rcx, QWORD PTR _a$[rsp]
	mov	rax, QWORD PTR [rcx+rax]
	mov	DWORD PTR [rax], -1
$LN7@qt_metacal:
; Line 129
	mov	eax, DWORD PTR _id$[rsp]
	sub	eax, 2
	mov	DWORD PTR _id$[rsp], eax
$LN6@qt_metacal:
$LN4@qt_metacal:
; Line 131
	mov	eax, DWORD PTR _id$[rsp]
$LN1@qt_metacal:
; Line 132
	add	rsp, 40					; 00000028H
	ret	0
?qt_metacall@CSendMessage@@UEAAHW4Call@QMetaObject@@HPEAPEAX@Z ENDP ; CSendMessage::qt_metacall
_TEXT	ENDS
; Function compile flags: /Odtp
_TEXT	SEGMENT
this$ = 48
_clname$ = 56
?qt_metacast@CSendMessage@@UEAAPEAXPEBD@Z PROC		; CSendMessage::qt_metacast
; File e:\g12_work\weidali_code\b\g12_4_b\ui\src\recipesuiplugin\x64\debug\moc\moc_sendmessage.cpp
; Line 110
$LN5:
	mov	QWORD PTR [rsp+16], rdx
	mov	QWORD PTR [rsp+8], rcx
	sub	rsp, 40					; 00000028H
; Line 111
	cmp	QWORD PTR _clname$[rsp], 0
	jne	SHORT $LN2@qt_metacas
	xor	eax, eax
	jmp	SHORT $LN1@qt_metacas
$LN2@qt_metacas:
; Line 112
	lea	rdx, OFFSET FLAT:?qt_meta_stringdata_CSendMessage@@3Uqt_meta_stringdata_CSendMessage_t@@B+96
	mov	rcx, QWORD PTR _clname$[rsp]
	call	strcmp
	test	eax, eax
	jne	SHORT $LN3@qt_metacas
; Line 113
	mov	rax, QWORD PTR this$[rsp]
	jmp	SHORT $LN1@qt_metacas
$LN3@qt_metacas:
; Line 114
	mov	rdx, QWORD PTR _clname$[rsp]
	mov	rcx, QWORD PTR this$[rsp]
	call	QWORD PTR __imp_?qt_metacast@QObject@@UEAAPEAXPEBD@Z
$LN1@qt_metacas:
; Line 115
	add	rsp, 40					; 00000028H
	ret	0
?qt_metacast@CSendMessage@@UEAAPEAXPEBD@Z ENDP		; CSendMessage::qt_metacast
_TEXT	ENDS
; Function compile flags: /Odtp
_TEXT	SEGMENT
tv82 = 32
this$ = 64
?metaObject@CSendMessage@@UEBAPEBUQMetaObject@@XZ PROC	; CSendMessage::metaObject
; File e:\g12_work\weidali_code\b\g12_4_b\ui\src\recipesuiplugin\x64\debug\moc\moc_sendmessage.cpp
; Line 105
$LN5:
	mov	QWORD PTR [rsp+8], rcx
	sub	rsp, 56					; 00000038H
; Line 106
	mov	rax, QWORD PTR this$[rsp]
	add	rax, 8
	mov	rcx, rax
	call	??C?$QScopedPointer@VQObjectData@@U?$QScopedPointerDeleter@VQObjectData@@@@@@QEBAPEAVQObjectData@@XZ ; QScopedPointer<QObjectData,QScopedPointerDeleter<QObjectData> >::operator->
	cmp	QWORD PTR [rax+40], 0
	je	SHORT $LN3@metaObject
	mov	rax, QWORD PTR this$[rsp]
	add	rax, 8
	mov	rcx, rax
	call	??C?$QScopedPointer@VQObjectData@@U?$QScopedPointerDeleter@VQObjectData@@@@@@QEBAPEAVQObjectData@@XZ ; QScopedPointer<QObjectData,QScopedPointerDeleter<QObjectData> >::operator->
	mov	rcx, rax
	call	QWORD PTR __imp_?dynamicMetaObject@QObjectData@@QEBAPEAUQMetaObject@@XZ
	mov	QWORD PTR tv82[rsp], rax
	jmp	SHORT $LN4@metaObject
$LN3@metaObject:
	lea	rax, OFFSET FLAT:?staticMetaObject@CSendMessage@@2UQMetaObject@@B ; CSendMessage::staticMetaObject
	mov	QWORD PTR tv82[rsp], rax
$LN4@metaObject:
	mov	rax, QWORD PTR tv82[rsp]
; Line 107
	add	rsp, 56					; 00000038H
	ret	0
?metaObject@CSendMessage@@UEBAPEBUQMetaObject@@XZ ENDP	; CSendMessage::metaObject
_TEXT	ENDS
; Function compile flags: /Odtp
;	COMDAT ??C?$QScopedPointer@VQObjectData@@U?$QScopedPointerDeleter@VQObjectData@@@@@@QEBAPEAVQObjectData@@XZ
_TEXT	SEGMENT
this$ = 8
??C?$QScopedPointer@VQObjectData@@U?$QScopedPointerDeleter@VQObjectData@@@@@@QEBAPEAVQObjectData@@XZ PROC ; QScopedPointer<QObjectData,QScopedPointerDeleter<QObjectData> >::operator->, COMDAT
; File c:\qt\qt5.9.3\5.9.3\msvc2015_64\include\qtcore\qscopedpointer.h
; Line 117
	mov	QWORD PTR [rsp+8], rcx
; Line 118
	mov	rax, QWORD PTR this$[rsp]
	mov	rax, QWORD PTR [rax]
; Line 119
	ret	0
??C?$QScopedPointer@VQObjectData@@U?$QScopedPointerDeleter@VQObjectData@@@@@@QEBAPEAVQObjectData@@XZ ENDP ; QScopedPointer<QObjectData,QScopedPointerDeleter<QObjectData> >::operator->
_TEXT	ENDS
; Function compile flags: /Odtp
;	COMDAT ?__empty_global_delete@@YAXPEAX_K@Z
_TEXT	SEGMENT
__formal$ = 8
__formal$ = 16
?__empty_global_delete@@YAXPEAX_K@Z PROC		; __empty_global_delete, COMDAT
; File e:\g12_work\weidali_code\b\g12_4_b\ui\src\recipesuiplugin\x64\debug\moc\moc_sendmessage.cpp
; Line 149
	mov	QWORD PTR [rsp+16], rdx
	mov	QWORD PTR [rsp+8], rcx
	ret	0
?__empty_global_delete@@YAXPEAX_K@Z ENDP		; __empty_global_delete
_TEXT	ENDS
; Function compile flags: /Odtp
;	COMDAT ?__empty_global_delete@@YAXPEAX@Z
_TEXT	SEGMENT
__formal$ = 8
?__empty_global_delete@@YAXPEAX@Z PROC			; __empty_global_delete, COMDAT
; File e:\g12_work\weidali_code\b\g12_4_b\ui\src\recipesuiplugin\x64\debug\moc\moc_sendmessage.cpp
; Line 149
	mov	QWORD PTR [rsp+8], rcx
	ret	0
?__empty_global_delete@@YAXPEAX@Z ENDP			; __empty_global_delete
_TEXT	ENDS
END
