; Listing generated by Microsoft (R) Optimizing Compiler Version 19.00.24215.1 

include listing.inc

INCLUDELIB MSVCRTD
INCLUDELIB OLDNAMES

CONST	SEGMENT
?qt_resource_data@@3QBEB DB 00H				; qt_resource_data
	DB	00H
	DB	017H
	DB	018H
	DB	089H
	DB	050H
	DB	04eH
	DB	047H
	DB	0dH
	DB	0aH
	DB	01aH
	DB	0aH
	DB	00H
	DB	00H
	DB	00H
	DB	0dH
	DB	049H
	DB	048H
	DB	044H
	DB	052H
	DB	00H
	DB	00H
	DB	00H
	DB	020H
	DB	00H
	DB	00H
	DB	00H
	DB	020H
	DB	08H
	DB	06H
	DB	00H
	DB	00H
	DB	00H
	DB	073H
	DB	07aH
	DB	07aH
	DB	0f4H
	DB	00H
	DB	00H
	DB	00H
	DB	09H
	DB	070H
	DB	048H
	DB	059H
	DB	073H
	DB	00H
	DB	00H
	DB	0eH
	DB	0c4H
	DB	00H
	DB	00H
	DB	0eH
	DB	0c4H
	DB	01H
	DB	095H
	DB	02bH
	DB	0eH
	DB	01bH
	DB	00H
	DB	00H
	DB	0aH
	DB	04dH
	DB	069H
	DB	043H
	DB	043H
	DB	050H
	DB	050H
	DB	068H
	DB	06fH
	DB	074H
	DB	06fH
	DB	073H
	DB	068H
	DB	06fH
	DB	070H
	DB	020H
	DB	049H
	DB	043H
	DB	043H
	DB	020H
	DB	070H
	DB	072H
	DB	06fH
	DB	066H
	DB	069H
	DB	06cH
	DB	065H
	DB	00H
	DB	00H
	DB	078H
	DB	0daH
	DB	09dH
	DB	053H
	DB	077H
	DB	058H
	DB	093H
	DB	0f7H
	DB	016H
	DB	03eH
	DB	0dfH
	DB	0f7H
	DB	065H
	DB	0fH
	DB	056H
	DB	042H
	DB	0d8H
	DB	0f0H
	DB	0b1H
	DB	097H
	DB	06cH
	DB	081H
	DB	00H
	DB	022H
	DB	023H
	DB	0acH
	DB	08H
	DB	0c8H
	DB	010H
	DB	059H
	DB	0a2H
	DB	010H
	DB	092H
	DB	00H
	DB	061H
	DB	084H
	DB	010H
	DB	012H
	DB	040H
	DB	0c5H
	DB	085H
	DB	088H
	DB	0aH
	DB	056H
	DB	014H
	DB	015H
	DB	011H
	DB	09cH
	DB	048H
	DB	055H
	DB	0c4H
	DB	082H
	DB	0d5H
	DB	0aH
	DB	048H
	DB	09dH
	DB	088H
	DB	0e2H
	DB	0a0H
	DB	028H
	DB	0b8H
	DB	067H
	DB	041H
	DB	08aH
	DB	088H
	DB	05aH
	DB	08bH
	DB	055H
	DB	05cH
	DB	038H
	DB	0eeH
	DB	01fH
	DB	0dcH
	DB	0a7H
	DB	0b5H
	DB	07dH
	DB	07aH
	DB	0efH
	DB	0edH
	DB	0edH
	DB	0fbH
	DB	0d7H
	DB	0fbH
	DB	0bcH
	DB	0e7H
	DB	09cH
	DB	0e7H
	DB	0fcH
	DB	0ceH
	DB	079H
	DB	0cfH
	DB	0fH
	DB	080H
	DB	011H
	DB	012H
	DB	026H
	DB	091H
	DB	0e6H
	DB	0a2H
	DB	06aH
	DB	00H
	DB	039H
	DB	052H
	DB	085H
	DB	03cH
	DB	03aH
	DB	0d8H
	DB	01fH
	DB	08fH
	DB	04fH
	DB	048H
	DB	0c4H
	DB	0c9H
	DB	0bdH
	DB	080H
	DB	02H
	DB	015H
	DB	048H
	DB	0e0H
	DB	04H
	DB	020H
	DB	010H
	DB	0e6H
	DB	0cbH
	DB	0c2H
	DB	067H
	DB	05H
	DB	0c5H
	DB	00H
	DB	00H
	DB	0f0H
	DB	03H
	DB	079H
	DB	078H
	DB	07eH
	DB	074H
	DB	0b0H
	DB	03fH
	DB	0fcH
	DB	01H
	DB	0afH
	DB	06fH
	DB	00H
	DB	02H
	DB	00H
	DB	070H
	DB	0d5H
	DB	02eH
	DB	024H
	DB	012H
	DB	0c7H
	DB	0e1H
	DB	0ffH
	DB	083H
	DB	0baH
	DB	050H
	DB	026H
	DB	057H
	DB	00H
	DB	020H
	DB	091H
	DB	00H
	DB	0e0H
	DB	022H
	DB	012H
	DB	0e7H
	DB	0bH
	DB	01H
	DB	090H
	DB	052H
	DB	00H
	DB	0c8H
	DB	02eH
	DB	054H
	DB	0c8H
	DB	014H
	DB	00H
	DB	0c8H
	DB	018H
	DB	00H
	DB	0b0H
	DB	053H
	DB	0b3H
	DB	064H
	DB	0aH
	DB	00H
	DB	094H
	DB	00H
	DB	00H
	DB	06cH
	DB	079H
	DB	07cH
	DB	042H
	DB	022H
	DB	00H
	DB	0aaH
	DB	0dH
	DB	00H
	DB	0ecH
	DB	0f4H
	DB	049H
	DB	03eH
	DB	05H
	DB	00H
	DB	0d8H
	DB	0a9H
	DB	093H
	DB	0dcH
	DB	017H
	DB	00H
	DB	0d8H
	DB	0a2H
	DB	01cH
	DB	0a9H
	DB	08H
	DB	00H
	DB	08dH
	DB	01H
	DB	00H
	DB	099H
	DB	028H
	DB	047H
	DB	024H
	DB	02H
	DB	040H
	DB	0bbH
	DB	00H
	DB	060H
	DB	055H
	DB	081H
	DB	052H
	DB	02cH
	DB	02H
	DB	0c0H
	DB	0c2H
	DB	00H
	DB	0a0H
	DB	0acH
	DB	040H
	DB	022H
	DB	02eH
	DB	04H
	DB	0c0H
	DB	0aeH
	DB	01H
	DB	080H
	DB	059H
	DB	0b6H
	DB	032H
	DB	047H
	DB	02H
	DB	080H
	DB	0bdH
	DB	05H
	DB	00H
	DB	076H
	DB	08eH
	DB	058H
	DB	090H
	DB	0fH
	DB	040H
	DB	060H
	DB	00H
	DB	080H
	DB	099H
	DB	042H
	DB	02cH
	DB	0ccH
	DB	00H
	DB	020H
	DB	038H
	DB	02H
	DB	00H
	DB	043H
	DB	01eH
	DB	013H
	DB	0cdH
	DB	03H
	DB	020H
	DB	04cH
	DB	03H
	DB	0a0H
	DB	030H
	DB	0d2H
	DB	0bfH
	DB	0e0H
	DB	0a9H
	DB	05fH
	DB	070H
	DB	085H
	DB	0b8H
	DB	048H
	DB	01H
	DB	00H
	DB	0c0H
	DB	0cbH
	DB	095H
	DB	0cdH
	DB	097H
	DB	04bH
	DB	0d2H
	DB	033H
	DB	014H
	DB	0b8H
	DB	095H
	DB	0d0H
	DB	01aH
	DB	077H
	DB	0f2H
	DB	0f0H
	DB	0e0H
	DB	0e2H
	DB	021H
	DB	0e2H
	DB	0c2H
	DB	06cH
	DB	0b1H
	DB	042H
	DB	061H
	DB	017H
	DB	029H
	DB	010H
	DB	066H
	DB	09H
	DB	0e4H
	DB	022H
	DB	09cH
	DB	097H
	DB	09bH
	DB	023H
	DB	013H
	DB	048H
	DB	0e7H
	DB	03H
	DB	04cH
	DB	0ceH
	DB	0cH
	DB	00H
	DB	00H
	DB	01aH
	DB	0f9H
	DB	0d1H
	DB	0c1H
	DB	0feH
	DB	038H
	DB	03fH
	DB	090H
	DB	0e7H
	DB	0e6H
	DB	0e4H
	DB	0e1H
	DB	0e6H
	DB	066H
	DB	0e7H
	DB	06cH
	DB	0efH
	DB	0f4H
	DB	0c5H
	DB	0a2H
	DB	0feH
	DB	06bH
	DB	0f0H
	DB	06fH
	DB	022H
	DB	03eH
	DB	021H
	DB	0f1H
	DB	0dfH
	DB	0feH
	DB	0bcH
	DB	08cH
	DB	02H
	DB	04H
	DB	00H
	DB	010H
	DB	04eH
	DB	0cfH
	DB	0efH
	DB	0daH
	DB	05fH
	DB	0e5H
	DB	0e5H
	DB	0d6H
	DB	03H
	DB	070H
	DB	0c7H
	DB	01H
	DB	0b0H
	DB	075H
	DB	0bfH
	DB	06bH
	DB	0a9H
	DB	05bH
	DB	00H
	DB	0daH
	DB	056H
	DB	00H
	DB	068H
	DB	0dfH
	DB	0f9H
	DB	05dH
	DB	033H
	DB	0dbH
	DB	09H
	DB	0a0H
	DB	05aH
	DB	0aH
	DB	0d0H
	DB	07aH
	DB	0f9H
	DB	08bH
	DB	079H
	DB	038H
	DB	0fcH
	DB	040H
	DB	01eH
	DB	09eH
	DB	0a1H
	DB	050H
	DB	0c8H
	DB	03cH
	DB	01dH
	DB	01cH
	DB	0aH
	DB	0bH
	DB	0bH
	DB	0edH
	DB	025H
	DB	062H
	DB	0a1H
	DB	0bdH
	DB	030H
	DB	0e3H
	DB	08bH
	DB	03eH
	DB	0ffH
	DB	033H
	DB	0e1H
	DB	06fH
	DB	0e0H
	DB	08bH
	DB	07eH
	DB	0f6H
	DB	0fcH
	DB	040H
	DB	01eH
	DB	0feH
	DB	0dbH
	DB	07aH
	DB	0f0H
	DB	00H
	DB	071H
	DB	09aH
	DB	040H
	DB	099H
	DB	0adH
	DB	0c0H
	DB	0a3H
	DB	083H
	DB	0fdH
	DB	071H
	DB	061H
	DB	06eH
	DB	076H
	DB	0aeH
	DB	052H
	DB	08eH
	DB	0e7H
	DB	0cbH
	DB	04H
	DB	042H
	DB	031H
	DB	06eH
	DB	0f7H
	DB	0e7H
	DB	023H
	DB	0feH
	DB	0c7H
	DB	085H
	DB	07fH
	DB	0fdH
	DB	08eH
	DB	029H
	DB	0d1H
	DB	0e2H
	DB	034H
	DB	0b1H
	DB	05cH
	DB	02cH
	DB	015H
	DB	08aH
	DB	0f1H
	DB	058H
	DB	089H
	DB	0b8H
	DB	050H
	DB	022H
	DB	04dH
	DB	0c7H
	DB	079H
	DB	0b9H
	DB	052H
	DB	091H
	DB	044H
	DB	021H
	DB	0c9H
	DB	095H
	DB	0e2H
	DB	012H
	DB	0e9H
	DB	07fH
	DB	032H
	DB	0f1H
	DB	01fH
	DB	096H
	DB	0fdH
	DB	09H
	DB	093H
	DB	077H
	DB	0dH
	DB	00H
	DB	0acH
	DB	086H
	DB	04fH
	DB	0c0H
	DB	04eH
	DB	0b6H
	DB	07H
	DB	0b5H
	DB	0cbH
	DB	06cH
	DB	0c0H
	DB	07eH
	DB	0eeH
	DB	01H
	DB	02H
	DB	08bH
	DB	0eH
	DB	058H
	DB	0d2H
	DB	076H
	DB	00H
	DB	040H
	DB	07eH
	DB	0f3H
	DB	02dH
	DB	08cH
	DB	01aH
	DB	0bH
	DB	091H
	DB	00H
	DB	010H
	DB	067H
	DB	034H
	DB	032H
	DB	079H
	DB	0f7H
	DB	00H
	DB	00H
	DB	093H
	DB	0bfH
	DB	0f9H
	DB	08fH
	DB	040H
	DB	02bH
	DB	01H
	DB	00H
	DB	0cdH
	DB	097H
	DB	0a4H
	DB	0e3H
	DB	00H
	DB	00H
	DB	0bcH
	DB	0e8H
	DB	018H
	DB	05cH
	DB	0a8H
	DB	094H
	DB	017H
	DB	04cH
	DB	0c6H
	DB	08H
	DB	00H
	DB	00H
	DB	044H
	DB	0a0H
	DB	081H
	DB	02aH
	DB	0b0H
	DB	041H
	DB	07H
	DB	0cH
	DB	0c1H
	DB	014H
	DB	0acH
	DB	0c0H
	DB	0eH
	DB	09cH
	DB	0c1H
	DB	01dH
	DB	0bcH
	DB	0c0H
	DB	017H
	DB	02H
	DB	061H
	DB	06H
	DB	044H
	DB	040H
	DB	0cH
	DB	024H
	DB	0c0H
	DB	03cH
	DB	010H
	DB	042H
	DB	06H
	DB	0e4H
	DB	080H
	DB	01cH
	DB	0aH
	DB	0a1H
	DB	018H
	DB	096H
	DB	041H
	DB	019H
	DB	054H
	DB	0c0H
	DB	03aH
	DB	0d8H
	DB	04H
	DB	0b5H
	DB	0b0H
	DB	03H
	DB	01aH
	DB	0a0H
	DB	011H
	DB	09aH
	DB	0e1H
	DB	010H
	DB	0b4H
	DB	0c1H
	DB	031H
	DB	038H
	DB	0dH
	DB	0e7H
	DB	0e0H
	DB	012H
	DB	05cH
	DB	081H
	DB	0ebH
	DB	070H
	DB	017H
	DB	06H
	DB	060H
	DB	018H
	DB	09eH
	DB	0c2H
	DB	018H
	DB	0bcH
	DB	086H
	DB	09H
	DB	04H
	DB	041H
	DB	0c8H
	DB	08H
	DB	013H
	DB	061H
	DB	021H
	DB	03aH
	DB	088H
	DB	011H
	DB	062H
	DB	08eH
	DB	0d8H
	DB	022H
	DB	0ceH
	DB	08H
	DB	017H
	DB	099H
	DB	08eH
	DB	04H
	DB	022H
	DB	061H
	DB	048H
	DB	034H
	DB	092H
	DB	080H
	DB	0a4H
	DB	020H
	DB	0e9H
	DB	088H
	DB	014H
	DB	051H
	DB	022H
	DB	0c5H
	DB	0c8H
	DB	072H
	DB	0a4H
	DB	02H
	DB	0a9H
	DB	042H
	DB	06aH
	DB	091H
	DB	05dH
	DB	048H
	DB	023H
	DB	0f2H
	DB	02dH
	DB	072H
	DB	014H
	DB	039H
	DB	08dH
	DB	05cH
	DB	040H
	DB	0faH
	DB	090H
	DB	0dbH
	DB	0c8H
	DB	020H
	DB	032H
	DB	08aH
	DB	0fcH
	DB	08aH
	DB	0bcH
	DB	047H
	DB	031H
	DB	094H
	DB	081H
	DB	0b2H
	DB	051H
	DB	03H
	DB	0d4H
	DB	02H
	DB	075H
	DB	040H
	DB	0b9H
	DB	0a8H
	DB	01fH
	DB	01aH
	DB	08aH
	DB	0c6H
	DB	0a0H
	DB	073H
	DB	0d1H
	DB	074H
	DB	034H
	DB	0fH
	DB	05dH
	DB	080H
	DB	096H
	DB	0a2H
	DB	06bH
	DB	0d1H
	DB	01aH
	DB	0b4H
	DB	01eH
	DB	03dH
	DB	080H
	DB	0b6H
	DB	0a2H
	DB	0a7H
	DB	0d1H
	DB	04bH
	DB	0e8H
	DB	075H
	DB	074H
	DB	00H
	DB	07dH
	DB	08aH
	DB	08eH
	DB	063H
	DB	080H
	DB	0d1H
	DB	031H
	DB	0eH
	DB	066H
	DB	08cH
	DB	0d9H
	DB	061H
	DB	05cH
	DB	08cH
	DB	087H
	DB	045H
	DB	060H
	DB	089H
	DB	058H
	DB	01aH
	DB	026H
	DB	0c7H
	DB	016H
	DB	063H
	DB	0e5H
	DB	058H
	DB	035H
	DB	056H
	DB	08fH
	DB	035H
	DB	063H
	DB	01dH
	DB	058H
	DB	037H
	DB	076H
	DB	015H
	DB	01bH
	DB	0c0H
	DB	09eH
	DB	061H
	DB	0efH
	DB	08H
	DB	024H
	DB	02H
	DB	08bH
	DB	080H
	DB	013H
	DB	0ecH
	DB	08H
	DB	05eH
	DB	084H
	DB	010H
	DB	0c2H
	DB	06cH
	DB	082H
	DB	090H
	DB	090H
	DB	047H
	DB	058H
	DB	04cH
	DB	058H
	DB	043H
	DB	0a8H
	DB	025H
	DB	0ecH
	DB	023H
	DB	0b4H
	DB	012H
	DB	0baH
	DB	08H
	DB	057H
	DB	09H
	DB	083H
	DB	084H
	DB	031H
	DB	0c2H
	DB	027H
	DB	022H
	DB	093H
	DB	0a8H
	DB	04fH
	DB	0b4H
	DB	025H
	DB	07aH
	DB	012H
	DB	0f9H
	DB	0c4H
	DB	078H
	DB	062H
	DB	03aH
	DB	0b1H
	DB	090H
	DB	058H
	DB	046H
	DB	0acH
	DB	026H
	DB	0eeH
	DB	021H
	DB	01eH
	DB	021H
	DB	09eH
	DB	025H
	DB	05eH
	DB	027H
	DB	0eH
	DB	013H
	DB	05fH
	DB	093H
	DB	048H
	DB	024H
	DB	0eH
	DB	0c9H
	DB	092H
	DB	0e4H
	DB	04eH
	DB	0aH
	DB	021H
	DB	025H
	DB	090H
	DB	032H
	DB	049H
	DB	0bH
	DB	049H
	DB	06bH
	DB	048H
	DB	0dbH
	DB	048H
	DB	02dH
	DB	0a4H
	DB	053H
	DB	0a4H
	DB	03eH
	DB	0d2H
	DB	010H
	DB	069H
	DB	09cH
	DB	04cH
	DB	026H
	DB	0ebH
	DB	090H
	DB	06dH
	DB	0c9H
	DB	0deH
	DB	0e4H
	DB	08H
	DB	0b2H
	DB	080H
	DB	0acH
	DB	020H
	DB	097H
	DB	091H
	DB	0b7H
	DB	090H
	DB	0fH
	DB	090H
	DB	04fH
	DB	092H
	DB	0fbH
	DB	0c9H
	DB	0c3H
	DB	0e4H
	DB	0b7H
	DB	014H
	DB	03aH
	DB	0c5H
	DB	088H
	DB	0e2H
	DB	04cH
	DB	09H
	DB	0a2H
	DB	024H
	DB	052H
	DB	0a4H
	DB	094H
	DB	012H
	DB	04aH
	DB	035H
	DB	065H
	DB	03fH
	DB	0e5H
	DB	04H
	DB	0a5H
	DB	09fH
	DB	032H
	DB	042H
	DB	099H
	DB	0a0H
	DB	0aaH
	DB	051H
	DB	0cdH
	DB	0a9H
	DB	09eH
	DB	0d4H
	DB	08H
	DB	0aaH
	DB	088H
	DB	03aH
	DB	09fH
	DB	05aH
	DB	049H
	DB	06dH
	DB	0a0H
	DB	076H
	DB	050H
	DB	02fH
	DB	053H
	DB	087H
	DB	0a9H
	DB	013H
	DB	034H
	DB	075H
	DB	09aH
	DB	025H
	DB	0cdH
	DB	09bH
	DB	016H
	DB	043H
	DB	0cbH
	DB	0a4H
	DB	02dH
	DB	0a3H
	DB	0d5H
	DB	0d0H
	DB	09aH
	DB	069H
	DB	067H
	DB	069H
	DB	0f7H
	DB	068H
	DB	02fH
	DB	0e9H
	DB	074H
	DB	0baH
	DB	09H
	DB	0ddH
	DB	083H
	DB	01eH
	DB	045H
	DB	097H
	DB	0d0H
	DB	097H
	DB	0d2H
	DB	06bH
	DB	0e8H
	DB	07H
	DB	0e9H
	DB	0e7H
	DB	0e9H
	DB	083H
	DB	0f4H
	DB	077H
	DB	0cH
	DB	0dH
	DB	086H
	DB	0dH
	DB	083H
	DB	0c7H
	DB	048H
	DB	062H
	DB	028H
	DB	019H
	DB	06bH
	DB	019H
	DB	07bH
	DB	019H
	DB	0a7H
	DB	018H
	DB	0b7H
	DB	019H
	DB	02fH
	DB	099H
	DB	04cH
	DB	0a6H
	DB	05H
	DB	0d3H
	DB	097H
	DB	099H
	DB	0c8H
	DB	054H
	DB	030H
	DB	0d7H
	DB	032H
	DB	01bH
	DB	099H
	DB	067H
	DB	098H
	DB	0fH
	DB	098H
	DB	06fH
	DB	055H
	DB	058H
	DB	02aH
	DB	0f6H
	DB	02aH
	DB	07cH
	DB	015H
	DB	091H
	DB	0caH
	DB	012H
	DB	095H
	DB	03aH
	DB	095H
	DB	056H
	DB	095H
	DB	07eH
	DB	095H
	DB	0e7H
	DB	0aaH
	DB	054H
	DB	055H
	DB	073H
	DB	055H
	DB	03fH
	DB	0d5H
	DB	079H
	DB	0aaH
	DB	0bH
	DB	054H
	DB	0abH
	DB	055H
	DB	0fH
	DB	0abH
	DB	05eH
	DB	056H
	DB	07dH
	DB	0a6H
	DB	046H
	DB	055H
	DB	0b3H
	DB	050H
	DB	0e3H
	DB	0a9H
	DB	09H
	DB	0d4H
	DB	016H
	DB	0abH
	DB	0d5H
	DB	0a9H
	DB	01dH
	DB	055H
	DB	0bbH
	DB	0a9H
	DB	036H
	DB	0aeH
	DB	0ceH
	DB	052H
	DB	077H
	DB	052H
	DB	08fH
	DB	050H
	DB	0cfH
	DB	051H
	DB	05fH
	DB	0a3H
	DB	0beH
	DB	05fH
	DB	0fdH
	DB	082H
	DB	0faH
	DB	063H
	DB	0dH
	DB	0b2H
	DB	086H
	DB	085H
	DB	046H
	DB	0a0H
	DB	086H
	DB	048H
	DB	0a3H
	DB	054H
	DB	063H
	DB	0b7H
	DB	0c6H
	DB	019H
	DB	08dH
	DB	021H
	DB	016H
	DB	0c6H
	DB	032H
	DB	065H
	DB	0f1H
	DB	058H
	DB	042H
	DB	0d6H
	DB	072H
	DB	056H
	DB	03H
	DB	0ebH
	DB	02cH
	DB	06bH
	DB	098H
	DB	04dH
	DB	062H
	DB	05bH
	DB	0b2H
	DB	0f9H
	DB	0ecH
	DB	04cH
	DB	076H
	DB	05H
	DB	0fbH
	DB	01bH
	DB	076H
	DB	02fH
	DB	07bH
	DB	04cH
	DB	053H
	DB	043H
	DB	073H
	DB	0aaH
	DB	066H
	DB	0acH
	DB	066H
	DB	091H
	DB	066H
	DB	09dH
	DB	0e6H
	DB	071H
	DB	0cdH
	DB	01H
	DB	0eH
	DB	0c6H
	DB	0b1H
	DB	0e0H
	DB	0f0H
	DB	039H
	DB	0d9H
	DB	09cH
	DB	04aH
	DB	0ceH
	DB	021H
	DB	0ceH
	DB	0dH
	DB	0ceH
	DB	07bH
	DB	02dH
	DB	03H
	DB	02dH
	DB	03fH
	DB	02dH
	DB	0b1H
	DB	0d6H
	DB	06aH
	DB	0adH
	DB	066H
	DB	0adH
	DB	07eH
	DB	0adH
	DB	037H
	DB	0daH
	DB	07aH
	DB	0daH
	DB	0beH
	DB	0daH
	DB	062H
	DB	0edH
	DB	072H
	DB	0edH
	DB	016H
	DB	0edH
	DB	0ebH
	DB	0daH
	DB	0efH
	DB	075H
	DB	070H
	DB	09dH
	DB	040H
	DB	09dH
	DB	02cH
	DB	09dH
	DB	0f5H
	DB	03aH
	DB	06dH
	DB	03aH
	DB	0f7H
	DB	075H
	DB	09H
	DB	0baH
	DB	036H
	DB	0baH
	DB	051H
	DB	0baH
	DB	085H
	DB	0baH
	DB	0dbH
	DB	075H
	DB	0cfH
	DB	0eaH
	DB	03eH
	DB	0d3H
	DB	063H
	DB	0ebH
	DB	079H
	DB	0e9H
	DB	09H
	DB	0f5H
	DB	0caH
	DB	0f5H
	DB	0eH
	DB	0e9H
	DB	0ddH
	DB	0d1H
	DB	047H
	DB	0f5H
	DB	06dH
	DB	0f4H
	DB	0a3H
	DB	0f5H
	DB	017H
	DB	0eaH
	DB	0efH
	DB	0d6H
	DB	0efH
	DB	0d1H
	DB	01fH
	DB	037H
	DB	030H
	DB	034H
	DB	08H
	DB	036H
	DB	090H
	DB	019H
	DB	06cH
	DB	031H
	DB	038H
	DB	063H
	DB	0f0H
	DB	0ccH
	DB	090H
	DB	063H
	DB	0e8H
	DB	06bH
	DB	098H
	DB	069H
	DB	0b8H
	DB	0d1H
	DB	0f0H
	DB	084H
	DB	0e1H
	DB	0a8H
	DB	011H
	DB	0cbH
	DB	068H
	DB	0baH
	DB	091H
	DB	0c4H
	DB	068H
	DB	0a3H
	DB	0d1H
	DB	049H
	DB	0a3H
	DB	027H
	DB	0b8H
	DB	026H
	DB	0eeH
	DB	087H
	DB	067H
	DB	0e3H
	DB	035H
	DB	078H
	DB	017H
	DB	03eH
	DB	066H
	DB	0acH
	DB	06fH
	DB	01cH
	DB	062H
	DB	0acH
	DB	034H
	DB	0deH
	DB	065H
	DB	0dcH
	DB	06bH
	DB	03cH
	DB	061H
	DB	062H
	DB	069H
	DB	032H
	DB	0dbH
	DB	0a4H
	DB	0c4H
	DB	0a4H
	DB	0c5H
	DB	0e4H
	DB	0beH
	DB	029H
	DB	0cdH
	DB	094H
	DB	06bH
	DB	09aH
	DB	066H
	DB	0baH
	DB	0d1H
	DB	0b4H
	DB	0d3H
	DB	074H
	DB	0ccH
	DB	0ccH
	DB	0c8H
	DB	02cH
	DB	0dcH
	DB	0acH
	DB	0d8H
	DB	0acH
	DB	0c9H
	DB	0ecH
	DB	08eH
	DB	039H
	DB	0d5H
	DB	09cH
	DB	06bH
	DB	09eH
	DB	061H
	DB	0beH
	DB	0d9H
	DB	0bcH
	DB	0dbH
	DB	0fcH
	DB	08dH
	DB	085H
	DB	0a5H
	DB	045H
	DB	09cH
	DB	0c5H
	DB	04aH
	DB	08bH
	DB	036H
	DB	08bH
	DB	0c7H
	DB	096H
	DB	0daH
	DB	096H
	DB	07cH
	DB	0cbH
	DB	05H
	DB	096H
	DB	04dH
	DB	096H
	DB	0f7H
	DB	0acH
	DB	098H
	DB	056H
	DB	03eH
	DB	056H
	DB	079H
	DB	056H
	DB	0f5H
	DB	056H
	DB	0d7H
	DB	0acH
	DB	049H
	DB	0d6H
	DB	05cH
	DB	0ebH
	DB	02cH
	DB	0ebH
	DB	06dH
	DB	0d6H
	DB	057H
	DB	06cH
	DB	050H
	DB	01bH
	DB	057H
	DB	09bH
	DB	0cH
	DB	09bH
	DB	03aH
	DB	09bH
	DB	0cbH
	DB	0b6H
	DB	0a8H
	DB	0adH
	DB	09bH
	DB	0adH
	DB	0c4H
	DB	076H
	DB	09bH
	DB	06dH
	DB	0dfH
	DB	014H
	DB	0e2H
	DB	014H
	DB	08fH
	DB	029H
	DB	0d2H
	DB	029H
	DB	0f5H
	DB	053H
	DB	06eH
	DB	0daH
	DB	031H
	DB	0ecH
	DB	0fcH
	DB	0ecH
	DB	0aH
	DB	0ecH
	DB	09aH
	DB	0ecH
	DB	06H
	DB	0edH
	DB	039H
	DB	0f6H
	DB	061H
	DB	0f6H
	DB	025H
	DB	0f6H
	DB	06dH
	DB	0f6H
	DB	0cfH
	DB	01dH
	DB	0ccH
	DB	01cH
	DB	012H
	DB	01dH
	DB	0d6H
	DB	03bH
	DB	074H
	DB	03bH
	DB	07cH
	DB	072H
	DB	074H
	DB	075H
	DB	0ccH
	DB	076H
	DB	06cH
	DB	070H
	DB	0bcH
	DB	0ebH
	DB	0a4H
	DB	0e1H
	DB	034H
	DB	0c3H
	DB	0a9H
	DB	0c4H
	DB	0a9H
	DB	0c3H
	DB	0e9H
	DB	057H
	DB	067H
	DB	01bH
	DB	067H
	DB	0a1H
	DB	073H
	DB	09dH
	DB	0f3H
	DB	035H
	DB	017H
	DB	0a6H
	DB	04bH
	DB	090H
	DB	0cbH
	DB	012H
	DB	097H
	DB	076H
	DB	097H
	DB	017H
	DB	053H
	DB	06dH
	DB	0a7H
	DB	08aH
	DB	0a7H
	DB	06eH
	DB	09fH
	DB	07aH
	DB	0cbH
	DB	095H
	DB	0e5H
	DB	01aH
	DB	0eeH
	DB	0baH
	DB	0d2H
	DB	0b5H
	DB	0d3H
	DB	0f5H
	DB	0a3H
	DB	09bH
	DB	0bbH
	DB	09bH
	DB	0dcH
	DB	0adH
	DB	0d9H
	DB	06dH
	DB	0d4H
	DB	0ddH
	DB	0ccH
	DB	03dH
	DB	0c5H
	DB	07dH
	DB	0abH
	DB	0fbH
	DB	04dH
	DB	02eH
	DB	09bH
	DB	01bH
	DB	0c9H
	DB	05dH
	DB	0c3H
	DB	03dH
	DB	0efH
	DB	041H
	DB	0f4H
	DB	0f0H
	DB	0f7H
	DB	058H
	DB	0e2H
	DB	071H
	DB	0ccH
	DB	0e3H
	DB	09dH
	DB	0a7H
	DB	09bH
	DB	0a7H
	DB	0c2H
	DB	0f3H
	DB	090H
	DB	0e7H
	DB	02fH
	DB	05eH
	DB	076H
	DB	05eH
	DB	059H
	DB	05eH
	DB	0fbH
	DB	0bdH
	DB	01eH
	DB	04fH
	DB	0b3H
	DB	09cH
	DB	026H
	DB	09eH
	DB	0d6H
	DB	030H
	DB	06dH
	DB	0c8H
	DB	0dbH
	DB	0c4H
	DB	05bH
	DB	0e0H
	DB	0bdH
	DB	0cbH
	DB	07bH
	DB	060H
	DB	03aH
	DB	03eH
	DB	03dH
	DB	065H
	DB	0faH
	DB	0ceH
	DB	0e9H
	DB	03H
	DB	03eH
	DB	0c6H
	DB	03eH
	DB	02H
	DB	09fH
	DB	07aH
	DB	09fH
	DB	087H
	DB	0beH
	DB	0a6H
	DB	0beH
	DB	022H
	DB	0dfH
	DB	03dH
	DB	0beH
	DB	023H
	DB	07eH
	DB	0d6H
	DB	07eH
	DB	099H
	DB	07eH
	DB	07H
	DB	0fcH
	DB	09eH
	DB	0fbH
	DB	03bH
	DB	0faH
	DB	0cbH
	DB	0fdH
	DB	08fH
	DB	0f8H
	DB	0bfH
	DB	0e1H
	DB	079H
	DB	0f2H
	DB	016H
	DB	0f1H
	DB	04eH
	DB	05H
	DB	060H
	DB	01H
	DB	0c1H
	DB	01H
	DB	0e5H
	DB	01H
	DB	0bdH
	DB	081H
	DB	01aH
	DB	081H
	DB	0b3H
	DB	03H
	DB	06bH
	DB	03H
	DB	01fH
	DB	04H
	DB	099H
	DB	04H
	DB	0a5H
	DB	07H
	DB	035H
	DB	05H
	DB	08dH
	DB	05H
	DB	0bbH
	DB	06H
	DB	02fH
	DB	0cH
	DB	03eH
	DB	015H
	DB	042H
	DB	0cH
	DB	09H
	DB	0dH
	DB	059H
	DB	01fH
	DB	072H
	DB	093H
	DB	06fH
	DB	0c0H
	DB	017H
	DB	0f2H
	DB	01bH
	DB	0f9H
	DB	063H
	DB	033H
	DB	0dcH
	DB	067H
	DB	02cH
	DB	09aH
	DB	0d1H
	DB	015H
	DB	0caH
	DB	08H
	DB	09dH
	DB	015H
	DB	05aH
	DB	01bH
	DB	0faH
	DB	030H
	DB	0ccH
	DB	026H
	DB	04cH
	DB	01eH
	DB	0d6H
	DB	011H
	DB	08eH
	DB	086H
	DB	0cfH
	DB	08H
	DB	0dfH
	DB	010H
	DB	07eH
	DB	06fH
	DB	0a6H
	DB	0f9H
	DB	04cH
	DB	0e9H
	DB	0ccH
	DB	0b6H
	DB	08H
	DB	088H
	DB	0e0H
	DB	047H
	DB	06cH
	DB	088H
	DB	0b8H
	DB	01fH
	DB	069H
	DB	019H
	DB	099H
	DB	017H
	DB	0f9H
	DB	07dH
	DB	014H
	DB	029H
	DB	02aH
	DB	032H
	DB	0aaH
	DB	02eH
	DB	0eaH
	DB	051H
	DB	0b4H
	DB	053H
	DB	074H
	DB	071H
	DB	074H
	DB	0f7H
	DB	02cH
	DB	0d6H
	DB	0acH
	DB	0e4H
	DB	059H
	DB	0fbH
	DB	067H
	DB	0bdH
	DB	08eH
	DB	0f1H
	DB	08fH
	DB	0a9H
	DB	08cH
	DB	0b9H
	DB	03bH
	DB	0dbH
	DB	06aH
	DB	0b6H
	DB	072H
	DB	076H
	DB	067H
	DB	0acH
	DB	06aH
	DB	06cH
	DB	052H
	DB	06cH
	DB	063H
	DB	0ecH
	DB	09bH
	DB	0b8H
	DB	080H
	DB	0b8H
	DB	0aaH
	DB	0b8H
	DB	081H
	DB	078H
	DB	087H
	DB	0f8H
	DB	045H
	DB	0f1H
	DB	097H
	DB	012H
	DB	074H
	DB	013H
	DB	024H
	DB	09H
	DB	0edH
	DB	089H
	DB	0e4H
	DB	0c4H
	DB	0d8H
	DB	0c4H
	DB	03dH
	DB	089H
	DB	0e3H
	DB	073H
	DB	02H
	DB	0e7H
	DB	06cH
	DB	09aH
	DB	033H
	DB	09cH
	DB	0e4H
	DB	09aH
	DB	054H
	DB	096H
	DB	074H
	DB	063H
	DB	0aeH
	DB	0e5H
	DB	0dcH
	DB	0a2H
	DB	0b9H
	DB	017H
	DB	0e6H
	DB	0e9H
	DB	0ceH
	DB	0cbH
	DB	09eH
	DB	077H
	DB	03cH
	DB	059H
	DB	035H
	DB	059H
	DB	090H
	DB	07cH
	DB	038H
	DB	085H
	DB	098H
	DB	012H
	DB	097H
	DB	0b2H
	DB	03fH
	DB	0e5H
	DB	083H
	DB	020H
	DB	042H
	DB	050H
	DB	02fH
	DB	018H
	DB	04fH
	DB	0e5H
	DB	0a7H
	DB	06eH
	DB	04dH
	DB	01dH
	DB	013H
	DB	0f2H
	DB	084H
	DB	09bH
	DB	085H
	DB	04fH
	DB	045H
	DB	0beH
	DB	0a2H
	DB	08dH
	DB	0a2H
	DB	051H
	DB	0b1H
	DB	0b7H
	DB	0b8H
	DB	04aH
	DB	03cH
	DB	092H
	DB	0e6H
	DB	09dH
	DB	056H
	DB	095H
	DB	0f6H
	DB	038H
	DB	0ddH
	DB	03bH
	DB	07dH
	DB	043H
	DB	0faH
	DB	068H
	DB	086H
	DB	04fH
	DB	046H
	DB	075H
	DB	0c6H
	DB	033H
	DB	09H
	DB	04fH
	DB	052H
	DB	02bH
	DB	079H
	DB	091H
	DB	019H
	DB	092H
	DB	0b9H
	DB	023H
	DB	0f3H
	DB	04dH
	DB	056H
	DB	044H
	DB	0d6H
	DB	0deH
	DB	0acH
	DB	0cfH
	DB	0d9H
	DB	071H
	DB	0d9H
	DB	02dH
	DB	039H
	DB	094H
	DB	09cH
	DB	094H
	DB	09cH
	DB	0a3H
	DB	052H
	DB	0dH
	DB	069H
	DB	096H
	DB	0b4H
	DB	02bH
	DB	0d7H
	DB	030H
	DB	0b7H
	DB	028H
	DB	0b7H
	DB	04fH
	DB	066H
	DB	02bH
	DB	02bH
	DB	093H
	DB	0dH
	DB	0e4H
	DB	079H
	DB	0e6H
	DB	06dH
	DB	0caH
	DB	01bH
	DB	093H
	DB	087H
	DB	0caH
	DB	0f7H
	DB	0e4H
	DB	023H
	DB	0f9H
	DB	073H
	DB	0f3H
	DB	0dbH
	DB	015H
	DB	06cH
	DB	085H
	DB	04cH
	DB	0d1H
	DB	0a3H
	DB	0b4H
	DB	052H
	DB	0aeH
	DB	050H
	DB	0eH
	DB	016H
	DB	04cH
	DB	02fH
	DB	0a8H
	DB	02bH
	DB	078H
	DB	05bH
	DB	018H
	DB	05bH
	DB	078H
	DB	0b8H
	DB	048H
	DB	0bdH
	DB	048H
	DB	05aH
	DB	0d4H
	DB	033H
	DB	0dfH
	DB	066H
	DB	0feH
	DB	0eaH
	DB	0f9H
	DB	023H
	DB	0bH
	DB	082H
	DB	016H
	DB	07cH
	DB	0bdH
	DB	090H
	DB	0b0H
	DB	050H
	DB	0b8H
	DB	0b0H
	DB	0b3H
	DB	0d8H
	DB	0b8H
	DB	078H
	DB	059H
	DB	0f1H
	DB	0e0H
	DB	022H
	DB	0bfH
	DB	045H
	DB	0bbH
	DB	016H
	DB	023H
	DB	08bH
	DB	053H
	DB	017H
	DB	077H
	DB	02eH
	DB	031H
	DB	05dH
	DB	052H
	DB	0baH
	DB	064H
	DB	078H
	DB	069H
	DB	0f0H
	DB	0d2H
	DB	07dH
	DB	0cbH
	DB	068H
	DB	0cbH
	DB	0b2H
	DB	096H
	DB	0fdH
	DB	050H
	DB	0e2H
	DB	058H
	DB	052H
	DB	055H
	DB	0f2H
	DB	06aH
	DB	079H
	DB	0dcH
	DB	0f2H
	DB	08eH
	DB	052H
	DB	083H
	DB	0d2H
	DB	0a5H
	DB	0a5H
	DB	043H
	DB	02bH
	DB	082H
	DB	057H
	DB	034H
	DB	095H
	DB	0a9H
	DB	094H
	DB	0c9H
	DB	0cbH
	DB	06eH
	DB	0aeH
	DB	0f4H
	DB	05aH
	DB	0b9H
	DB	063H
	DB	015H
	DB	061H
	DB	095H
	DB	064H
	DB	055H
	DB	0efH
	DB	06aH
	DB	097H
	DB	0d5H
	DB	05bH
	DB	056H
	DB	07fH
	DB	02aH
	DB	017H
	DB	095H
	DB	05fH
	DB	0acH
	DB	070H
	DB	0acH
	DB	0a8H
	DB	0aeH
	DB	0f8H
	DB	0b0H
	DB	046H
	DB	0b8H
	DB	0e6H
	DB	0e2H
	DB	057H
	DB	04eH
	DB	05fH
	DB	0d5H
	DB	07cH
	DB	0f5H
	DB	079H
	DB	06dH
	DB	0daH
	DB	0daH
	DB	0deH
	DB	04aH
	DB	0b7H
	DB	0caH
	DB	0edH
	DB	0ebH
	DB	048H
	DB	0ebH
	DB	0a4H
	DB	0ebH
	DB	06eH
	DB	0acH
	DB	0f7H
	DB	059H
	DB	0bfH
	DB	0afH
	DB	04aH
	DB	0bdH
	DB	06aH
	DB	041H
	DB	0d5H
	DB	0d0H
	DB	086H
	DB	0f0H
	DB	0dH
	DB	0adH
	DB	01bH
	DB	0f1H
	DB	08dH
	DB	0e5H
	DB	01bH
	DB	05fH
	DB	06dH
	DB	04aH
	DB	0deH
	DB	074H
	DB	0a1H
	DB	07aH
	DB	06aH
	DB	0f5H
	DB	08eH
	DB	0cdH
	DB	0b4H
	DB	0cdH
	DB	0caH
	DB	0cdH
	DB	03H
	DB	035H
	DB	061H
	DB	035H
	DB	0edH
	DB	05bH
	DB	0ccH
	DB	0b6H
	DB	0acH
	DB	0dbH
	DB	0f2H
	DB	0a1H
	DB	036H
	DB	0a3H
	DB	0f6H
	DB	07aH
	DB	09dH
	DB	07fH
	DB	05dH
	DB	0cbH
	DB	056H
	DB	0fdH
	DB	0adH
	DB	0abH
	DB	0b7H
	DB	0beH
	DB	0d9H
	DB	026H
	DB	0daH
	DB	0d6H
	DB	0bfH
	DB	0ddH
	DB	077H
	DB	07bH
	DB	0f3H
	DB	0eH
	DB	083H
	DB	01dH
	DB	015H
	DB	03bH
	DB	0deH
	DB	0efH
	DB	094H
	DB	0ecH
	DB	0bcH
	DB	0b5H
	DB	02bH
	DB	078H
	DB	057H
	DB	06bH
	DB	0bdH
	DB	045H
	DB	07dH
	DB	0f5H
	DB	06eH
	DB	0d2H
	DB	0eeH
	DB	082H
	DB	0ddH
	DB	08fH
	DB	01aH
	DB	062H
	DB	01bH
	DB	0baH
	DB	0bfH
	DB	0e6H
	DB	07eH
	DB	0ddH
	DB	0b8H
	DB	047H
	DB	077H
	DB	04fH
	DB	0c5H
	DB	09eH
	DB	08fH
	DB	07bH
	DB	0a5H
	DB	07bH
	DB	07H
	DB	0f6H
	DB	045H
	DB	0efH
	DB	0ebH
	DB	06aH
	DB	074H
	DB	06fH
	DB	06cH
	DB	0dcH
	DB	0afH
	DB	0bfH
	DB	0bfH
	DB	0b2H
	DB	09H
	DB	06dH
	DB	052H
	DB	036H
	DB	08dH
	DB	01eH
	DB	048H
	DB	03aH
	DB	070H
	DB	0e5H
	DB	09bH
	DB	080H
	DB	06fH
	DB	0daH
	DB	09bH
	DB	0edH
	DB	09aH
	DB	077H
	DB	0b5H
	DB	070H
	DB	05aH
	DB	02aH
	DB	0eH
	DB	0c2H
	DB	041H
	DB	0e5H
	DB	0c1H
	DB	027H
	DB	0dfH
	DB	0a6H
	DB	07cH
	DB	07bH
	DB	0e3H
	DB	050H
	DB	0e8H
	DB	0a1H
	DB	0ceH
	DB	0c3H
	DB	0dcH
	DB	0c3H
	DB	0cdH
	DB	0dfH
	DB	099H
	DB	07fH
	DB	0b7H
	DB	0f5H
	DB	08H
	DB	0ebH
	DB	048H
	DB	079H
	DB	02bH
	DB	0d2H
	DB	03aH
	DB	0bfH
	DB	075H
	DB	0acH
	DB	02dH
	DB	0a3H
	DB	06dH
	DB	0a0H
	DB	03dH
	DB	0a1H
	DB	0bdH
	DB	0efH
	DB	0e8H
	DB	08cH
	DB	0a3H
	DB	09dH
	DB	01dH
	DB	05eH
	DB	01dH
	DB	047H
	DB	0beH
	DB	0b7H
	DB	0ffH
	DB	07eH
	DB	0efH
	DB	031H
	DB	0e3H
	DB	063H
	DB	075H
	DB	0c7H
	DB	035H
	DB	08fH
	DB	057H
	DB	09eH
	DB	0a0H
	DB	09dH
	DB	028H
	DB	03dH
	DB	0f1H
	DB	0f9H
	DB	0e4H
	DB	082H
	DB	093H
	DB	0e3H
	DB	0a7H
	DB	064H
	DB	0a7H
	DB	09eH
	DB	09dH
	DB	04eH
	DB	03fH
	DB	03dH
	DB	0d4H
	DB	099H
	DB	0dcH
	DB	079H
	DB	0f7H
	DB	04cH
	DB	0fcH
	DB	099H
	DB	06bH
	DB	05dH
	DB	051H
	DB	05dH
	DB	0bdH
	DB	067H
	DB	043H
	DB	0cfH
	DB	09eH
	DB	03fH
	DB	017H
	DB	074H
	DB	0eeH
	DB	04cH
	DB	0b7H
	DB	05fH
	DB	0f7H
	DB	0c9H
	DB	0f3H
	DB	0deH
	DB	0e7H
	DB	08fH
	DB	05dH
	DB	0f0H
	DB	0bcH
	DB	070H
	DB	0f4H
	DB	022H
	DB	0f7H
	DB	062H
	DB	0dbH
	DB	025H
	DB	0b7H
	DB	04bH
	DB	0adH
	DB	03dH
	DB	0aeH
	DB	03dH
	DB	047H
	DB	07eH
	DB	070H
	DB	0fdH
	DB	0e1H
	DB	048H
	DB	0afH
	DB	05bH
	DB	06fH
	DB	0ebH
	DB	065H
	DB	0f7H
	DB	0cbH
	DB	0edH
	DB	057H
	DB	03cH
	DB	0aeH
	DB	074H
	DB	0f4H
	DB	04dH
	DB	0ebH
	DB	03bH
	DB	0d1H
	DB	0efH
	DB	0d3H
	DB	07fH
	DB	0faH
	DB	06aH
	DB	0c0H
	DB	0d5H
	DB	073H
	DB	0d7H
	DB	0f8H
	DB	0d7H
	DB	02eH
	DB	05dH
	DB	09fH
	DB	079H
	DB	0bdH
	DB	0efH
	DB	0c6H
	DB	0ecH
	DB	01bH
	DB	0b7H
	DB	06eH
	DB	026H
	DB	0ddH
	DB	01cH
	DB	0b8H
	DB	025H
	DB	0baH
	DB	0f5H
	DB	0f8H
	DB	076H
	DB	0f6H
	DB	0edH
	DB	017H
	DB	077H
	DB	0aH
	DB	0eeH
	DB	04cH
	DB	0dcH
	DB	05dH
	DB	07aH
	DB	08fH
	DB	078H
	DB	0afH
	DB	0fcH
	DB	0beH
	DB	0daH
	DB	0fdH
	DB	0eaH
	DB	07H
	DB	0faH
	DB	0fH
	DB	0eaH
	DB	07fH
	DB	0b4H
	DB	0feH
	DB	0b1H
	DB	065H
	DB	0c0H
	DB	06dH
	DB	0e0H
	DB	0f8H
	DB	060H
	DB	0c0H
	DB	060H
	DB	0cfH
	DB	0c3H
	DB	059H
	DB	0fH
	DB	0efH
	DB	0eH
	DB	09H
	DB	087H
	DB	09eH
	DB	0feH
	DB	094H
	DB	0ffH
	DB	0d3H
	DB	087H
	DB	0e1H
	DB	0d2H
	DB	047H
	DB	0ccH
	DB	047H
	DB	0d5H
	DB	023H
	DB	046H
	DB	023H
	DB	08dH
	DB	08fH
	DB	09dH
	DB	01fH
	DB	01fH
	DB	01bH
	DB	0dH
	DB	01aH
	DB	0bdH
	DB	0f2H
	DB	064H
	DB	0ceH
	DB	093H
	DB	0e1H
	DB	0a7H
	DB	0b2H
	DB	0a7H
	DB	013H
	DB	0cfH
	DB	0caH
	DB	07eH
	DB	056H
	DB	0ffH
	DB	079H
	DB	0ebH
	DB	073H
	DB	0abH
	DB	0e7H
	DB	0dfH
	DB	0fdH
	DB	0e2H
	DB	0fbH
	DB	04bH
	DB	0cfH
	DB	058H
	DB	0fcH
	DB	0d8H
	DB	0f0H
	DB	0bH
	DB	0f9H
	DB	08bH
	DB	0cfH
	DB	0bfH
	DB	0aeH
	DB	079H
	DB	0a9H
	DB	0f3H
	DB	072H
	DB	0efH
	DB	0abH
	DB	0a9H
	DB	0afH
	DB	03aH
	DB	0c7H
	DB	023H
	DB	0c7H
	DB	01fH
	DB	0bcH
	DB	0ceH
	DB	079H
	DB	03dH
	DB	0f1H
	DB	0a6H
	DB	0fcH
	DB	0adH
	DB	0ceH
	DB	0dbH
	DB	07dH
	DB	0efH
	DB	0b8H
	DB	0efH
	DB	0baH
	DB	0dfH
	DB	0c7H
	DB	0bdH
	DB	01fH
	DB	099H
	DB	028H
	DB	0fcH
	DB	040H
	DB	0feH
	DB	050H
	DB	0f3H
	DB	0d1H
	DB	0faH
	DB	063H
	DB	0c7H
	DB	0a7H
	DB	0d0H
	DB	04fH
	DB	0f7H
	DB	03eH
	DB	0e7H
	DB	07cH
	DB	0feH
	DB	0fcH
	DB	02fH
	DB	0f7H
	DB	084H
	DB	0f3H
	DB	0fbH
	DB	025H
	DB	0d2H
	DB	09fH
	DB	033H
	DB	00H
	DB	00H
	DB	00H
	DB	020H
	DB	063H
	DB	048H
	DB	052H
	DB	04dH
	DB	00H
	DB	00H
	DB	07aH
	DB	025H
	DB	00H
	DB	00H
	DB	080H
	DB	083H
	DB	00H
	DB	00H
	DB	0f9H
	DB	0ffH
	DB	00H
	DB	00H
	DB	080H
	DB	0e9H
	DB	00H
	DB	00H
	DB	075H
	DB	030H
	DB	00H
	DB	00H
	DB	0eaH
	DB	060H
	DB	00H
	DB	00H
	DB	03aH
	DB	098H
	DB	00H
	DB	00H
	DB	017H
	DB	06fH
	DB	092H
	DB	05fH
	DB	0c5H
	DB	046H
	DB	00H
	DB	00H
	DB	0cH
	DB	045H
	DB	049H
	DB	044H
	DB	041H
	DB	054H
	DB	078H
	DB	0daH
	DB	09cH
	DB	0ceH
	DB	079H
	DB	054H
	DB	0d3H
	DB	067H
	DB	0baH
	DB	07H
	DB	0f0H
	DB	017H
	DB	05bH
	DB	0d1H
	DB	040H
	DB	080H
	DB	040H
	DB	058H
	DB	012H
	DB	08H
	DB	09H
	DB	0fbH
	DB	02aH
	DB	020H
	DB	09bH
	DB	080H
	DB	0ecH
	DB	0abH
	DB	080H
	DB	080H
	DB	060H
	DB	0adH
	DB	055H
	DB	0abH
	DB	0edH
	DB	045H
	DB	0c6H
	DB	0ceH
	DB	03dH
	DB	033H
	DB	03dH
	DB	0b3H
	DB	075H
	DB	03aH
	DB	03dH
	DB	0cH
	DB	0b8H
	DB	0b4H
	DB	0eaH
	DB	075H
	DB	074H
	DB	0f4H
	DB	02aH
	DB	014H
	DB	0b5H
	DB	03aH
	DB	088H
	DB	03aH
	DB	022H
	DB	0daH
	DB	02H
	DB	0b5H
	DB	016H
	DB	06dH
	DB	07H
	DB	02dH
	DB	071H
	DB	09H
	DB	028H
	DB	08bH
	DB	098H
	DB	090H
	DB	084H
	DB	0ecH
	DB	09H
	DB	061H
	DB	033H
	DB	09H
	DB	04H
	DB	07H
	DB	044H
	DB	016H
	DB	021H
	DB	0f8H
	DB	09dH
	DB	03fH
	DB	088H
	DB	0d6H
	DB	0e9H
	DB	09dH
	DB	0f1H
	DB	0dcH
	DB	07bH
	DB	0ffH
	DB	0f8H
	DB	09cH
	DB	0e7H
	DB	07dH
	DB	09eH
	DB	0f7H
	DB	0f9H
	DB	0fdH
	DB	0deH
	DB	02fH
	DB	0e1H
	DB	0abH
	DB	01eH
	DB	092H
	DB	01eH
	DB	0b5H
	DB	080H
	DB	01cH
	DB	0e7H
	DB	055H
	DB	091H
	DB	094H
	DB	0eaH
	DB	024H
	DB	0e2H
	DB	076H
	DB	088H
	DB	041H
	DB	038H
	DB	087H
	DB	058H
	DB	0a4H
	DB	0f0H
	DB	05cH
	DB	01H
	DB	0e1H
	DB	04aH
	DB	05aH
	DB	048H
	DB	04dH
	DB	047H
	DB	0f5H
	DB	052H
	DB	0daH
	DB	01fH
	DB	06cH
	DB	096H
	DB	053H
	DB	0b6H
	DB	053H
	DB	01cH
	DB	0b7H
	DB	0d4H
	DB	06cH
	DB	0d9H
	DB	054H
	DB	078H
	DB	0a1H
	DB	0e0H
	DB	01cH
	DB	073H
	DB	09fH
	DB	08bH
	DB	080H
	DB	0f2H
	DB	011H
	DB	0a5H
	DB	09fH
	DB	0faH
	DB	0bH
	DB	0aaH
	DB	096H
	DB	0faH
	DB	0bH
	DB	0aaH
	DB	096H
	DB	0f2H
	DB	011H
	DB	0a5H
	DB	09fH
	DB	0b9H
	DB	0cfH
	DB	045H
	DB	050H
	DB	078H
	DB	0a1H
	DB	0e0H
	DB	0dcH
	DB	096H
	DB	09aH
	DB	02dH
	DB	09bH
	DB	028H
	DB	0dbH
	DB	029H
	DB	08eH
	DB	0b4H
	DB	03fH
	DB	0d8H
	DB	02cH
	DB	0afH
	DB	0e9H
	DB	0a8H
	DB	05eH
	DB	0caH
	DB	095H
	DB	0b4H
	DB	090H
	DB	0c2H
	DB	073H
	DB	05H
	DB	084H
	DB	073H
	DB	088H
	DB	045H
	DB	0dcH
	DB	0eH
	DB	031H
	DB	048H
	DB	04aH
	DB	075H
	DB	012H
	DB	039H
	DB	0ceH
	DB	0abH
	DB	022H
	DB	03dH
	DB	06aH
	DB	01H
	DB	0e1H
	DB	0abH
	DB	01eH
	DB	012H
	DB	0f2H
	DB	0baH
	DB	00H
	DB	0b7H
	DB	0a4H
	DB	05cH
	DB	052H
	DB	0d3H
	DB	051H
	DB	01dH
	DB	04fH
	DB	0ffH
	DB	084H
	DB	076H
	DB	09eH
	DB	0bcH
	DB	04bH
	DB	09aH
	DB	07cH
	DB	0f7H
	DB	07bH
	DB	037H
	DB	06fH
	DB	0acH
	DB	0dfH
	DB	030H
	DB	0f4H
	DB	0c7H
	DB	09bH
	DB	0a5H
	DB	038H
	DB	072H
	DB	0f7H
	DB	030H
	DB	04eH
	DB	0b6H
	DB	09eH
	DB	0c0H
	DB	0c9H
	DB	0d6H
	DB	013H
	DB	038H
	DB	072H
	DB	0f7H
	DB	030H
	DB	0feH
	DB	078H
	DB	0b3H
	DB	014H
	DB	01bH
	DB	0ebH
	DB	037H
	DB	0cH
	DB	0f9H
	DB	0eeH
	DB	0f7H
	DB	06eH
	DB	026H
	DB	0efH
	DB	092H
	DB	026H
	DB	0faH
	DB	027H
	DB	0b4H
	DB	0f3H
	DB	035H
	DB	01dH
	DB	0d5H
	DB	0f1H
	DB	0b7H
	DB	0a4H
	DB	0dcH
	DB	0ffH
	DB	063H
	DB	080H
	DB	083H
	DB	0cH
	DB	0e2H
	DB	075H
	DB	0c4H
	DB	063H
	DB	0c9H
	DB	096H
	DB	0baH
	DB	04dH
	DB	031H
	DB	0dbH
	DB	04eH
	DB	06fH
	DB	0fdH
	DB	038H
	DB	0f2H
	DB	040H
	DB	0f8H
	DB	0ddH
	DB	0acH
	DB	0eaH
	DB	074H
	DB	054H
	DB	070H
	DB	02bH
	DB	050H
	DB	027H
	DB	0a8H
	DB	09bH
	DB	06aH
	DB	01bH
	DB	068H
	DB	09dH
	DB	0d3H
	DB	03dH
	DB	0d5H
	DB	061H
	DB	0daH
	DB	034H
	DB	085H
	DB	079H
	DB	0ccH
	DB	061H
	DB	01eH
	DB	073H
	DB	098H
	DB	036H
	DB	04dH
	DB	041H
	DB	0f7H
	DB	054H
	DB	087H
	DB	0b6H
	DB	081H
	DB	0d6H
	DB	0b9H
	DB	03aH
	DB	041H
	DB	0ddH
	DB	054H
	DB	05H
	DB	0b7H
	DB	02H
	DB	059H
	DB	0d5H
	DB	0e9H
	DB	088H
	DB	03cH
	DB	010H
	DB	07eH
	DB	077H
	DB	0dbH
	DB	0e9H
	DB	0adH
	DB	01fH
	DB	06fH
	DB	0a9H
	DB	0dbH
	DB	014H
	DB	0e3H
	DB	075H
	DB	0c4H
	DB	063H
	DB	089H
	DB	0dbH
	DB	0c1H
	DB	0ffH
	DB	045H
	DB	00H
	DB	0ceH
	DB	061H
	DB	096H
	DB	0b5H
	DB	0e7H
	DB	09fH
	DB	0d9H
	DB	0efH
	DB	04H
	DB	01cH
	DB	0f0H
	DB	06bH
	DB	08H
	DB	0fdH
	DB	02cH
	DB	074H
	DB	0ecH
	DB	0fdH
	DB	0daH
	DB	0f7H
	DB	071H
	DB	053H
	DB	073H
	DB	03H
	DB	0bH
	DB	0cfH
	DB	017H
	DB	00H
	DB	00H
	DB	0bH
	DB	058H
	DB	0c0H
	DB	0dcH
	DB	0f3H
	DB	039H
	DB	04cH
	DB	09bH
	DB	066H
	DB	030H
	DB	065H
	DB	09aH
	DB	0c2H
	DB	094H
	DB	069H
	DB	0aH
	DB	0d3H
	DB	0a6H
	DB	019H
	DB	0ccH
	DB	03dH
	DB	09fH
	DB	0c3H
	DB	02H
	DB	0ccH
	DB	03bH
	DB	0cfH
	DB	017H
	DB	070H
	DB	053H
	DB	073H
	DB	03H
	DB	0efH
	DB	0d7H
	DB	0beH
	DB	08fH
	DB	0d0H
	DB	0cfH
	DB	042H
	DB	0c7H
	DB	02H
	DB	0eH
	DB	0f8H
	DB	035H
	DB	078H
	DB	0feH
	DB	099H
	DB	0fdH
	DB	0eH
	DB	0e7H
	DB	030H
	DB	0cbH
	DB	0faH
	DB	0b5H
	DB	01H
	DB	0d2H
	DB	0ceH
	DB	0a4H
	DB	02cH
	DB	077H
	DB	03fH
	DB	0e4H
	DB	0baH
	DB	0d9H
	DB	07eH
	DB	097H
	DB	0adH
	DB	084H
	DB	0b5H
	DB	0dbH
	DB	06dH
	DB	061H
	DB	03fH
	DB	077H
	DB	0dfH
	DB	0f3H
	DB	091H
	DB	067H
	DB	06H
	DB	04cH
	DB	0ceH
	DB	04fH
	DB	042H
	DB	03dH
	DB	0a1H
	DB	081H
	DB	0f4H
	DB	0b1H
	DB	014H
	DB	0b2H
	DB	071H
	DB	0d9H
	DB	08fH
	DB	026H
	DB	0ccH
	DB	05eH
	DB	099H
	DB	049H
	DB	01fH
	DB	04bH
	DB	0a1H
	DB	09eH
	DB	0d0H
	DB	060H
	DB	072H
	DB	07eH
	DB	012H
	DB	023H
	DB	0cfH
	DB	0cH
	DB	0d8H
	DB	0cfH
	DB	0ddH
	DB	0f7H
	DB	09cH
	DB	0b5H
	DB	0dbH
	DB	06dH
	DB	0c1H
	DB	07eH
	DB	097H
	DB	0adH
	DB	0c4H
	DB	0fdH
	DB	090H
	DB	0ebH
	DB	0e6H
	DB	0b4H
	DB	033H
	DB	029H
	DB	0cbH
	DB	0ffH
	DB	065H
	DB	080H
	DB	053H
	DB	06dH
	DB	027H
	DB	049H
	DB	046H
	DB	04dH
	DB	0eaH
	DB	05bH
	DB	036H
	DB	07bH
	DB	0acH
	DB	015H
	DB	094H
	DB	072H
	DB	0caH
	DB	04cH
	DB	019H
	DB	0b7H
	DB	0ecH
	DB	0f9H
	DB	043H
	DB	063H
	DB	037H
	DB	084H
	DB	063H
	DB	03dH
	DB	068H
	DB	0d5H
	DB	0b7H
	DB	02eH
	DB	032H
	DB	0f0H
	DB	0d0H
	DB	03aH
	DB	0c2H
	DB	043H
	DB	0ebH
	DB	028H
	DB	0fH
	DB	06dH
	DB	03fH
	DB	0d1H
	DB	03aH
	DB	06aH
	DB	0beH
	DB	033H
	DB	0f0H
	DB	05eH
	DB	0eeH
	DB	0bH
	DB	0c7H
	DB	07aH
	DB	0f0H
	DB	0d0H
	DB	0d8H
	DB	08dH
	DB	032H
	DB	06eH
	DB	0d9H
	DB	073H
	DB	04aH
	DB	039H
	DB	065H
	DB	0c6H
	DB	066H
	DB	08fH
	DB	0b5H
	DB	022H
	DB	0a3H
	DB	026H
	DB	0f5H
	DB	0adH
	DB	053H
	DB	06dH
	DB	027H
	DB	07fH
	DB	0cH
	DB	020H
	DB	050H
	DB	0f3H
	DB	049H
	DB	06fH
	DB	09fH
	DB	098H
	DB	09cH
	DB	0e4H
	DB	09dH
	DB	048H
	DB	0eH
	DB	0abH
	DB	08H
	DB	06bH
	DB	022H
	DB	0e5H
	DB	064H
	DB	026H
	DB	0a8H
	DB	03aH
	DB	00H
	DB	017H
	DB	0e4H
	DB	07fH
	DB	045H
	DB	0dbH
	DB	048H
	DB	02bH
	DB	01aH
	DB	0b5H
	DB	0f5H
	DB	068H
	DB	0e8H
	DB	0ffH
	DB	0aH
	DB	0dH
	DB	083H
	DB	0f5H
	DB	068H
	DB	01cH
	DB	0aaH
	DB	047H
	DB	0e3H
	DB	070H
	DB	03dH
	DB	01aH
	DB	01fH
	DB	0fdH
	DB	01bH
	DB	0c3H
	DB	08bH
	DB	03bH
	DB	0dH
	DB	043H
	DB	0f5H
	DB	068H
	DB	018H
	DB	0f8H
	DB	0aH
	DB	08dH
	DB	0daH
	DB	07aH
	DB	0b4H
	DB	08dH
	DB	0b4H
	DB	0e2H
	DB	082H
	DB	0fcH
	DB	0afH
	DB	08H
	DB	0aaH
	DB	0eH
	DB	00H
	DB	029H
	DB	027H
	DB	033H
	DB	061H
	DB	015H
	DB	061H
	DB	04dH
	DB	027H
	DB	079H
	DB	027H
	DB	092H
	DB	07bH
	DB	0fbH
	DB	0c4H
	DB	044H
	DB	0a0H
	DB	0e6H
	DB	013H
	DB	0d2H
	DB	0a3H
	DB	011H
	DB	010H
	DB	0a9H
	DB	056H
	DB	042H
	DB	03eH
	DB	0fcH
	DB	0eaH
	DB	097H
	DB	0bbH
	DB	0c8H
	DB	027H
	DB	0e4H
	DB	019H
	DB	0f5H
	DB	088H
	DB	035H
	DB	036H
	DB	037H
	DB	06fH
	DB	0c4H
	DB	017H
	DB	0b2H
	DB	013H
	DB	038H
	DB	0abH
	DB	0aeH
	DB	0c6H
	DB	0e7H
	DB	08aH
	DB	063H
	DB	038H
	DB	0aeH
	DB	0aeH
	DB	044H
	DB	055H
	DB	05fH
	DB	025H
	DB	0aaH
	DB	0b4H
	DB	095H
	DB	0a8H
	DB	0eaH
	DB	0afH
	DB	044H
	DB	0d5H
	DB	040H
	DB	025H
	DB	08eH
	DB	0ffH
	DB	044H
	DB	0d5H
	DB	080H
	DB	0f9H
	DB	04eH
	DB	05bH
	DB	089H
	DB	0e3H
	DB	07dH
	DB	095H
	DB	038H
	DB	0aeH
	DB	0aeH
	DB	0c4H
	DB	0e7H
	DB	08aH
	DB	063H
	DB	038H
	DB	0abH
	DB	03eH
	DB	083H
	DB	02fH
	DB	064H
	DB	027H
	DB	0b0H
	DB	0b9H
	DB	0f9H
	DB	06dH
	DB	050H
	DB	08fH
	DB	058H
	DB	083H
	DB	07cH
	DB	042H
	DB	09eH
	DB	07dH
	DB	0f8H
	DB	0d5H
	DB	02fH
	DB	077H
	DB	049H
	DB	0b5H
	DB	012H
	DB	0d2H
	DB	0a3H
	DB	011H
	DB	010H
	DB	0c2H
	DB	057H
	DB	0f1H
	DB	02dH
	DB	0fH
	DB	0b4H
	DB	0ecH
	DB	0dfH
	DB	0eaH
	DB	073H
	DB	0d4H
	DB	05bH
	DB	044H
	DB	076H
	DB	011H
	DB	0d0H
	DB	04eH
	DB	0d1H
	DB	0f0H
	DB	0deH
	DB	0ddH
	DB	06dH
	DB	0d8H
	DB	023H
	DB	0dcH
	DB	089H
	DB	0ddH
	DB	0bdH
	DB	03bH
	DB	051H
	DB	026H
	DB	029H
	DB	045H
	DB	099H
	DB	0bcH
	DB	014H
	DB	0e5H
	DB	0caH
	DB	052H
	DB	094H
	DB	0abH
	DB	04bH
	DB	051H
	DB	0aeH
	DB	029H
	DB	045H
	DB	059H
	DB	0dfH
	DB	0a2H
	DB	072H
	DB	06dH
	DB	029H
	DB	0caH
	DB	0b4H
	DB	0e6H
	DB	073H
	DB	0dfH
	DB	0e2H
	DB	05dH
	DB	0b9H
	DB	0baH
	DB	014H
	DB	0e5H
	DB	0aaH
	DB	052H
	DB	094H
	DB	029H
	DB	04aH
	DB	051H
	DB	026H
	DB	02dH
	DB	0c5H
	DB	0eeH
	DB	0deH
	DB	09dH
	DB	0d8H
	DB	02dH
	DB	0daH
	DB	089H
	DB	0f7H
	DB	0eeH
	DB	06cH
	DB	05H
	DB	0edH
	DB	014H
	DB	0dH
	DB	064H
	DB	017H
	DB	081H
	DB	0cfH
	DB	051H
	DB	06fH
	DB	0d1H
	DB	081H
	DB	096H
	DB	0fdH
	DB	05bH
	DB	0f9H
	DB	02aH
	DB	0beH
	DB	025H
	DB	011H
	DB	0a9H
	DB	044H
	DB	076H
	DB	099H
	DB	0d5H
	DB	099H
	DB	017H
	DB	0c8H
	DB	06eH
	DB	02H
	DB	072H
	DB	08cH
	DB	080H
	DB	07aH
	DB	096H
	DB	08aH
	DB	06cH
	DB	06eH
	DB	016H
	DB	076H
	DB	074H
	DB	097H
	DB	0e0H
	DB	083H
	DB	09eH
	DB	09fH
	DB	0a1H
	DB	044H
	DB	05cH
	DB	08cH
	DB	012H
	DB	049H
	DB	031H
	DB	07eH
	DB	026H
	DB	02bH
	DB	046H
	DB	089H
	DB	0a2H
	DB	018H
	DB	025H
	DB	0caH
	DB	062H
	DB	094H
	DB	0a8H
	DB	0ccH
	DB	0d4H
	DB	066H
	DB	0aaH
	DB	09fH
	DB	090H
	DB	017H
	DB	0a3H
	DB	044H
	DB	05aH
	DB	08cH
	DB	012H
	DB	071H
	DB	031H
	DB	03eH
	DB	010H
	DB	0eeH
	DB	0c0H
	DB	08eH
	DB	087H
	DB	025H
	DB	058H
	DB	0c3H
	DB	0cdH
	DB	04H
	DB	0f5H
	DB	02cH
	DB	015H
	DB	0a4H
	DB	082H
	DB	080H
	DB	0ecH
	DB	021H
	DB	0c8H
	DB	0acH
	DB	0ceH
	DB	0bcH
	DB	020H
	DB	052H
	DB	08bH
	DB	0ecH
	DB	048H
	DB	0e3H
	DB	083H
	DB	0c6H
	DB	0c8H
	DB	0e8H
	DB	0aaH
	DB	068H
	DB	02eH
	DB	0d9H
	DB	04bH
	DB	060H
	DB	071H
	DB	08aH
	DB	0c0H
	DB	0b2H
	DB	076H
	DB	029H
	DB	02H
	DB	0bfH
	DB	0f7H
	DB	047H
	DB	05eH
	DB	07bH
	DB	0eH
	DB	0d6H
	DB	0f3H
	DB	0bH
	DB	091H
	DB	0dfH
	DB	093H
	DB	08bH
	DB	082H
	DB	0deH
	DB	05cH
	DB	0e4H
	DB	04bH
	DB	072H
	DB	051H
	DB	020H
	DB	0cbH
	DB	045H
	DB	081H
	DB	03cH
	DB	017H
	DB	05H
	DB	08aH
	DB	0d7H
	DB	090H
	DB	0e7H
	DB	0a2H
	DB	040H
	DB	092H
	DB	08bH
	DB	02H
	DB	071H
	DB	02eH
	DB	0f2H
	DB	07bH
	DB	072H
	DB	0b1H
	DB	09eH
	DB	05fH
	DB	088H
	DB	0bcH
	DB	08eH
	DB	01cH
	DB	04H
	DB	07eH
	DB	0efH
	DB	0fH
	DB	0cbH
	DB	0daH
	DB	0a5H
	DB	0b0H
	DB	038H
	DB	04dH
	DB	040H
	DB	0f6H
	DB	012H
	DB	044H
	DB	057H
	DB	045H
	DB	073H
	DB	01bH
	DB	0bbH
	DB	0bfH
	DB	08eH
	DB	020H
	DB	025H
	DB	0f5H
	DB	0c5H
	DB	07bH
	DB	0d8H
	DB	095H
	DB	0ecH
	DB	041H
	DB	0f2H
	DB	0dfH
	DB	04H
	DB	0cbH
	DB	0ceH
	DB	0beH
	DB	081H
	DB	0a5H
	DB	075H
	DB	016H
	DB	0a0H
	DB	07dH
	DB	04bH
	DB	045H
	DB	054H
	DB	0ebH
	DB	04aH
	DB	0a4H
	DB	074H
	DB	027H
	DB	022H
	DB	09eH
	DB	01fH
	DB	08bH
	DB	04H
	DB	061H
	DB	02cH
	DB	0e2H
	DB	0c5H
	DB	031H
	DB	048H
	DB	090H
	DB	09aH
	DB	0c9H
	DB	062H
	DB	090H
	DB	020H
	DB	037H
	DB	0d7H
	DB	017H
	DB	0e7H
	DB	017H
	DB	0bdH
	DB	034H
	DB	016H
	DB	09H
	DB	0e2H
	DB	018H
	DB	024H
	DB	08H
	DB	063H
	DB	091H
	DB	020H
	DB	088H
	DB	045H
	DB	06aH
	DB	077H
	DB	022H
	DB	0a2H
	DB	05aH
	DB	057H
	DB	082H
	DB	0d6H
	DB	044H
	DB	0c5H
	DB	0d2H
	DB	04bH
	DB	016H
	DB	058H
	DB	076H
	DB	0eeH
	DB	0dH
	DB	090H
	DB	0a3H
	DB	04H
	DB	0ecH
	DB	0cfH
	DB	0d9H
	DB	083H
	DB	0dbH
	DB	01bH
	DB	08aH
	DB	077H
	DB	091H
	DB	088H
	DB	02fH
	DB	0c2H
	DB	0aeH
	DB	0d8H
	DB	01fH
	DB	0b3H
	DB	09dH
	DB	079H
	DB	0e3H
	DB	038H
	DB	081H
	DB	075H
	DB	0edH
	DB	032H
	DB	050H
	DB	01aH
	DB	0deH
	DB	04H
	DB	0a5H
	DB	0e9H
	DB	04dH
	DB	0b0H
	DB	06eH
	DB	03bH
	DB	023H
	DB	0b0H
	DB	0c3H
	DB	017H
	DB	02bH
	DB	0f8H
	DB	01H
	DB	08H
	DB	0eeH
	DB	0f1H
	DB	0c7H
	DB	0aH
	DB	091H
	DB	03fH
	DB	056H
	DB	048H
	DB	0ccH
	DB	0a4H
	DB	066H
	DB	0ffH
	DB	0aeH
	DB	017H
	DB	0f9H
	DB	02fH
	DB	07eH
	DB	0c3H
	DB	0fH
	DB	040H
	DB	050H
	DB	087H
	DB	02fH
	DB	0dcH
	DB	06eH
	DB	03bH
	DB	083H
	DB	072H
	DB	0edH
	DB	04dH
	DB	058H
	DB	035H
	DB	02cH
	DB	085H
	DB	075H
	DB	0edH
	DB	032H
	DB	02cH
	DB	039H
	DB	041H
	DB	040H
	DB	0abH
	DB	0b0H
	DB	09dH
	DB	089H
	DB	0f8H
	DB	022H
	DB	0ecH
	DB	01bH
	DB	062H
	DB	07bH
	DB	0d0H
	DB	04aH
	DB	06cH
	DB	075H
	DB	0ccH
	DB	012H
	DB	0d6H
	DB	0d5H
	DB	096H
	DB	0b0H
	DB	0bdH
	DB	064H
	DB	05H
	DB	0bbH
	DB	0abH
	DB	056H
	DB	0b0H
	DB	06dH
	DB	0a6H
	DB	0c0H
	DB	0f6H
	DB	016H
	DB	05H
	DB	02eH
	DB	0f7H
	DB	0edH
	DB	0c1H
	DB	07eH
	DB	0c8H
	DB	00H
	DB	047H
	DB	0c8H
	DB	04H
	DB	047H
	DB	0ccH
	DB	00H
	DB	047H
	DB	0c2H
	DB	00H
	DB	047H
	DB	0faH
	DB	02H
	DB	0f3H
	DB	05fH
	DB	093H
	DB	098H
	DB	077H
	DB	085H
	DB	04cH
	DB	0b0H
	DB	01fH
	DB	032H
	DB	0e0H
	DB	0d2H
	DB	06eH
	DB	0fH
	DB	0dbH
	DB	0dbH
	DB	014H
	DB	0d8H
	DB	036H
	DB	053H
	DB	060H
	DB	077H
	DB	0d5H
	DB	0aH
	DB	076H
	DB	097H
	DB	0adH
	DB	061H
	DB	075H
	DB	0c6H
	DB	012H
	DB	0d6H
	DB	095H
	DB	0cbH
	DB	040H
	DB	03fH
	DB	04cH
	DB	013H
	DB	010H
	DB	08bH
	DB	0bdH
	DB	016H
	DB	05aH
	DB	0abH
	DB	0caH
	DB	065H
	DB	0b0H
	DB	03fH
	DB	04fH
	DB	085H
	DB	07dH
	DB	03dH
	DB	015H
	DB	0eH
	DB	0d7H
	DB	06dH
	DB	0e0H
	DB	078H
	DB	0cbH
	DB	016H
	DB	0eH
	DB	06dH
	DB	036H
	DB	070H
	DB	0ecH
	DB	0b2H
	DB	085H
	DB	08bH
	DB	0c0H
	DB	01eH
	DB	0cH
	DB	031H
	DB	01dH
	DB	0cH
	DB	089H
	DB	03H
	DB	018H
	DB	032H
	DB	07H
	DB	030H
	DB	0e5H
	DB	0f4H
	DB	097H
	DB	018H
	DB	0f2H
	DB	07fH
	DB	0eeH
	DB	099H
	DB	072H
	DB	03aH
	DB	098H
	DB	032H
	DB	03aH
	DB	098H
	DB	012H
	DB	03aH
	DB	018H
	DB	062H
	DB	07H
	DB	0b8H
	DB	08H
	DB	068H
	DB	070H
	DB	0ecH
	DB	05cH
	DB	0fcH
	DB	017H
	DB	0fdH
	DB	096H
	DB	02dH
	DB	01cH
	DB	0beH
	DB	0b3H
	DB	081H
	DB	043H
	DB	0a3H
	DB	0dH
	DB	0ecH
	DB	0ceH
	DB	05bH
	DB	0c3H
	DB	0eaH
	DB	073H
	DB	04bH
	DB	058H
	DB	01eH
	DB	05cH
	DB	0a2H
	DB	021H
	DB	016H
	DB	07bH
	DB	02dH
	DB	06H
	DB	0a8H
	DB	055H
	DB	014H
	DB	0d0H
	DB	02fH
	DB	0daH
	DB	0c1H
	DB	0f1H
	DB	01bH
	DB	03bH
	DB	038H
	DB	0ddH
	DB	0a0H
	DB	0c1H
	DB	085H
	DB	0e7H
	DB	00H
	DB	066H
	DB	0a7H
	DB	023H
	DB	098H
	DB	02H
	DB	03aH
	DB	098H
	DB	0bdH
	DB	08eH
	DB	070H
	DB	095H
	DB	03bH
	DB	0c1H
	DB	04dH
	DB	0e9H
	DB	04H
	DB	037H
	DB	0b5H
	DB	013H
	DB	058H
	DB	0afH
	DB	0d2H
	DB	038H
	DB	083H
	DB	0a5H
	DB	031H
	DB	057H
	DB	0b5H
	DB	0f3H
	DB	08fH
	DB	073H
	DB	085H
	DB	033H
	DB	05cH
	DB	065H
	DB	04eH
	DB	060H
	DB	08aH
	DB	01dH
	DB	0c1H
	DB	0e4H
	DB	0d3H
	DB	0c1H
	DB	0e8H
	DB	074H
	DB	084H
	DB	033H
	DB	0cfH
	DB	01H
	DB	04eH
	DB	037H
	DB	068H
	DB	070H
	DB	0fcH
	DB	0c6H
	DB	0eH
	DB	0eH
	DB	017H
	DB	06dH
	DB	041H
	DB	03dH
	DB	0beH
	DB	07cH
	DB	031H
	DB	0c0H
	DB	0b2H
	DB	043H
	DB	0cbH
	DB	0e4H
	DB	036H
	DB	027H
	DB	0a9H
	DB	0a0H
	DB	05fH
	DB	0b6H
	DB	087H
	DB	0f3H
	DB	075H
	DB	03aH
	DB	05cH
	DB	06eH
	DB	03bH
	DB	0c1H
	DB	0b5H
	DB	0c3H
	DB	05H
	DB	02cH
	DB	01H
	DB	03H
	DB	0eeH
	DB	012H
	DB	026H
	DB	0d8H
	DB	04aH
	DB	057H
	DB	070H
	DB	0faH
	DB	058H
	DB	0f0H
	DB	0ecH
	DB	077H
	DB	087H
	DB	0d7H
	DB	020H
	DB	0bH
	DB	05eH
	DB	083H
	DB	0eeH
	DB	08bH
	DB	086H
	DB	016H
	DB	079H
	DB	0beH
	DB	030H
	DB	0f8H
	DB	02H
	DB	0bH
	DB	09eH
	DB	05aH
	DB	016H
	DB	038H
	DB	01aH
	DB	057H
	DB	0b0H
	DB	015H
	DB	04cH
	DB	0b8H
	DB	04bH
	DB	018H
	DB	070H
	DB	0e3H
	DB	0bbH
	DB	080H
	DB	079H
	DB	0dfH
	DB	019H
	DB	02eH
	DB	02dH
	DB	08eH
	DB	070H
	DB	06eH
	DB	0a2H
	DB	083H
	DB	05eH
	DB	047H
	DB	083H
	DB	0ddH
	DB	049H
	DB	02aH
	DB	06cH
	DB	08fH
	DB	050H
	DB	045H
	DB	0c4H
	DB	0fbH
	DB	084H
	DB	057H
	DB	08bH
	DB	0d3H
	DB	05fH
	DB	01cH
	DB	04dH
	DB	0f6H
	DB	05fH
	DB	0d2H
	DB	0c0H
	DB	0fcH
	DB	09bH
	DB	0bH
	DB	0dcH
	DB	05aH
	DB	019H
	DB	060H
	DB	0f3H
	DB	0ddH
	DB	0e0H
	DB	021H
	DB	071H
	DB	087H
	DB	0b7H
	DB	09aH
	DB	03H
	DB	0dfH
	DB	01H
	DB	0fH
	DB	0f8H
	DB	03dH
	DB	0f2H
	DB	082H
	DB	0bfH
	DB	0deH
	DB	07H
	DB	081H
	DB	023H
	DB	0deH
	DB	08H
	DB	018H
	DB	0f1H
	DB	059H
	DB	034H
	DB	0eaH
	DB	083H
	DB	0c0H
	DB	051H
	DB	0efH
	DB	097H
	DB	035H
	DB	070H
	DB	0d4H
	DB	03cH
	DB	037H
	DB	078H
	DB	0c3H
	DB	05fH
	DB	0e7H
	DB	0dH
	DB	0dfH
	DB	021H
	DB	04fH
	DB	0f8H
	DB	068H
	DB	039H
	DB	0f0H
	DB	052H
	DB	0b2H
	DB	0c1H
	DB	011H
	DB	0b1H
	DB	0e0H
	DB	0deH
	DB	0e5H
	DB	0aH
	DB	0d7H
	DB	0dbH
	DB	0cH
	DB	030H
	DB	0aeH
	DB	0bbH
	DB	0c0H
	DB	0feH
	DB	012H
	DB	0dH
	DB	04eH
	DB	07fH
	DB	071H
	DB	034H
	DB	0f9H
	DB	09eH
	DB	0f0H
	DB	0b9H
	DB	049H
	DB	0f2H
	DB	06bH
	DB	0d7H
	DB	056H
	DB	079H
	DB	09eH
	DB	0f3H
	DB	030H
	DB	0daH
	DB	07fH
	DB	069H
	DB	03H
	DB	0ceH
	DB	04dH
	DB	057H
	DB	078H
	DB	0b5H
	DB	0bbH
	DB	0c3H
	DB	04fH
	DB	0ecH
	DB	081H
	DB	00H
	DB	0b5H
	DB	037H
	DB	082H
	DB	087H
	DB	07cH
	DB	011H
	DB	0aaH
	DB	0f7H
	DB	0c7H
	DB	04aH
	DB	063H
	DB	020H
	DB	0c2H
	DB	01fH
	DB	07H
	DB	021H
	DB	072H
	DB	07cH
	DB	05H
	DB	022H
	DB	027H
	DB	082H
	DB	011H
	DB	035H
	DB	011H
	DB	08cH
	DB	0a8H
	DB	0f1H
	DB	060H
	DB	044H
	DB	04eH
	DB	098H
	DB	08dH
	DB	0bfH
	DB	0e2H
	DB	0efH
	DB	0c1H
	DB	058H
	DB	039H
	DB	016H
	DB	088H
	DB	050H
	DB	043H
	DB	00H
	DB	042H
	DB	086H
	DB	0fdH
	DB	010H
	DB	0acH
	DB	0f5H
	DB	081H
	DB	0bfH
	DB	0ccH
	DB	013H
	DB	03eH
	DB	0fH
	DB	039H
	DB	0f0H
	DB	0e4H
	DB	0b1H
	DB	0c0H
	DB	0feH
	DB	09eH
	DB	09H
	DB	0daH
	DB	045H
	DB	01bH
	DB	078H
	DB	0d6H
	DB	070H
	DB	08cH
	DB	079H
	DB	0b5H
	DB	06bH
	DB	0abH
	DB	0c8H
	DB	09eH
	DB	0efH
	DB	077H
	DB	06fH
	DB	0fH
	DB	0bdH
	DB	010H
	DB	02cH
	DB	0a5H
	DB	0d6H
	DB	02dH
	DB	083H
	DB	0fH
	DB	097H
	DB	03H
	DB	0ffH
	DB	02eH
	DB	02fH
	DB	0acH
	DB	090H
	DB	0f9H
	DB	061H
	DB	065H
	DB	07fH
	DB	020H
	DB	022H
	DB	0f5H
	DB	02bH
	DB	010H
	DB	033H
	DB	016H
	DB	08aH
	DB	0b8H
	DB	089H
	DB	070H
	DB	0c4H
	DB	04fH
	DB	046H
	DB	022H
	DB	071H
	DB	02aH
	DB	0aH
	DB	089H
	DB	053H
	DB	0d1H
	DB	048H
	DB	09aH
	DB	08aH
	DB	046H
	DB	0d2H
	DB	074H
	DB	034H
	DB	012H
	DB	07fH
	DB	06aH
	DB	02aH
	DB	0aH
	DB	09H
	DB	04fH
	DB	023H
	DB	011H
	DB	0f7H
	DB	024H
	DB	02H
	DB	031H
	DB	063H
	DB	02bH
	DB	011H
	DB	06dH
	DB	08H
	DB	041H
	DB	0f8H
	DB	060H
	DB	030H
	DB	042H
	DB	094H
	DB	0feH
	DB	08H
	DB	014H
	DB	078H
	DB	0c3H
	DB	097H
	DB	0e7H
	DB	01H
	DB	0afH
	DB	0efH
	DB	0dcH
	DB	061H
	DB	075H
	DB	0ceH
	DB	012H
	DB	021H
	DB	067H
	DB	083H
	DB	0a4H
	DB	07bH
	DB	0aeH
	DB	0efH
	DB	0deH
	DB	04eH
	DB	0eeH
	DB	074H
	DB	0dfH
	DB	0f1H
	DB	049H
	DB	0acH
	DB	08bH
	DB	0bfH
	DB	0f6H
	DB	0e6H
	DB	079H
	DB	02H
	DB	0bfH
	DB	016H
	DB	02fH
	DB	04H
	DB	075H
	DB	0f9H
	DB	022H
	DB	04cH
	DB	016H
	DB	084H
	DB	0a8H
	DB	081H
	DB	010H
	DB	0c4H
	DB	08cH
	DB	046H
	DB	020H
	DB	07eH
	DB	022H
	DB	01aH
	DB	0c9H
	DB	04fH
	DB	063H
	DB	091H
	DB	03aH
	DB	0bdH
	DB	01aH
	DB	0e9H
	DB	0b3H
	DB	09H
	DB	0c8H
	DB	078H
	DB	0e1H
	DB	059H
	DB	022H
	DB	032H
	DB	05fH
	DB	091H
	DB	0f1H
	DB	02cH
	DB	011H
	DB	0e9H
	DB	0b3H
	DB	0f1H
	DB	048H
	DB	09bH
	DB	059H
	DB	08dH
	DB	0e4H
	DB	0a9H
	DB	038H
	DB	024H
	DB	04eH
	DB	0acH
	DB	042H
	DB	0dcH
	DB	048H
	DB	024H
	DB	0a2H
	DB	07H
	DB	0c3H
	DB	010H
	DB	0aeH
	DB	08H
	DB	0c6H
	DB	0aH
	DB	0beH
	DB	03fH
	DB	02H
	DB	0eeH
	DB	07aH
	DB	0c3H
	DB	0e7H
	DB	01aH
	DB	07H
	DB	04bH
	DB	04eH
	DB	011H
	DB	024H
	DB	09eH
	DB	05fH
	DB	07dH
	DB	0edH
	DB	04eH
	DB	0f7H
	DB	06dH
	DB	02fH
	DB	022H
	DB	097H
	DB	028H
	DB	0acH
	DB	07eH
	DB	07eH
	DB	0f5H
	DB	083H
	DB	0ddH
	DB	0ccH
	DB	0bH
	DB	04eH
	DB	046H
	DB	08fH
	DB	0bfH
	DB	0b1H
	DB	010H
	DB	0dcH
	DB	0e9H
	DB	08fH
	DB	095H
	DB	0d2H
	DB	010H
	DB	0acH
	DB	01aH
	DB	08H
	DB	047H
	DB	0fcH
	DB	068H
	DB	034H
	DB	092H
	DB	027H
	DB	0e2H
	DB	090H
	DB	03eH
	DB	095H
	DB	080H
	DB	0ccH
	DB	0d9H
	DB	024H
	DB	0acH
	DB	099H
	DB	04fH
	DB	045H
	DB	0f6H
	DB	05cH
	DB	02aH
	DB	072H
	DB	0e6H
	DB	053H
	DB	091H
	DB	063H
	DB	04aH
	DB	043H
	DB	08eH
	DB	029H
	DB	0ddH
	DB	02cH
	DB	0dH
	DB	0d9H
	DB	0a6H
	DB	054H
	DB	0acH
	DB	099H
	DB	04bH
	DB	041H
	DB	0d6H
	DB	06cH
	DB	032H
	DB	0d2H
	DB	0a7H
	DB	012H
	DB	091H
	DB	032H
	DB	011H
	DB	087H
	DB	084H
	DB	091H
	DB	055H
	DB	088H
	DB	019H
	DB	088H
	DB	040H
	DB	084H
	DB	02cH
	DB	04H
	DB	021H
	DB	0fH
	DB	02H
	DB	011H
	DB	0c0H
	DB	0f5H
	DB	01H
	DB	0bbH
	DB	0d1H
	DB	015H
	DB	0ceH
	DB	0a7H
	DB	01dH
	DB	0c7H
	DB	076H
	DB	034H
	DB	0eeH
	DB	0d8H
	DB	0a3H
	DB	090H
	DB	028H
	DB	0acH
	DB	088H
	DB	05cH
	DB	024H
	DB	027H
	DB	0d7H
	DB	0eeH
	DB	05dH
	DB	0bH
	DB	05dH
	DB	0d3H
	DB	090H
	DB	071H
	DB	0c5H
	DB	0a6H
	DB	07eH
	DB	039H
	DB	056H
	DB	0b4H
	DB	05H
	DB	020H
	DB	052H
	DB	01cH
	DB	086H
	DB	058H
	DB	06dH
	DB	024H
	DB	012H
	DB	0dH
	DB	0b1H
	DB	048H
	DB	01bH
	DB	04fH
	DB	040H
	DB	0e6H
	DB	054H
	DB	032H
	DB	0b2H
	DB	067H
	DB	053H
	DB	0b1H
	DB	076H
	DB	03eH
	DB	03H
	DB	079H
	DB	0a6H
	DB	04cH
	DB	0e4H
	DB	02fH
	DB	0acH
	DB	041H
	DB	0c1H
	DB	02bH
	DB	0f2H
	DB	04dH
	DB	059H
	DB	0c8H
	DB	033H
	DB	065H
	DB	021H
	DB	077H
	DB	02eH
	DB	03H
	DB	039H
	DB	033H
	DB	069H
	DB	0c8H
	DB	09cH
	DB	04cH
	DB	046H
	DB	0eaH
	DB	0e3H
	DB	04H
	DB	024H
	DB	0eaH
	DB	062H
	DB	011H
	DB	0abH
	DB	089H
	DB	044H
	DB	084H
	DB	028H
	DB	014H
	DB	061H
	DB	0f7H
	DB	082H
	DB	011H
	DB	0f0H
	DB	09dH
	DB	02fH
	DB	028H
	DB	067H
	DB	096H
	DB	022H
	DB	0f3H
	DB	062H
	DB	0faH
	DB	095H
	DB	06bH
	DB	0f7H
	DB	09aH
	DB	042H
	DB	0e4H
	DB	062H
	DB	039H
	DB	021H
	DB	052H
	DB	081H
	DB	094H
	DB	068H
	DB	045H
	DB	05aH
	DB	0b2H
	DB	0bfH
	DB	079H
	DB	0efH
	DB	0bbH
	DB	01eH
	DB	075H
	DB	0eeH
	DB	072H
	DB	04eH
	DB	033H
	DB	0bH
	DB	011H
	DB	0ddH
	DB	0a1H
	DB	088H
	DB	057H
	DB	046H
	DB	023H
	DB	079H
	DB	038H
	DB	0eH
	DB	019H
	DB	08fH
	DB	093H
	DB	090H
	DB	033H
	DB	099H
	DB	086H
	DB	082H
	DB	0d9H
	DB	02cH
	DB	014H
	DB	0ceH
	DB	067H
	DB	0a3H
	DB	068H
	DB	021H
	DB	017H
	DB	01bH
	DB	016H
	DB	0f2H
	DB	0f0H
	DB	0f6H
	DB	042H
	DB	0beH
	DB	0b9H
	DB	0e6H
	DB	061H
	DB	083H
	DB	069H
	DB	02dH
	DB	0d6H
	DB	0cfH
	DB	0e7H
	DB	0a2H
	DB	070H
	DB	036H
	DB	07H
	DB	0f9H
	DB	0d3H
	DB	059H
	DB	0c8H
	DB	099H
	DB	048H
	DB	043H
	DB	086H
	DB	021H
	DB	09H
	DB	029H
	DB	0fdH
	DB	071H
	DB	058H
	DB	02dH
	DB	08dH
	DB	046H
	DB	074H
	DB	057H
	DB	038H
	DB	042H
	DB	05aH
	DB	02H
	DB	0e1H
	DB	076H
	DB	0d9H
	DB	05H
	DB	0ecH
	DB	0d3H
	DB	04cH
	DB	0d5H
	DB	0beH
	DB	0ebH
	DB	09fH
	DB	06dH
	DB	0d3H
	DB	0f6H
	DB	06aH
	DB	089H
	DB	054H
	DB	028H
	DB	025H
	DB	044H
	DB	02eH
	DB	054H
	DB	010H
	DB	0a5H
	DB	048H
	DB	049H
	DB	0daH
	DB	03bH
	DB	0dbH
	DB	01dH
	DB	03fH
	DB	0baH
	DB	0feH
	DB	0dbH
	DB	05dH
	DB	09cH
	DB	06H
	DB	0b7H
	DB	027H
	DB	0feH
	DB	0b7H
	DB	0bdH
	DB	010H
	DB	027H
	DB	08aH
	DB	042H
	DB	09aH
	DB	036H
	DB	01H
	DB	06bH
	DB	0cH
	DB	0c9H
	DB	0c8H
	DB	09bH
	DB	0c8H
	DB	040H
	DB	0d1H
	DB	074H
	DB	036H
	DB	036H
	DB	0ccH
	DB	0e5H
	DB	061H
	DB	0a3H
	DB	069H
	DB	01dH
	DB	036H
	DB	02dH
	DB	014H
	DB	062H
	DB	0f3H
	DB	02bH
	DB	036H
	DB	099H
	DB	0d6H
	DB	061H
	DB	0e3H
	DB	05cH
	DB	01H
	DB	036H
	DB	0ccH
	DB	0acH
	DB	045H
	DB	0e1H
	DB	093H
	DB	06cH
	DB	0acH
	DB	035H
	DB	066H
	DB	020H
	DB	06bH
	DB	028H
	DB	019H
	DB	029H
	DB	0caH
	DB	0d5H
	DB	088H
	DB	0e7H
	DB	0afH
	DB	042H
	DB	0c4H
	DB	09dH
	DB	030H
	DB	078H
	DB	07eH
	DB	0cdH
	DB	082H
	DB	0dbH
	DB	019H
	DB	0e7H
	DB	027H
	DB	0bfH
	DB	0bbH
	DB	0f2H
	DB	0ebH
	DB	04fH
	DB	0dbH
	DB	0bbH
	DB	0daH
	DB	09dH
	DB	095H
	DB	062H
	DB	025H
	DB	091H
	DB	08bH
	DB	015H
	DB	084H
	DB	0e8H
	DB	0e4H
	DB	03aH
	DB	0a2H
	DB	093H
	DB	0ebH
	DB	0c8H
	DB	0b8H
	DB	06aH
	DB	09cH
	DB	0f0H
	DB	01eH
	DB	0f0H
	DB	07cH
	DB	0ffH
	DB	0e3H
	DB	0eaH
	DB	07bH
	DB	095H
	DB	0beH
	DB	057H
	DB	0bdH
	DB	026H
	DB	082H
	DB	078H
	DB	0beH
	DB	088H
	DB	0efH
	DB	08dH
	DB	041H
	DB	0c6H
	DB	040H
	DB	032H
	DB	072H
	DB	046H
	DB	033H
	DB	090H
	DB	0ffH
	DB	024H
	DB	01bH
	DB	0ebH
	DB	067H
	DB	0f2H
	DB	0f0H
	DB	0f6H
	DB	0dcH
	DB	03aH
	DB	06cH
	DB	09cH
	DB	02fH
	DB	0c2H
	DB	03bH
	DB	0a6H
	DB	0f5H
	DB	0d8H
	DB	064H
	DB	05aH
	DB	08fH
	DB	077H
	DB	0e6H
	DB	08bH
	DB	0b0H
	DB	071H
	DB	0aeH
	DB	08H
	DB	06fH
	DB	0cfH
	DB	016H
	DB	062H
	DB	0fdH
	DB	0d3H
	DB	07cH
	DB	0e4H
	DB	03fH
	DB	0ceH
	DB	046H
	DB	0b6H
	DB	02eH
	DB	01dH
	DB	0e9H
	DB	0aaH
	DB	024H
	DB	024H
	DB	0f6H
	DB	0c4H
	DB	021H
	DB	08aH
	DB	017H
	DB	0eH
	DB	0efH
	DB	06fH
	DB	038H
	DB	0f0H
	DB	03cH
	DB	0cfH
	DB	07eH
	DB	0f2H
	DB	0deH
	DB	097H
	DB	05bH
	DB	0abH
	DB	078H
	DB	05dH
	DB	03cH
	DB	0dfH
	DB	071H
	DB	0cdH
	DB	04H
	DB	0d1H
	DB	029H
	DB	0f4H
	DB	044H
	DB	0a7H
	DB	0d0H
	DB	013H
	DB	062H
	DB	050H
	DB	018H
	DB	088H
	DB	041H
	DB	061H
	DB	020H
	DB	046H
	DB	095H
	DB	091H
	DB	08cH
	DB	029H
	DB	0c6H
	DB	048H
	DB	05bH
	DB	067H
	DB	09bH
	DB	0dfH
	DB	07fH
	DB	036H
	DB	0fdH
	DB	0fcH
	DB	0a0H
	DB	0ffH
	DB	0b7H
	DB	03eH
	DB	046H
	DB	07fH
	DB	09eH
	DB	02fH
	DB	012H
	DB	07aH
	DB	0e3H
	DB	090H
	DB	0deH
	DB	09fH
	DB	08cH
	DB	0ecH
	DB	0d1H
	DB	04cH
	DB	0e4H
	DB	04dH
	DB	0e4H
	DB	0a0H
	DB	070H
	DB	03aH
	DB	01fH
	DB	0ebH
	DB	067H
	DB	0d7H
	DB	0e1H
	DB	0adH
	DB	067H
	DB	085H
	DB	0d8H
	DB	030H
	DB	057H
	DB	084H
	DB	0b7H
	DB	09eH
	DB	015H
	DB	062H
	DB	0fdH
	DB	0ccH
	DB	03aH
	DB	014H
	DB	03eH
	DB	0cdH
	DB	047H
	DB	0deH
	DB	0dfH
	DB	073H
	DB	091H
	DB	0adH
	DB	0cfH
	DB	042H
	DB	0baH
	DB	026H
	DB	05H
	DB	089H
	DB	0c2H
	DB	0d5H
	DB	058H
	DB	0d5H
	DB	01aH
	DB	05H
	DB	0cfH
	DB	0abH
	DB	01cH
	DB	078H
	DB	05eH
	DB	0f0H
	DB	030H
	DB	07eH
	DB	050H
	DB	0bfH
	DB	0e3H
	DB	060H
	DB	06bH
	DB	067H
	DB	0abH
	DB	0dfH
	DB	098H
	DB	0eaH
	DB	031H
	DB	031H
	DB	0aaH
	DB	0c7H
	DB	088H
	DB	041H
	DB	039H
	DB	042H
	DB	0cH
	DB	0caH
	DB	011H
	DB	042H
	DB	0f4H
	DB	0aH
	DB	03dH
	DB	0d1H
	DB	02bH
	DB	0f4H
	DB	044H
	DB	0a7H
	DB	0d0H
	DB	091H
	DB	031H
	DB	0e5H
	DB	018H
	DB	031H
	DB	0caH
	DB	08cH
	DB	016H
	DB	0edH
	DB	05dH
	DB	01dH
	DB	01eH
	DB	07fH
	DB	0baH
	DB	0f1H
	DB	0a7H
	DB	01dH
	DB	049H
	DB	04dH
	DB	09H
	DB	03dH
	DB	05eH
	DB	05cH
	DB	0eH
	DB	022H
	DB	05H
	DB	02bH
	DB	091H
	DB	0a6H
	DB	04eH
	DB	042H
	DB	0eeH
	DB	0a3H
	DB	02cH
	DB	014H
	DB	08cH
	DB	0e5H
	DB	0a0H
	DB	070H
	DB	022H
	DB	0fH
	DB	045H
	DB	093H
	DB	0f9H
	DB	028H
	DB	09aH
	DB	02cH
	DB	040H
	DB	0d1H
	DB	093H
	DB	02H
	DB	014H
	DB	08eH
	DB	0e7H
	DB	0a1H
	DB	0c0H
	DB	098H
	DB	083H
	DB	0b5H
	DB	0c3H
	DB	06bH
	DB	090H
	DB	0a5H
	DB	04eH
	DB	047H
	DB	052H
	DB	0cfH
	DB	06aH
	DB	084H
	DB	0ddH
	DB	0dH
	DB	086H
	DB	0fbH
	DB	0d7H
	DB	04cH
	DB	0c4H
	DB	05fH
	DB	08aH
	DB	0edH
	DB	039H
	DB	0f0H
	DB	0ddH
	DB	07fH
	DB	0edH
	DB	0e8H
	DB	0e8H
	DB	06aH
	DB	0f7H
	DB	030H
	DB	0caH
	DB	08dH
	DB	016H
	DB	063H
	DB	0aaH
	DB	0c7H
	DB	044H
	DB	0a7H
	DB	034H
	DB	010H
	DB	0bdH
	DB	0d9H
	DB	0cbH
	DB	00H
	DB	07aH
	DB	085H
	DB	09eH
	DB	0e8H
	DB	064H
	DB	03aH
	DB	0a2H
	DB	097H
	DB	01aH
	DB	0c8H
	DB	0a8H
	DB	0ccH
	DB	048H
	DB	0a4H
	DB	07cH
	DB	099H
	DB	075H
	DB	0ddH
	DB	09dH
	DB	08bH
	DB	079H
	DB	0bfH
	DB	069H
	DB	0feH
	DB	0d5H
	DB	0fH
	DB	039H
	DB	037H
	DB	0b3H
	DB	010H
	DB	0caH
	DB	0bH
	DB	042H
	DB	088H
	DB	020H
	DB	00H
	DB	0abH
	DB	014H
	DB	091H
	DB	048H
	DB	0e9H
	DB	08fH
	DB	047H
	DB	0c6H
	DB	050H
	DB	032H
	DB	032H
	DB	087H
	DB	053H
	DB	091H
	DB	039H
	DB	094H
	DB	08aH
	DB	0f4H
	DB	081H
	DB	064H
	DB	024H
	DB	0aaH
	DB	0e2H
	DB	010H
	DB	025H
	DB	05aH
	DB	089H
	DB	0c0H
	DB	07bH
	DB	0beH
	DB	08H
	DB	0baH
	DB	0e1H
	DB	087H
	DB	0ccH
	DB	06fH
	DB	0d3H
	DB	0f1H
	DB	0abH
	DB	06fH
	DB	03fH
	DB	0fcH
	DB	0e1H
	DB	022H
	DB	0b7H
	DB	076H
	DB	0adH
	DB	04cH
	DB	020H
	DB	0a3H
	DB	018H
	DB	0e5H
	DB	046H
	DB	062H
	DB	090H
	DB	019H
	DB	088H
	DB	04eH
	DB	0aeH
	DB	07fH
	DB	0f9H
	DB	0f8H
	DB	0ffH
	DB	08H
	DB	0a0H
	DB	097H
	DB	0ebH
	DB	0c9H
	DB	0b0H
	DB	0e4H
	DB	011H
	DB	019H
	DB	090H
	DB	0cH
	DB	092H
	DB	07eH
	DB	079H
	DB	0bfH
	DB	085H
	DB	05eH
	DB	0aaH
	DB	027H
	DB	0c2H
	DB	07H
	DB	0c2H
	DB	0d4H
	DB	09aH
	DB	05bH
	DB	067H
	DB	0eaH
	DB	03eH
	DB	06eH
	DB	0f9H
	DB	0fdH
	DB	0a5H
	DB	06dH
	DB	0dcH
	DB	0adH
	DB	057H
	DB	08aH
	DB	0eeH
	DB	0aeH
	DB	01bH
	DB	0ceH
	DB	0b9H
	DB	097H
	DB	085H
	DB	08cH
	DB	0f6H
	DB	054H
	DB	0a4H
	DB	075H
	DB	026H
	DB	023H
	DB	0b5H
	DB	033H
	DB	019H
	DB	0e9H
	DB	0f7H
	DB	053H
	DB	090H
	DB	0cdH
	DB	0cbH
	DB	044H
	DB	021H
	DB	037H
	DB	07fH
	DB	078H
	DB	06bH
	DB	0f3H
	DB	096H
	DB	02bH
	DB	0bfH
	DB	06fH
	DB	0feH
	DB	05dH
	DB	0ddH
	DB	019H
	DB	06eH
	DB	075H
	DB	09dH
	DB	0f0H
	DB	081H
	DB	028H
	DB	0d5H
	DB	020H
	DB	033H
	DB	090H
	DB	07eH
	DB	045H
	DB	03fH
	DB	019H
	DB	094H
	DB	0eH
	DB	092H
	DB	047H
	DB	0d2H
	DB	047H
	DB	08bH
	DB	0efH
	DB	0bcH
	DB	02eH
	DB	0c0H
	DB	023H
	DB	073H
	DB	00H
	DB	08dH
	DB	054H
	DB	043H
	DB	0d4H
	DB	04aH
	DB	035H
	DB	0d1H
	DB	028H
	DB	034H
	DB	0a4H
	DB	05fH
	DB	0d8H
	DB	06fH
	DB	0d1H
	DB	0f7H
	DB	0a0H
	DB	06fH
	DB	0e9H
	DB	0fdH
	DB	0b6H
	DB	0fbH
	DB	0aeH
	DB	097H
	DB	0efH
	DB	05cH
	DB	03aH
	DB	052H
	DB	0c1H
	DB	03dH
	DB	0daH
	DB	0b3H
	DB	0b7H
	DB	0e5H
	DB	0d3H
	DB	0b6H
	DB	09dH
	DB	0dcH
	DB	0b2H
	DB	07bH
	DB	03bH
	DB	0b9H
	DB	065H
	DB	0f7H
	DB	0f6H
	DB	0feH
	DB	0f0H
	DB	069H
	DB	0dbH
	DB	0b1H
	DB	096H
	DB	0a3H
	DB	03dH
	DB	097H
	DB	06fH
	DB	05fH
	DB	03aH
	DB	072H
	DB	0bfH
	DB	0edH
	DB	0beH
	DB	06bH
	DB	05fH
	DB	077H
	DB	0dfH
	DB	01bH
	DB	0fdH
	DB	0a2H
	DB	07eH
	DB	0a2H
	DB	056H
	DB	0aaH
	DB	089H
	DB	04aH
	DB	0a5H
	DB	022H
	DB	01aH
	DB	099H
	DB	0e6H
	DB	0ffH
	DB	01bH
	DB	040H
	DB	045H
	DB	0d4H
	DB	0aH
	DB	035H
	DB	0d1H
	DB	0f4H
	DB	0f4H
	DB	091H
	DB	0beH
	DB	06eH
	DB	02dH
	DB	051H
	DB	08bH
	DB	0d5H
	DB	04bH
	DB	0e4H
	DB	062H
	DB	039H
	DB	0bdH
	DB	057H
	DB	0d0H
	DB	0cbH
	DB	016H
	DB	075H
	DB	08bH
	DB	038H
	DB	0c2H
	DB	07H
	DB	042H
	DB	0fH
	DB	0e1H
	DB	03H
	DB	0a1H
	DB	087H
	DB	0a8H
	DB	05bH
	DB	0c4H
	DB	0e9H
	DB	015H
	DB	0f4H
	DB	0b2H
	DB	0e5H
	DB	062H
	DB	039H
	DB	05dH
	DB	02dH
	DB	056H
	DB	02fH
	DB	0d1H
	DB	03eH
	DB	0d4H
	DB	092H
	DB	03eH
	DB	061H
	DB	01fH
	DB	051H
	DB	02bH
	DB	0d4H
	DB	044H
	DB	0a5H
	DB	07cH
	DB	07dH
	DB	080H
	DB	07fH
	DB	0cH
	DB	00H
	DB	056H
	DB	0d8H
	DB	034H
	DB	07bH
	DB	04dH
	DB	019H
	DB	0e9H
	DB	081H
	DB	00H
	DB	00H
	DB	00H
	DB	00H
	DB	049H
	DB	045H
	DB	04eH
	DB	044H
	DB	0aeH
	DB	042H
	DB	060H
	DB	082H
	DB	00H
	DB	00H
	DB	014H
	DB	0aeH
	DB	089H
	DB	050H
	DB	04eH
	DB	047H
	DB	0dH
	DB	0aH
	DB	01aH
	DB	0aH
	DB	00H
	DB	00H
	DB	00H
	DB	0dH
	DB	049H
	DB	048H
	DB	044H
	DB	052H
	DB	00H
	DB	00H
	DB	00H
	DB	020H
	DB	00H
	DB	00H
	DB	00H
	DB	020H
	DB	08H
	DB	06H
	DB	00H
	DB	00H
	DB	00H
	DB	073H
	DB	07aH
	DB	07aH
	DB	0f4H
	DB	00H
	DB	00H
	DB	00H
	DB	09H
	DB	070H
	DB	048H
	DB	059H
	DB	073H
	DB	00H
	DB	00H
	DB	0eH
	DB	0c4H
	DB	00H
	DB	00H
	DB	0eH
	DB	0c4H
	DB	01H
	DB	095H
	DB	02bH
	DB	0eH
	DB	01bH
	DB	00H
	DB	00H
	DB	0aH
	DB	04dH
	DB	069H
	DB	043H
	DB	043H
	DB	050H
	DB	050H
	DB	068H
	DB	06fH
	DB	074H
	DB	06fH
	DB	073H
	DB	068H
	DB	06fH
	DB	070H
	DB	020H
	DB	049H
	DB	043H
	DB	043H
	DB	020H
	DB	070H
	DB	072H
	DB	06fH
	DB	066H
	DB	069H
	DB	06cH
	DB	065H
	DB	00H
	DB	00H
	DB	078H
	DB	0daH
	DB	09dH
	DB	053H
	DB	077H
	DB	058H
	DB	093H
	DB	0f7H
	DB	016H
	DB	03eH
	DB	0dfH
	DB	0f7H
	DB	065H
	DB	0fH
	DB	056H
	DB	042H
	DB	0d8H
	DB	0f0H
	DB	0b1H
	DB	097H
	DB	06cH
	DB	081H
	DB	00H
	DB	022H
	DB	023H
	DB	0acH
	DB	08H
	DB	0c8H
	DB	010H
	DB	059H
	DB	0a2H
	DB	010H
	DB	092H
	DB	00H
	DB	061H
	DB	084H
	DB	010H
	DB	012H
	DB	040H
	DB	0c5H
	DB	085H
	DB	088H
	DB	0aH
	DB	056H
	DB	014H
	DB	015H
	DB	011H
	DB	09cH
	DB	048H
	DB	055H
	DB	0c4H
	DB	082H
	DB	0d5H
	DB	0aH
	DB	048H
	DB	09dH
	DB	088H
	DB	0e2H
	DB	0a0H
	DB	028H
	DB	0b8H
	DB	067H
	DB	041H
	DB	08aH
	DB	088H
	DB	05aH
	DB	08bH
	DB	055H
	DB	05cH
	DB	038H
	DB	0eeH
	DB	01fH
	DB	0dcH
	DB	0a7H
	DB	0b5H
	DB	07dH
	DB	07aH
	DB	0efH
	DB	0edH
	DB	0edH
	DB	0fbH
	DB	0d7H
	DB	0fbH
	DB	0bcH
	DB	0e7H
	DB	09cH
	DB	0e7H
	DB	0fcH
	DB	0ceH
	DB	079H
	DB	0cfH
	DB	0fH
	DB	080H
	DB	011H
	DB	012H
	DB	026H
	DB	091H
	DB	0e6H
	DB	0a2H
	DB	06aH
	DB	00H
	DB	039H
	DB	052H
	DB	085H
	DB	03cH
	DB	03aH
	DB	0d8H
	DB	01fH
	DB	08fH
	DB	04fH
	DB	048H
	DB	0c4H
	DB	0c9H
	DB	0bdH
	DB	080H
	DB	02H
	DB	015H
	DB	048H
	DB	0e0H
	DB	04H
	DB	020H
	DB	010H
	DB	0e6H
	DB	0cbH
	DB	0c2H
	DB	067H
	DB	05H
	DB	0c5H
	DB	00H
	DB	00H
	DB	0f0H
	DB	03H
	DB	079H
	DB	078H
	DB	07eH
	DB	074H
	DB	0b0H
	DB	03fH
	DB	0fcH
	DB	01H
	DB	0afH
	DB	06fH
	DB	00H
	DB	02H
	DB	00H
	DB	070H
	DB	0d5H
	DB	02eH
	DB	024H
	DB	012H
	DB	0c7H
	DB	0e1H
	DB	0ffH
	DB	083H
	DB	0baH
	DB	050H
	DB	026H
	DB	057H
	DB	00H
	DB	020H
	DB	091H
	DB	00H
	DB	0e0H
	DB	022H
	DB	012H
	DB	0e7H
	DB	0bH
	DB	01H
	DB	090H
	DB	052H
	DB	00H
	DB	0c8H
	DB	02eH
	DB	054H
	DB	0c8H
	DB	014H
	DB	00H
	DB	0c8H
	DB	018H
	DB	00H
	DB	0b0H
	DB	053H
	DB	0b3H
	DB	064H
	DB	0aH
	DB	00H
	DB	094H
	DB	00H
	DB	00H
	DB	06cH
	DB	079H
	DB	07cH
	DB	042H
	DB	022H
	DB	00H
	DB	0aaH
	DB	0dH
	DB	00H
	DB	0ecH
	DB	0f4H
	DB	049H
	DB	03eH
	DB	05H
	DB	00H
	DB	0d8H
	DB	0a9H
	DB	093H
	DB	0dcH
	DB	017H
	DB	00H
	DB	0d8H
	DB	0a2H
	DB	01cH
	DB	0a9H
	DB	08H
	DB	00H
	DB	08dH
	DB	01H
	DB	00H
	DB	099H
	DB	028H
	DB	047H
	DB	024H
	DB	02H
	DB	040H
	DB	0bbH
	DB	00H
	DB	060H
	DB	055H
	DB	081H
	DB	052H
	DB	02cH
	DB	02H
	DB	0c0H
	DB	0c2H
	DB	00H
	DB	0a0H
	DB	0acH
	DB	040H
	DB	022H
	DB	02eH
	DB	04H
	DB	0c0H
	DB	0aeH
	DB	01H
	DB	080H
	DB	059H
	DB	0b6H
	DB	032H
	DB	047H
	DB	02H
	DB	080H
	DB	0bdH
	DB	05H
	DB	00H
	DB	076H
	DB	08eH
	DB	058H
	DB	090H
	DB	0fH
	DB	040H
	DB	060H
	DB	00H
	DB	080H
	DB	099H
	DB	042H
	DB	02cH
	DB	0ccH
	DB	00H
	DB	020H
	DB	038H
	DB	02H
	DB	00H
	DB	043H
	DB	01eH
	DB	013H
	DB	0cdH
	DB	03H
	DB	020H
	DB	04cH
	DB	03H
	DB	0a0H
	DB	030H
	DB	0d2H
	DB	0bfH
	DB	0e0H
	DB	0a9H
	DB	05fH
	DB	070H
	DB	085H
	DB	0b8H
	DB	048H
	DB	01H
	DB	00H
	DB	0c0H
	DB	0cbH
	DB	095H
	DB	0cdH
	DB	097H
	DB	04bH
	DB	0d2H
	DB	033H
	DB	014H
	DB	0b8H
	DB	095H
	DB	0d0H
	DB	01aH
	DB	077H
	DB	0f2H
	DB	0f0H
	DB	0e0H
	DB	0e2H
	DB	021H
	DB	0e2H
	DB	0c2H
	DB	06cH
	DB	0b1H
	DB	042H
	DB	061H
	DB	017H
	DB	029H
	DB	010H
	DB	066H
	DB	09H
	DB	0e4H
	DB	022H
	DB	09cH
	DB	097H
	DB	09bH
	DB	023H
	DB	013H
	DB	048H
	DB	0e7H
	DB	03H
	DB	04cH
	DB	0ceH
	DB	0cH
	DB	00H
	DB	00H
	DB	01aH
	DB	0f9H
	DB	0d1H
	DB	0c1H
	DB	0feH
	DB	038H
	DB	03fH
	DB	090H
	DB	0e7H
	DB	0e6H
	DB	0e4H
	DB	0e1H
	DB	0e6H
	DB	066H
	DB	0e7H
	DB	06cH
	DB	0efH
	DB	0f4H
	DB	0c5H
	DB	0a2H
	DB	0feH
	DB	06bH
	DB	0f0H
	DB	06fH
	DB	022H
	DB	03eH
	DB	021H
	DB	0f1H
	DB	0dfH
	DB	0feH
	DB	0bcH
	DB	08cH
	DB	02H
	DB	04H
	DB	00H
	DB	010H
	DB	04eH
	DB	0cfH
	DB	0efH
	DB	0daH
	DB	05fH
	DB	0e5H
	DB	0e5H
	DB	0d6H
	DB	03H
	DB	070H
	DB	0c7H
	DB	01H
	DB	0b0H
	DB	075H
	DB	0bfH
	DB	06bH
	DB	0a9H
	DB	05bH
	DB	00H
	DB	0daH
	DB	056H
	DB	00H
	DB	068H
	DB	0dfH
	DB	0f9H
	DB	05dH
	DB	033H
	DB	0dbH
	DB	09H
	DB	0a0H
	DB	05aH
	DB	0aH
	DB	0d0H
	DB	07aH
	DB	0f9H
	DB	08bH
	DB	079H
	DB	038H
	DB	0fcH
	DB	040H
	DB	01eH
	DB	09eH
	DB	0a1H
	DB	050H
	DB	0c8H
	DB	03cH
	DB	01dH
	DB	01cH
	DB	0aH
	DB	0bH
	DB	0bH
	DB	0edH
	DB	025H
	DB	062H
	DB	0a1H
	DB	0bdH
	DB	030H
	DB	0e3H
	DB	08bH
	DB	03eH
	DB	0ffH
	DB	033H
	DB	0e1H
	DB	06fH
	DB	0e0H
	DB	08bH
	DB	07eH
	DB	0f6H
	DB	0fcH
	DB	040H
	DB	01eH
	DB	0feH
	DB	0dbH
	DB	07aH
	DB	0f0H
	DB	00H
	DB	071H
	DB	09aH
	DB	040H
	DB	099H
	DB	0adH
	DB	0c0H
	DB	0a3H
	DB	083H
	DB	0fdH
	DB	071H
	DB	061H
	DB	06eH
	DB	076H
	DB	0aeH
	DB	052H
	DB	08eH
	DB	0e7H
	DB	0cbH
	DB	04H
	DB	042H
	DB	031H
	DB	06eH
	DB	0f7H
	DB	0e7H
	DB	023H
	DB	0feH
	DB	0c7H
	DB	085H
	DB	07fH
	DB	0fdH
	DB	08eH
	DB	029H
	DB	0d1H
	DB	0e2H
	DB	034H
	DB	0b1H
	DB	05cH
	DB	02cH
	DB	015H
	DB	08aH
	DB	0f1H
	DB	058H
	DB	089H
	DB	0b8H
	DB	050H
	DB	022H
	DB	04dH
	DB	0c7H
	DB	079H
	DB	0b9H
	DB	052H
	DB	091H
	DB	044H
	DB	021H
	DB	0c9H
	DB	095H
	DB	0e2H
	DB	012H
	DB	0e9H
	DB	07fH
	DB	032H
	DB	0f1H
	DB	01fH
	DB	096H
	DB	0fdH
	DB	09H
	DB	093H
	DB	077H
	DB	0dH
	DB	00H
	DB	0acH
	DB	086H
	DB	04fH
	DB	0c0H
	DB	04eH
	DB	0b6H
	DB	07H
	DB	0b5H
	DB	0cbH
	DB	06cH
	DB	0c0H
	DB	07eH
	DB	0eeH
	DB	01H
	DB	02H
	DB	08bH
	DB	0eH
	DB	058H
	DB	0d2H
	DB	076H
	DB	00H
	DB	040H
	DB	07eH
	DB	0f3H
	DB	02dH
	DB	08cH
	DB	01aH
	DB	0bH
	DB	091H
	DB	00H
	DB	010H
	DB	067H
	DB	034H
	DB	032H
	DB	079H
	DB	0f7H
	DB	00H
	DB	00H
	DB	093H
	DB	0bfH
	DB	0f9H
	DB	08fH
	DB	040H
	DB	02bH
	DB	01H
	DB	00H
	DB	0cdH
	DB	097H
	DB	0a4H
	DB	0e3H
	DB	00H
	DB	00H
	DB	0bcH
	DB	0e8H
	DB	018H
	DB	05cH
	DB	0a8H
	DB	094H
	DB	017H
	DB	04cH
	DB	0c6H
	DB	08H
	DB	00H
	DB	00H
	DB	044H
	DB	0a0H
	DB	081H
	DB	02aH
	DB	0b0H
	DB	041H
	DB	07H
	DB	0cH
	DB	0c1H
	DB	014H
	DB	0acH
	DB	0c0H
	DB	0eH
	DB	09cH
	DB	0c1H
	DB	01dH
	DB	0bcH
	DB	0c0H
	DB	017H
	DB	02H
	DB	061H
	DB	06H
	DB	044H
	DB	040H
	DB	0cH
	DB	024H
	DB	0c0H
	DB	03cH
	DB	010H
	DB	042H
	DB	06H
	DB	0e4H
	DB	080H
	DB	01cH
	DB	0aH
	DB	0a1H
	DB	018H
	DB	096H
	DB	041H
	DB	019H
	DB	054H
	DB	0c0H
	DB	03aH
	DB	0d8H
	DB	04H
	DB	0b5H
	DB	0b0H
	DB	03H
	DB	01aH
	DB	0a0H
	DB	011H
	DB	09aH
	DB	0e1H
	DB	010H
	DB	0b4H
	DB	0c1H
	DB	031H
	DB	038H
	DB	0dH
	DB	0e7H
	DB	0e0H
	DB	012H
	DB	05cH
	DB	081H
	DB	0ebH
	DB	070H
	DB	017H
	DB	06H
	DB	060H
	DB	018H
	DB	09eH
	DB	0c2H
	DB	018H
	DB	0bcH
	DB	086H
	DB	09H
	DB	04H
	DB	041H
	DB	0c8H
	DB	08H
	DB	013H
	DB	061H
	DB	021H
	DB	03aH
	DB	088H
	DB	011H
	DB	062H
	DB	08eH
	DB	0d8H
	DB	022H
	DB	0ceH
	DB	08H
	DB	017H
	DB	099H
	DB	08eH
	DB	04H
	DB	022H
	DB	061H
	DB	048H
	DB	034H
	DB	092H
	DB	080H
	DB	0a4H
	DB	020H
	DB	0e9H
	DB	088H
	DB	014H
	DB	051H
	DB	022H
	DB	0c5H
	DB	0c8H
	DB	072H
	DB	0a4H
	DB	02H
	DB	0a9H
	DB	042H
	DB	06aH
	DB	091H
	DB	05dH
	DB	048H
	DB	023H
	DB	0f2H
	DB	02dH
	DB	072H
	DB	014H
	DB	039H
	DB	08dH
	DB	05cH
	DB	040H
	DB	0faH
	DB	090H
	DB	0dbH
	DB	0c8H
	DB	020H
	DB	032H
	DB	08aH
	DB	0fcH
	DB	08aH
	DB	0bcH
	DB	047H
	DB	031H
	DB	094H
	DB	081H
	DB	0b2H
	DB	051H
	DB	03H
	DB	0d4H
	DB	02H
	DB	075H
	DB	040H
	DB	0b9H
	DB	0a8H
	DB	01fH
	DB	01aH
	DB	08aH
	DB	0c6H
	DB	0a0H
	DB	073H
	DB	0d1H
	DB	074H
	DB	034H
	DB	0fH
	DB	05dH
	DB	080H
	DB	096H
	DB	0a2H
	DB	06bH
	DB	0d1H
	DB	01aH
	DB	0b4H
	DB	01eH
	DB	03dH
	DB	080H
	DB	0b6H
	DB	0a2H
	DB	0a7H
	DB	0d1H
	DB	04bH
	DB	0e8H
	DB	075H
	DB	074H
	DB	00H
	DB	07dH
	DB	08aH
	DB	08eH
	DB	063H
	DB	080H
	DB	0d1H
	DB	031H
	DB	0eH
	DB	066H
	DB	08cH
	DB	0d9H
	DB	061H
	DB	05cH
	DB	08cH
	DB	087H
	DB	045H
	DB	060H
	DB	089H
	DB	058H
	DB	01aH
	DB	026H
	DB	0c7H
	DB	016H
	DB	063H
	DB	0e5H
	DB	058H
	DB	035H
	DB	056H
	DB	08fH
	DB	035H
	DB	063H
	DB	01dH
	DB	058H
	DB	037H
	DB	076H
	DB	015H
	DB	01bH
	DB	0c0H
	DB	09eH
	DB	061H
	DB	0efH
	DB	08H
	DB	024H
	DB	02H
	DB	08bH
	DB	080H
	DB	013H
	DB	0ecH
	DB	08H
	DB	05eH
	DB	084H
	DB	010H
	DB	0c2H
	DB	06cH
	DB	082H
	DB	090H
	DB	090H
	DB	047H
	DB	058H
	DB	04cH
	DB	058H
	DB	043H
	DB	0a8H
	DB	025H
	DB	0ecH
	DB	023H
	DB	0b4H
	DB	012H
	DB	0baH
	DB	08H
	DB	057H
	DB	09H
	DB	083H
	DB	084H
	DB	031H
	DB	0c2H
	DB	027H
	DB	022H
	DB	093H
	DB	0a8H
	DB	04fH
	DB	0b4H
	DB	025H
	DB	07aH
	DB	012H
	DB	0f9H
	DB	0c4H
	DB	078H
	DB	062H
	DB	03aH
	DB	0b1H
	DB	090H
	DB	058H
	DB	046H
	DB	0acH
	DB	026H
	DB	0eeH
	DB	021H
	DB	01eH
	DB	021H
	DB	09eH
	DB	025H
	DB	05eH
	DB	027H
	DB	0eH
	DB	013H
	DB	05fH
	DB	093H
	DB	048H
	DB	024H
	DB	0eH
	DB	0c9H
	DB	092H
	DB	0e4H
	DB	04eH
	DB	0aH
	DB	021H
	DB	025H
	DB	090H
	DB	032H
	DB	049H
	DB	0bH
	DB	049H
	DB	06bH
	DB	048H
	DB	0dbH
	DB	048H
	DB	02dH
	DB	0a4H
	DB	053H
	DB	0a4H
	DB	03eH
	DB	0d2H
	DB	010H
	DB	069H
	DB	09cH
	DB	04cH
	DB	026H
	DB	0ebH
	DB	090H
	DB	06dH
	DB	0c9H
	DB	0deH
	DB	0e4H
	DB	08H
	DB	0b2H
	DB	080H
	DB	0acH
	DB	020H
	DB	097H
	DB	091H
	DB	0b7H
	DB	090H
	DB	0fH
	DB	090H
	DB	04fH
	DB	092H
	DB	0fbH
	DB	0c9H
	DB	0c3H
	DB	0e4H
	DB	0b7H
	DB	014H
	DB	03aH
	DB	0c5H
	DB	088H
	DB	0e2H
	DB	04cH
	DB	09H
	DB	0a2H
	DB	024H
	DB	052H
	DB	0a4H
	DB	094H
	DB	012H
	DB	04aH
	DB	035H
	DB	065H
	DB	03fH
	DB	0e5H
	DB	04H
	DB	0a5H
	DB	09fH
	DB	032H
	DB	042H
	DB	099H
	DB	0a0H
	DB	0aaH
	DB	051H
	DB	0cdH
	DB	0a9H
	DB	09eH
	DB	0d4H
	DB	08H
	DB	0aaH
	DB	088H
	DB	03aH
	DB	09fH
	DB	05aH
	DB	049H
	DB	06dH
	DB	0a0H
	DB	076H
	DB	050H
	DB	02fH
	DB	053H
	DB	087H
	DB	0a9H
	DB	013H
	DB	034H
	DB	075H
	DB	09aH
	DB	025H
	DB	0cdH
	DB	09bH
	DB	016H
	DB	043H
	DB	0cbH
	DB	0a4H
	DB	02dH
	DB	0a3H
	DB	0d5H
	DB	0d0H
	DB	09aH
	DB	069H
	DB	067H
	DB	069H
	DB	0f7H
	DB	068H
	DB	02fH
	DB	0e9H
	DB	074H
	DB	0baH
	DB	09H
	DB	0ddH
	DB	083H
	DB	01eH
	DB	045H
	DB	097H
	DB	0d0H
	DB	097H
	DB	0d2H
	DB	06bH
	DB	0e8H
	DB	07H
	DB	0e9H
	DB	0e7H
	DB	0e9H
	DB	083H
	DB	0f4H
	DB	077H
	DB	0cH
	DB	0dH
	DB	086H
	DB	0dH
	DB	083H
	DB	0c7H
	DB	048H
	DB	062H
	DB	028H
	DB	019H
	DB	06bH
	DB	019H
	DB	07bH
	DB	019H
	DB	0a7H
	DB	018H
	DB	0b7H
	DB	019H
	DB	02fH
	DB	099H
	DB	04cH
	DB	0a6H
	DB	05H
	DB	0d3H
	DB	097H
	DB	099H
	DB	0c8H
	DB	054H
	DB	030H
	DB	0d7H
	DB	032H
	DB	01bH
	DB	099H
	DB	067H
	DB	098H
	DB	0fH
	DB	098H
	DB	06fH
	DB	055H
	DB	058H
	DB	02aH
	DB	0f6H
	DB	02aH
	DB	07cH
	DB	015H
	DB	091H
	DB	0caH
	DB	012H
	DB	095H
	DB	03aH
	DB	095H
	DB	056H
	DB	095H
	DB	07eH
	DB	095H
	DB	0e7H
	DB	0aaH
	DB	054H
	DB	055H
	DB	073H
	DB	055H
	DB	03fH
	DB	0d5H
	DB	079H
	DB	0aaH
	DB	0bH
	DB	054H
	DB	0abH
	DB	055H
	DB	0fH
	DB	0abH
	DB	05eH
	DB	056H
	DB	07dH
	DB	0a6H
	DB	046H
	DB	055H
	DB	0b3H
	DB	050H
	DB	0e3H
	DB	0a9H
	DB	09H
	DB	0d4H
	DB	016H
	DB	0abH
	DB	0d5H
	DB	0a9H
	DB	01dH
	DB	055H
	DB	0bbH
	DB	0a9H
	DB	036H
	DB	0aeH
	DB	0ceH
	DB	052H
	DB	077H
	DB	052H
	DB	08fH
	DB	050H
	DB	0cfH
	DB	051H
	DB	05fH
	DB	0a3H
	DB	0beH
	DB	05fH
	DB	0fdH
	DB	082H
	DB	0faH
	DB	063H
	DB	0dH
	DB	0b2H
	DB	086H
	DB	085H
	DB	046H
	DB	0a0H
	DB	086H
	DB	048H
	DB	0a3H
	DB	054H
	DB	063H
	DB	0b7H
	DB	0c6H
	DB	019H
	DB	08dH
	DB	021H
	DB	016H
	DB	0c6H
	DB	032H
	DB	065H
	DB	0f1H
	DB	058H
	DB	042H
	DB	0d6H
	DB	072H
	DB	056H
	DB	03H
	DB	0ebH
	DB	02cH
	DB	06bH
	DB	098H
	DB	04dH
	DB	062H
	DB	05bH
	DB	0b2H
	DB	0f9H
	DB	0ecH
	DB	04cH
	DB	076H
	DB	05H
	DB	0fbH
	DB	01bH
	DB	076H
	DB	02fH
	DB	07bH
	DB	04cH
	DB	053H
	DB	043H
	DB	073H
	DB	0aaH
	DB	066H
	DB	0acH
	DB	066H
	DB	091H
	DB	066H
	DB	09dH
	DB	0e6H
	DB	071H
	DB	0cdH
	DB	01H
	DB	0eH
	DB	0c6H
	DB	0b1H
	DB	0e0H
	DB	0f0H
	DB	039H
	DB	0d9H
	DB	09cH
	DB	04aH
	DB	0ceH
	DB	021H
	DB	0ceH
	DB	0dH
	DB	0ceH
	DB	07bH
	DB	02dH
	DB	03H
	DB	02dH
	DB	03fH
	DB	02dH
	DB	0b1H
	DB	0d6H
	DB	06aH
	DB	0adH
	DB	066H
	DB	0adH
	DB	07eH
	DB	0adH
	DB	037H
	DB	0daH
	DB	07aH
	DB	0daH
	DB	0beH
	DB	0daH
	DB	062H
	DB	0edH
	DB	072H
	DB	0edH
	DB	016H
	DB	0edH
	DB	0ebH
	DB	0daH
	DB	0efH
	DB	075H
	DB	070H
	DB	09dH
	DB	040H
	DB	09dH
	DB	02cH
	DB	09dH
	DB	0f5H
	DB	03aH
	DB	06dH
	DB	03aH
	DB	0f7H
	DB	075H
	DB	09H
	DB	0baH
	DB	036H
	DB	0baH
	DB	051H
	DB	0baH
	DB	085H
	DB	0baH
	DB	0dbH
	DB	075H
	DB	0cfH
	DB	0eaH
	DB	03eH
	DB	0d3H
	DB	063H
	DB	0ebH
	DB	079H
	DB	0e9H
	DB	09H
	DB	0f5H
	DB	0caH
	DB	0f5H
	DB	0eH
	DB	0e9H
	DB	0ddH
	DB	0d1H
	DB	047H
	DB	0f5H
	DB	06dH
	DB	0f4H
	DB	0a3H
	DB	0f5H
	DB	017H
	DB	0eaH
	DB	0efH
	DB	0d6H
	DB	0efH
	DB	0d1H
	DB	01fH
	DB	037H
	DB	030H
	DB	034H
	DB	08H
	DB	036H
	DB	090H
	DB	019H
	DB	06cH
	DB	031H
	DB	038H
	DB	063H
	DB	0f0H
	DB	0ccH
	DB	090H
	DB	063H
	DB	0e8H
	DB	06bH
	DB	098H
	DB	069H
	DB	0b8H
	DB	0d1H
	DB	0f0H
	DB	084H
	DB	0e1H
	DB	0a8H
	DB	011H
	DB	0cbH
	DB	068H
	DB	0baH
	DB	091H
	DB	0c4H
	DB	068H
	DB	0a3H
	DB	0d1H
	DB	049H
	DB	0a3H
	DB	027H
	DB	0b8H
	DB	026H
	DB	0eeH
	DB	087H
	DB	067H
	DB	0e3H
	DB	035H
	DB	078H
	DB	017H
	DB	03eH
	DB	066H
	DB	0acH
	DB	06fH
	DB	01cH
	DB	062H
	DB	0acH
	DB	034H
	DB	0deH
	DB	065H
	DB	0dcH
	DB	06bH
	DB	03cH
	DB	061H
	DB	062H
	DB	069H
	DB	032H
	DB	0dbH
	DB	0a4H
	DB	0c4H
	DB	0a4H
	DB	0c5H
	DB	0e4H
	DB	0beH
	DB	029H
	DB	0cdH
	DB	094H
	DB	06bH
	DB	09aH
	DB	066H
	DB	0baH
	DB	0d1H
	DB	0b4H
	DB	0d3H
	DB	074H
	DB	0ccH
	DB	0ccH
	DB	0c8H
	DB	02cH
	DB	0dcH
	DB	0acH
	DB	0d8H
	DB	0acH
	DB	0c9H
	DB	0ecH
	DB	08eH
	DB	039H
	DB	0d5H
	DB	09cH
	DB	06bH
	DB	09eH
	DB	061H
	DB	0beH
	DB	0d9H
	DB	0bcH
	DB	0dbH
	DB	0fcH
	DB	08dH
	DB	085H
	DB	0a5H
	DB	045H
	DB	09cH
	DB	0c5H
	DB	04aH
	DB	08bH
	DB	036H
	DB	08bH
	DB	0c7H
	DB	096H
	DB	0daH
	DB	096H
	DB	07cH
	DB	0cbH
	DB	05H
	DB	096H
	DB	04dH
	DB	096H
	DB	0f7H
	DB	0acH
	DB	098H
	DB	056H
	DB	03eH
	DB	056H
	DB	079H
	DB	056H
	DB	0f5H
	DB	056H
	DB	0d7H
	DB	0acH
	DB	049H
	DB	0d6H
	DB	05cH
	DB	0ebH
	DB	02cH
	DB	0ebH
	DB	06dH
	DB	0d6H
	DB	057H
	DB	06cH
	DB	050H
	DB	01bH
	DB	057H
	DB	09bH
	DB	0cH
	DB	09bH
	DB	03aH
	DB	09bH
	DB	0cbH
	DB	0b6H
	DB	0a8H
	DB	0adH
	DB	09bH
	DB	0adH
	DB	0c4H
	DB	076H
	DB	09bH
	DB	06dH
	DB	0dfH
	DB	014H
	DB	0e2H
	DB	014H
	DB	08fH
	DB	029H
	DB	0d2H
	DB	029H
	DB	0f5H
	DB	053H
	DB	06eH
	DB	0daH
	DB	031H
	DB	0ecH
	DB	0fcH
	DB	0ecH
	DB	0aH
	DB	0ecH
	DB	09aH
	DB	0ecH
	DB	06H
	DB	0edH
	DB	039H
	DB	0f6H
	DB	061H
	DB	0f6H
	DB	025H
	DB	0f6H
	DB	06dH
	DB	0f6H
	DB	0cfH
	DB	01dH
	DB	0ccH
	DB	01cH
	DB	012H
	DB	01dH
	DB	0d6H
	DB	03bH
	DB	074H
	DB	03bH
	DB	07cH
	DB	072H
	DB	074H
	DB	075H
	DB	0ccH
	DB	076H
	DB	06cH
	DB	070H
	DB	0bcH
	DB	0ebH
	DB	0a4H
	DB	0e1H
	DB	034H
	DB	0c3H
	DB	0a9H
	DB	0c4H
	DB	0a9H
	DB	0c3H
	DB	0e9H
	DB	057H
	DB	067H
	DB	01bH
	DB	067H
	DB	0a1H
	DB	073H
	DB	09dH
	DB	0f3H
	DB	035H
	DB	017H
	DB	0a6H
	DB	04bH
	DB	090H
	DB	0cbH
	DB	012H
	DB	097H
	DB	076H
	DB	097H
	DB	017H
	DB	053H
	DB	06dH
	DB	0a7H
	DB	08aH
	DB	0a7H
	DB	06eH
	DB	09fH
	DB	07aH
	DB	0cbH
	DB	095H
	DB	0e5H
	DB	01aH
	DB	0eeH
	DB	0baH
	DB	0d2H
	DB	0b5H
	DB	0d3H
	DB	0f5H
	DB	0a3H
	DB	09bH
	DB	0bbH
	DB	09bH
	DB	0dcH
	DB	0adH
	DB	0d9H
	DB	06dH
	DB	0d4H
	DB	0ddH
	DB	0ccH
	DB	03dH
	DB	0c5H
	DB	07dH
	DB	0abH
	DB	0fbH
	DB	04dH
	DB	02eH
	DB	09bH
	DB	01bH
	DB	0c9H
	DB	05dH
	DB	0c3H
	DB	03dH
	DB	0efH
	DB	041H
	DB	0f4H
	DB	0f0H
	DB	0f7H
	DB	058H
	DB	0e2H
	DB	071H
	DB	0ccH
	DB	0e3H
	DB	09dH
	DB	0a7H
	DB	09bH
	DB	0a7H
	DB	0c2H
	DB	0f3H
	DB	090H
	DB	0e7H
	DB	02fH
	DB	05eH
	DB	076H
	DB	05eH
	DB	059H
	DB	05eH
	DB	0fbH
	DB	0bdH
	DB	01eH
	DB	04fH
	DB	0b3H
	DB	09cH
	DB	026H
	DB	09eH
	DB	0d6H
	DB	030H
	DB	06dH
	DB	0c8H
	DB	0dbH
	DB	0c4H
	DB	05bH
	DB	0e0H
	DB	0bdH
	DB	0cbH
	DB	07bH
	DB	060H
	DB	03aH
	DB	03eH
	DB	03dH
	DB	065H
	DB	0faH
	DB	0ceH
	DB	0e9H
	DB	03H
	DB	03eH
	DB	0c6H
	DB	03eH
	DB	02H
	DB	09fH
	DB	07aH
	DB	09fH
	DB	087H
	DB	0beH
	DB	0a6H
	DB	0beH
	DB	022H
	DB	0dfH
	DB	03dH
	DB	0beH
	DB	023H
	DB	07eH
	DB	0d6H
	DB	07eH
	DB	099H
	DB	07eH
	DB	07H
	DB	0fcH
	DB	09eH
	DB	0fbH
	DB	03bH
	DB	0faH
	DB	0cbH
	DB	0fdH
	DB	08fH
	DB	0f8H
	DB	0bfH
	DB	0e1H
	DB	079H
	DB	0f2H
	DB	016H
	DB	0f1H
	DB	04eH
	DB	05H
	DB	060H
	DB	01H
	DB	0c1H
	DB	01H
	DB	0e5H
	DB	01H
	DB	0bdH
	DB	081H
	DB	01aH
	DB	081H
	DB	0b3H
	DB	03H
	DB	06bH
	DB	03H
	DB	01fH
	DB	04H
	DB	099H
	DB	04H
	DB	0a5H
	DB	07H
	DB	035H
	DB	05H
	DB	08dH
	DB	05H
	DB	0bbH
	DB	06H
	DB	02fH
	DB	0cH
	DB	03eH
	DB	015H
	DB	042H
	DB	0cH
	DB	09H
	DB	0dH
	DB	059H
	DB	01fH
	DB	072H
	DB	093H
	DB	06fH
	DB	0c0H
	DB	017H
	DB	0f2H
	DB	01bH
	DB	0f9H
	DB	063H
	DB	033H
	DB	0dcH
	DB	067H
	DB	02cH
	DB	09aH
	DB	0d1H
	DB	015H
	DB	0caH
	DB	08H
	DB	09dH
	DB	015H
	DB	05aH
	DB	01bH
	DB	0faH
	DB	030H
	DB	0ccH
	DB	026H
	DB	04cH
	DB	01eH
	DB	0d6H
	DB	011H
	DB	08eH
	DB	086H
	DB	0cfH
	DB	08H
	DB	0dfH
	DB	010H
	DB	07eH
	DB	06fH
	DB	0a6H
	DB	0f9H
	DB	04cH
	DB	0e9H
	DB	0ccH
	DB	0b6H
	DB	08H
	DB	088H
	DB	0e0H
	DB	047H
	DB	06cH
	DB	088H
	DB	0b8H
	DB	01fH
	DB	069H
	DB	019H
	DB	099H
	DB	017H
	DB	0f9H
	DB	07dH
	DB	014H
	DB	029H
	DB	02aH
	DB	032H
	DB	0aaH
	DB	02eH
	DB	0eaH
	DB	051H
	DB	0b4H
	DB	053H
	DB	074H
	DB	071H
	DB	074H
	DB	0f7H
	DB	02cH
	DB	0d6H
	DB	0acH
	DB	0e4H
	DB	059H
	DB	0fbH
	DB	067H
	DB	0bdH
	DB	08eH
	DB	0f1H
	DB	08fH
	DB	0a9H
	DB	08cH
	DB	0b9H
	DB	03bH
	DB	0dbH
	DB	06aH
	DB	0b6H
	DB	072H
	DB	076H
	DB	067H
	DB	0acH
	DB	06aH
	DB	06cH
	DB	052H
	DB	06cH
	DB	063H
	DB	0ecH
	DB	09bH
	DB	0b8H
	DB	080H
	DB	0b8H
	DB	0aaH
	DB	0b8H
	DB	081H
	DB	078H
	DB	087H
	DB	0f8H
	DB	045H
	DB	0f1H
	DB	097H
	DB	012H
	DB	074H
	DB	013H
	DB	024H
	DB	09H
	DB	0edH
	DB	089H
	DB	0e4H
	DB	0c4H
	DB	0d8H
	DB	0c4H
	DB	03dH
	DB	089H
	DB	0e3H
	DB	073H
	DB	02H
	DB	0e7H
	DB	06cH
	DB	09aH
	DB	033H
	DB	09cH
	DB	0e4H
	DB	09aH
	DB	054H
	DB	096H
	DB	074H
	DB	063H
	DB	0aeH
	DB	0e5H
	DB	0dcH
	DB	0a2H
	DB	0b9H
	DB	017H
	DB	0e6H
	DB	0e9H
	DB	0ceH
	DB	0cbH
	DB	09eH
	DB	077H
	DB	03cH
	DB	059H
	DB	035H
	DB	059H
	DB	090H
	DB	07cH
	DB	038H
	DB	085H
	DB	098H
	DB	012H
	DB	097H
	DB	0b2H
	DB	03fH
	DB	0e5H
	DB	083H
	DB	020H
	DB	042H
	DB	050H
	DB	02fH
	DB	018H
	DB	04fH
	DB	0e5H
	DB	0a7H
	DB	06eH
	DB	04dH
	DB	01dH
	DB	013H
	DB	0f2H
	DB	084H
	DB	09bH
	DB	085H
	DB	04fH
	DB	045H
	DB	0beH
	DB	0a2H
	DB	08dH
	DB	0a2H
	DB	051H
	DB	0b1H
	DB	0b7H
	DB	0b8H
	DB	04aH
	DB	03cH
	DB	092H
	DB	0e6H
	DB	09dH
	DB	056H
	DB	095H
	DB	0f6H
	DB	038H
	DB	0ddH
	DB	03bH
	DB	07dH
	DB	043H
	DB	0faH
	DB	068H
	DB	086H
	DB	04fH
	DB	046H
	DB	075H
	DB	0c6H
	DB	033H
	DB	09H
	DB	04fH
	DB	052H
	DB	02bH
	DB	079H
	DB	091H
	DB	019H
	DB	092H
	DB	0b9H
	DB	023H
	DB	0f3H
	DB	04dH
	DB	056H
	DB	044H
	DB	0d6H
	DB	0deH
	DB	0acH
	DB	0cfH
	DB	0d9H
	DB	071H
	DB	0d9H
	DB	02dH
	DB	039H
	DB	094H
	DB	09cH
	DB	094H
	DB	09cH
	DB	0a3H
	DB	052H
	DB	0dH
	DB	069H
	DB	096H
	DB	0b4H
	DB	02bH
	DB	0d7H
	DB	030H
	DB	0b7H
	DB	028H
	DB	0b7H
	DB	04fH
	DB	066H
	DB	02bH
	DB	02bH
	DB	093H
	DB	0dH
	DB	0e4H
	DB	079H
	DB	0e6H
	DB	06dH
	DB	0caH
	DB	01bH
	DB	093H
	DB	087H
	DB	0caH
	DB	0f7H
	DB	0e4H
	DB	023H
	DB	0f9H
	DB	073H
	DB	0f3H
	DB	0dbH
	DB	015H
	DB	06cH
	DB	085H
	DB	04cH
	DB	0d1H
	DB	0a3H
	DB	0b4H
	DB	052H
	DB	0aeH
	DB	050H
	DB	0eH
	DB	016H
	DB	04cH
	DB	02fH
	DB	0a8H
	DB	02bH
	DB	078H
	DB	05bH
	DB	018H
	DB	05bH
	DB	078H
	DB	0b8H
	DB	048H
	DB	0bdH
	DB	048H
	DB	05aH
	DB	0d4H
	DB	033H
	DB	0dfH
	DB	066H
	DB	0feH
	DB	0eaH
	DB	0f9H
	DB	023H
	DB	0bH
	DB	082H
	DB	016H
	DB	07cH
	DB	0bdH
	DB	090H
	DB	0b0H
	DB	050H
	DB	0b8H
	DB	0b0H
	DB	0b3H
	DB	0d8H
	DB	0b8H
	DB	078H
	DB	059H
	DB	0f1H
	DB	0e0H
	DB	022H
	DB	0bfH
	DB	045H
	DB	0bbH
	DB	016H
	DB	023H
	DB	08bH
	DB	053H
	DB	017H
	DB	077H
	DB	02eH
	DB	031H
	DB	05dH
	DB	052H
	DB	0baH
	DB	064H
	DB	078H
	DB	069H
	DB	0f0H
	DB	0d2H
	DB	07dH
	DB	0cbH
	DB	068H
	DB	0cbH
	DB	0b2H
	DB	096H
	DB	0fdH
	DB	050H
	DB	0e2H
	DB	058H
	DB	052H
	DB	055H
	DB	0f2H
	DB	06aH
	DB	079H
	DB	0dcH
	DB	0f2H
	DB	08eH
	DB	052H
	DB	083H
	DB	0d2H
	DB	0a5H
	DB	0a5H
	DB	043H
	DB	02bH
	DB	082H
	DB	057H
	DB	034H
	DB	095H
	DB	0a9H
	DB	094H
	DB	0c9H
	DB	0cbH
	DB	06eH
	DB	0aeH
	DB	0f4H
	DB	05aH
	DB	0b9H
	DB	063H
	DB	015H
	DB	061H
	DB	095H
	DB	064H
	DB	055H
	DB	0efH
	DB	06aH
	DB	097H
	DB	0d5H
	DB	05bH
	DB	056H
	DB	07fH
	DB	02aH
	DB	017H
	DB	095H
	DB	05fH
	DB	0acH
	DB	070H
	DB	0acH
	DB	0a8H
	DB	0aeH
	DB	0f8H
	DB	0b0H
	DB	046H
	DB	0b8H
	DB	0e6H
	DB	0e2H
	DB	057H
	DB	04eH
	DB	05fH
	DB	0d5H
	DB	07cH
	DB	0f5H
	DB	079H
	DB	06dH
	DB	0daH
	DB	0daH
	DB	0deH
	DB	04aH
	DB	0b7H
	DB	0caH
	DB	0edH
	DB	0ebH
	DB	048H
	DB	0ebH
	DB	0a4H
	DB	0ebH
	DB	06eH
	DB	0acH
	DB	0f7H
	DB	059H
	DB	0bfH
	DB	0afH
	DB	04aH
	DB	0bdH
	DB	06aH
	DB	041H
	DB	0d5H
	DB	0d0H
	DB	086H
	DB	0f0H
	DB	0dH
	DB	0adH
	DB	01bH
	DB	0f1H
	DB	08dH
	DB	0e5H
	DB	01bH
	DB	05fH
	DB	06dH
	DB	04aH
	DB	0deH
	DB	074H
	DB	0a1H
	DB	07aH
	DB	06aH
	DB	0f5H
	DB	08eH
	DB	0cdH
	DB	0b4H
	DB	0cdH
	DB	0caH
	DB	0cdH
	DB	03H
	DB	035H
	DB	061H
	DB	035H
	DB	0edH
	DB	05bH
	DB	0ccH
	DB	0b6H
	DB	0acH
	DB	0dbH
	DB	0f2H
	DB	0a1H
	DB	036H
	DB	0a3H
	DB	0f6H
	DB	07aH
	DB	09dH
	DB	07fH
	DB	05dH
	DB	0cbH
	DB	056H
	DB	0fdH
	DB	0adH
	DB	0abH
	DB	0b7H
	DB	0beH
	DB	0d9H
	DB	026H
	DB	0daH
	DB	0d6H
	DB	0bfH
	DB	0ddH
	DB	077H
	DB	07bH
	DB	0f3H
	DB	0eH
	DB	083H
	DB	01dH
	DB	015H
	DB	03bH
	DB	0deH
	DB	0efH
	DB	094H
	DB	0ecH
	DB	0bcH
	DB	0b5H
	DB	02bH
	DB	078H
	DB	057H
	DB	06bH
	DB	0bdH
	DB	045H
	DB	07dH
	DB	0f5H
	DB	06eH
	DB	0d2H
	DB	0eeH
	DB	082H
	DB	0ddH
	DB	08fH
	DB	01aH
	DB	062H
	DB	01bH
	DB	0baH
	DB	0bfH
	DB	0e6H
	DB	07eH
	DB	0ddH
	DB	0b8H
	DB	047H
	DB	077H
	DB	04fH
	DB	0c5H
	DB	09eH
	DB	08fH
	DB	07bH
	DB	0a5H
	DB	07bH
	DB	07H
	DB	0f6H
	DB	045H
	DB	0efH
	DB	0ebH
	DB	06aH
	DB	074H
	DB	06fH
	DB	06cH
	DB	0dcH
	DB	0afH
	DB	0bfH
	DB	0bfH
	DB	0b2H
	DB	09H
	DB	06dH
	DB	052H
	DB	036H
	DB	08dH
	DB	01eH
	DB	048H
	DB	03aH
	DB	070H
	DB	0e5H
	DB	09bH
	DB	080H
	DB	06fH
	DB	0daH
	DB	09bH
	DB	0edH
	DB	09aH
	DB	077H
	DB	0b5H
	DB	070H
	DB	05aH
	DB	02aH
	DB	0eH
	DB	0c2H
	DB	041H
	DB	0e5H
	DB	0c1H
	DB	027H
	DB	0dfH
	DB	0a6H
	DB	07cH
	DB	07bH
	DB	0e3H
	DB	050H
	DB	0e8H
	DB	0a1H
	DB	0ceH
	DB	0c3H
	DB	0dcH
	DB	0c3H
	DB	0cdH
	DB	0dfH
	DB	099H
	DB	07fH
	DB	0b7H
	DB	0f5H
	DB	08H
	DB	0ebH
	DB	048H
	DB	079H
	DB	02bH
	DB	0d2H
	DB	03aH
	DB	0bfH
	DB	075H
	DB	0acH
	DB	02dH
	DB	0a3H
	DB	06dH
	DB	0a0H
	DB	03dH
	DB	0a1H
	DB	0bdH
	DB	0efH
	DB	0e8H
	DB	08cH
	DB	0a3H
	DB	09dH
	DB	01dH
	DB	05eH
	DB	01dH
	DB	047H
	DB	0beH
	DB	0b7H
	DB	0ffH
	DB	07eH
	DB	0efH
	DB	031H
	DB	0e3H
	DB	063H
	DB	075H
	DB	0c7H
	DB	035H
	DB	08fH
	DB	057H
	DB	09eH
	DB	0a0H
	DB	09dH
	DB	028H
	DB	03dH
	DB	0f1H
	DB	0f9H
	DB	0e4H
	DB	082H
	DB	093H
	DB	0e3H
	DB	0a7H
	DB	064H
	DB	0a7H
	DB	09eH
	DB	09dH
	DB	04eH
	DB	03fH
	DB	03dH
	DB	0d4H
	DB	099H
	DB	0dcH
	DB	079H
	DB	0f7H
	DB	04cH
	DB	0fcH
	DB	099H
	DB	06bH
	DB	05dH
	DB	051H
	DB	05dH
	DB	0bdH
	DB	067H
	DB	043H
	DB	0cfH
	DB	09eH
	DB	03fH
	DB	017H
	DB	074H
	DB	0eeH
	DB	04cH
	DB	0b7H
	DB	05fH
	DB	0f7H
	DB	0c9H
	DB	0f3H
	DB	0deH
	DB	0e7H
	DB	08fH
	DB	05dH
	DB	0f0H
	DB	0bcH
	DB	070H
	DB	0f4H
	DB	022H
	DB	0f7H
	DB	062H
	DB	0dbH
	DB	025H
	DB	0b7H
	DB	04bH
	DB	0adH
	DB	03dH
	DB	0aeH
	DB	03dH
	DB	047H
	DB	07eH
	DB	070H
	DB	0fdH
	DB	0e1H
	DB	048H
	DB	0afH
	DB	05bH
	DB	06fH
	DB	0ebH
	DB	065H
	DB	0f7H
	DB	0cbH
	DB	0edH
	DB	057H
	DB	03cH
	DB	0aeH
	DB	074H
	DB	0f4H
	DB	04dH
	DB	0ebH
	DB	03bH
	DB	0d1H
	DB	0efH
	DB	0d3H
	DB	07fH
	DB	0faH
	DB	06aH
	DB	0c0H
	DB	0d5H
	DB	073H
	DB	0d7H
	DB	0f8H
	DB	0d7H
	DB	02eH
	DB	05dH
	DB	09fH
	DB	079H
	DB	0bdH
	DB	0efH
	DB	0c6H
	DB	0ecH
	DB	01bH
	DB	0b7H
	DB	06eH
	DB	026H
	DB	0ddH
	DB	01cH
	DB	0b8H
	DB	025H
	DB	0baH
	DB	0f5H
	DB	0f8H
	DB	076H
	DB	0f6H
	DB	0edH
	DB	017H
	DB	077H
	DB	0aH
	DB	0eeH
	DB	04cH
	DB	0dcH
	DB	05dH
	DB	07aH
	DB	08fH
	DB	078H
	DB	0afH
	DB	0fcH
	DB	0beH
	DB	0daH
	DB	0fdH
	DB	0eaH
	DB	07H
	DB	0faH
	DB	0fH
	DB	0eaH
	DB	07fH
	DB	0b4H
	DB	0feH
	DB	0b1H
	DB	065H
	DB	0c0H
	DB	06dH
	DB	0e0H
	DB	0f8H
	DB	060H
	DB	0c0H
	DB	060H
	DB	0cfH
	DB	0c3H
	DB	059H
	DB	0fH
	DB	0efH
	DB	0eH
	DB	09H
	DB	087H
	DB	09eH
	DB	0feH
	DB	094H
	DB	0ffH
	DB	0d3H
	DB	087H
	DB	0e1H
	DB	0d2H
	DB	047H
	DB	0ccH
	DB	047H
	DB	0d5H
	DB	023H
	DB	046H
	DB	023H
	DB	08dH
	DB	08fH
	DB	09dH
	DB	01fH
	DB	01fH
	DB	01bH
	DB	0dH
	DB	01aH
	DB	0bdH
	DB	0f2H
	DB	064H
	DB	0ceH
	DB	093H
	DB	0e1H
	DB	0a7H
	DB	0b2H
	DB	0a7H
	DB	013H
	DB	0cfH
	DB	0caH
	DB	07eH
	DB	056H
	DB	0ffH
	DB	079H
	DB	0ebH
	DB	073H
	DB	0abH
	DB	0e7H
	DB	0dfH
	DB	0fdH
	DB	0e2H
	DB	0fbH
	DB	04bH
	DB	0cfH
	DB	058H
	DB	0fcH
	DB	0d8H
	DB	0f0H
	DB	0bH
	DB	0f9H
	DB	08bH
	DB	0cfH
	DB	0bfH
	DB	0aeH
	DB	079H
	DB	0a9H
	DB	0f3H
	DB	072H
	DB	0efH
	DB	0abH
	DB	0a9H
	DB	0afH
	DB	03aH
	DB	0c7H
	DB	023H
	DB	0c7H
	DB	01fH
	DB	0bcH
	DB	0ceH
	DB	079H
	DB	03dH
	DB	0f1H
	DB	0a6H
	DB	0fcH
	DB	0adH
	DB	0ceH
	DB	0dbH
	DB	07dH
	DB	0efH
	DB	0b8H
	DB	0efH
	DB	0baH
	DB	0dfH
	DB	0c7H
	DB	0bdH
	DB	01fH
	DB	099H
	DB	028H
	DB	0fcH
	DB	040H
	DB	0feH
	DB	050H
	DB	0f3H
	DB	0d1H
	DB	0faH
	DB	063H
	DB	0c7H
	DB	0a7H
	DB	0d0H
	DB	04fH
	DB	0f7H
	DB	03eH
	DB	0e7H
	DB	07cH
	DB	0feH
	DB	0fcH
	DB	02fH
	DB	0f7H
	DB	084H
	DB	0f3H
	DB	0fbH
	DB	025H
	DB	0d2H
	DB	09fH
	DB	033H
	DB	00H
	DB	00H
	DB	00H
	DB	020H
	DB	063H
	DB	048H
	DB	052H
	DB	04dH
	DB	00H
	DB	00H
	DB	07aH
	DB	025H
	DB	00H
	DB	00H
	DB	080H
	DB	083H
	DB	00H
	DB	00H
	DB	0f9H
	DB	0ffH
	DB	00H
	DB	00H
	DB	080H
	DB	0e9H
	DB	00H
	DB	00H
	DB	075H
	DB	030H
	DB	00H
	DB	00H
	DB	0eaH
	DB	060H
	DB	00H
	DB	00H
	DB	03aH
	DB	098H
	DB	00H
	DB	00H
	DB	017H
	DB	06fH
	DB	092H
	DB	05fH
	DB	0c5H
	DB	046H
	DB	00H
	DB	00H
	DB	09H
	DB	0dbH
	DB	049H
	DB	044H
	DB	041H
	DB	054H
	DB	078H
	DB	0daH
	DB	09cH
	DB	096H
	DB	0dbH
	DB	06fH
	DB	023H
	DB	057H
	DB	01dH
	DB	0c7H
	DB	04fH
	DB	0b7H
	DB	085H
	DB	0b6H
	DB	080H
	DB	010H
	DB	054H
	DB	014H
	DB	02aH
	DB	05aH
	DB	0a1H
	DB	0b6H
	DB	05cH
	DB	01eH
	DB	0f9H
	DB	0fH
	DB	040H
	DB	02aH
	DB	0fH
	DB	08H
	DB	024H
	DB	04H
	DB	0bcH
	DB	0f1H
	DB	052H
	DB	084H
	DB	010H
	DB	020H
	DB	0f1H
	DB	04H
	DB	04fH
	DB	03cH
	DB	050H
	DB	0a1H
	DB	02eH
	DB	052H
	DB	097H
	DB	087H
	DB	0ddH
	DB	074H
	DB	02fH
	DB	015H
	DB	09bH
	DB	094H
	DB	06cH
	DB	092H
	DB	0ddH
	DB	0c4H
	DB	09bH
	DB	04dH
	DB	0b6H
	DB	0bbH
	DB	049H
	DB	0d6H
	DB	0deH
	DB	0a6H
	DB	0b5H
	DB	01dH
	DB	027H
	DB	071H
	DB	09cH
	DB	0b1H
	DB	01dH
	DB	04fH
	DB	0ecH
	DB	0f8H
	DB	09eH
	DB	0f8H
	DB	03aH
	DB	01eH
	DB	0cfH
	DB	078H
	DB	0c6H
	DB	033H
	DB	0f6H
	DB	078H
	DB	0c6H
	DB	063H
	DB	07bH
	DB	07cH
	DB	08dH
	DB	093H
	DB	02fH
	DB	0fH
	DB	05eH
	DB	07bH
	DB	093H
	DB	0ddH
	DB	065H
	DB	05bH
	DB	061H
	DB	0e9H
	DB	02bH
	DB	07bH
	DB	066H
	DB	06cH
	DB	07fH
	DB	03fH
	DB	0e7H
	DB	0f7H
	DB	03dH
	DB	0bfH
	DB	073H
	DB	0eH
	DB	0e9H
	DB	074H
	DB	03aH
	DB	0e4H
	DB	0a4H
	DB	00H
	DB	090H
	DB	054H
	DB	032H
	DB	045H
	DB	04cH
	DB	026H
	DB	013H
	DB	0b9H
	DB	073H
	DB	0e7H
	DB	0eH
	DB	039H
	DB	0fbH
	DB	0eeH
	DB	059H
	DB	072H
	DB	0e5H
	DB	0f2H
	DB	015H
	DB	012H
	DB	09H
	DB	047H
	DB	0beH
	DB	01cH
	DB	08fH
	DB	0c5H
	DB	0dfH
	DB	05cH
	DB	059H
	DB	05eH
	DB	079H
	DB	077H
	DB	0eaH
	DB	0daH
	DB	094H
	DB	07bH
	DB	0ecH
	DB	0c2H
	DB	0d8H
	DB	0d2H
	DB	0b9H
	DB	0f7H
	DB	0ceH
	DB	0cdH
	DB	09fH
	DB	07bH
	DB	0efH
	DB	0dcH
	DB	0fcH
	DB	0d8H
	DB	085H
	DB	0b1H
	DB	0f9H
	DB	0a9H
	DB	06bH
	DB	053H
	DB	0f3H
	DB	02bH
	DB	0cbH
	DB	02bH
	DB	0bH
	DB	0f1H
	DB	058H
	DB	0fcH
	DB	0bcH
	DB	06fH
	DB	0c7H
	DB	0f7H
	DB	093H
	DB	0a5H
	DB	0bbH
	DB	04bH
	DB	05fH
	DB	062H
	DB	059H
	DB	096H
	DB	0d8H
	DB	0edH
	DB	076H
	DB	032H
	DB	03dH
	DB	035H
	DB	04dH
	DB	052H
	DB	0c9H
	DB	014H
	DB	01H
	DB	040H
	DB	01eH
	DB	0f5H
	DB	023H
	DB	09fH
	DB	05H
	DB	0f0H
	DB	0cfH
	DB	0b3H
	DB	0ffH
	DB	024H
	DB	01fH
	DB	05cH
	DB	0f9H
	DB	0e0H
	DB	0f9H
	DB	0f1H
	DB	0abH
	DB	0e3H
	DB	063H
	DB	093H
	DB	093H
	DB	093H
	DB	03bH
	DB	016H
	DB	08bH
	DB	045H
	DB	072H
	DB	0bbH
	DB	0ddH
	DB	0f0H
	DB	0fbH
	DB	0fdH
	DB	09dH
	DB	060H
	DB	030H
	DB	0d8H
	DB	0cH
	DB	06H
	DB	083H
	DB	04dH
	DB	0bfH
	DB	0dfH
	DB	0dfH
	DB	074H
	DB	0bbH
	DB	0ddH
	DB	04dH
	DB	08bH
	DB	0c5H
	DB	0d2H
	DB	09aH
	DB	09cH
	DB	09cH
	DB	054H
	DB	02eH
	DB	0bdH
	DB	07fH
	DB	029H
	DB	0baH
	DB	0b2H
	DB	0bcH
	DB	0f2H
	DB	01eH
	DB	0c7H
	DB	071H
	DB	0cfH
	DB	0aeH
	DB	0adH
	DB	0adH
	DB	0fdH
	DB	07fH
	DB	00H
	DB	037H
	DB	06fH
	DB	0deH
	DB	024H
	DB	04bH
	DB	04bH
	DB	04bH
	DB	0afH
	DB	0beH
	DB	0f3H
	DB	0f7H
	DB	077H
	DB	0feH
	DB	03cH
	DB	031H
	DB	03eH
	DB	031H
	DB	0b7H
	DB	066H
	DB	05fH
	DB	06bH
	DB	0f8H
	DB	0fdH
	DB	07eH
	DB	014H
	DB	0aH
	DB	05H
	DB	018H
	DB	086H
	DB	081H
	DB	07eH
	DB	0bfH
	DB	08fH
	DB	0e1H
	DB	0abH
	DB	0dfH
	DB	0efH
	DB	0c3H
	DB	030H
	DB	0cH
	DB	014H
	DB	0aH
	DB	05H
	DB	0f8H
	DB	0fdH
	DB	07eH
	DB	058H
	DB	03fH
	DB	0b5H
	DB	062H
	DB	06eH
	DB	076H
	DB	04eH
	DB	0bbH
	DB	071H
	DB	0fdH
	DB	0c6H
	DB	035H
	DB	08bH
	DB	0c5H
	DB	0f2H
	DB	0d6H
	DB	0dcH
	DB	0dcH
	DB	0dcH
	DB	0e7H
	DB	03H
	DB	068H
	DB	0b7H
	DB	0dbH
	DB	04H
	DB	00H
	DB	0e1H
	DB	0f2H
	DB	0dcH
	DB	0bH
	DB	093H
	DB	093H
	DB	093H
	DB	0bfH
	DB	01eH
	DB	0bfH
	DB	03aH
	DB	03eH
	DB	073H
	DB	06bH
	DB	0feH
	DB	096H
	DB	010H
	DB	0aH
	DB	086H
	DB	0d0H
	DB	0ebH
	DB	0f5H
	DB	046H
	DB	086H
	DB	0c7H
	DB	0c7H
	DB	0c7H
	DB	038H
	DB	03aH
	DB	03aH
	DB	042H
	DB	0bfH
	DB	0dfH
	DB	047H
	DB	0bfH
	DB	0dfH
	DB	0c7H
	DB	0d1H
	DB	0d1H
	DB	011H
	DB	08eH
	DB	08fH
	DB	08fH
	DB	047H
	DB	0cfH
	DB	07bH
	DB	0bdH
	DB	01eH
	DB	02H
	DB	081H
	DB	00H
	DB	0aeH
	DB	0cfH
	DB	05cH
	DB	0c7H
	DB	0d5H
	DB	07fH
	DB	05fH
	DB	0ddH
	DB	0baH
	DB	036H
	DB	079H
	DB	0edH
	DB	06dH
	DB	02eH
	DB	0cfH
	DB	03dH
	DB	0fH
	DB	080H
	DB	0b4H
	DB	0dbH
	DB	0edH
	DB	0d3H
	DB	00H
	DB	047H
	DB	047H
	DB	047H
	DB	023H
	DB	01H
	DB	020H
	DB	0cdH
	DB	066H
	DB	0f3H
	DB	025H
	DB	08aH
	DB	0a2H
	DB	0feH
	DB	074H
	DB	0e9H
	DB	0e2H
	DB	0a5H
	DB	083H
	DB	0d9H
	DB	01bH
	DB	0b3H
	DB	010H
	DB	05H
	DB	011H
	DB	00H
	DB	0d0H
	DB	06eH
	DB	0b7H
	DB	051H
	DB	0afH
	DB	0d7H
	DB	061H
	DB	034H
	DB	0cH
	DB	018H
	DB	086H
	DB	081H
	DB	046H
	DB	0a3H
	DB	01H
	DB	0c3H
	DB	078H
	DB	0e4H
	DB	073H
	DB	0c3H
	DB	040H
	DB	0bdH
	DB	05eH
	DB	047H
	DB	0bbH
	DB	0ddH
	DB	06H
	DB	00H
	DB	088H
	DB	082H
	DB	088H
	DB	0d9H
	DB	01bH
	DB	0b3H
	DB	0b8H
	DB	074H
	DB	0f1H
	DB	052H
	DB	08eH
	DB	0a2H
	DB	0a8H
	DB	0bfH
	DB	034H
	DB	09bH
	DB	0cdH
	DB	097H
	DB	08fH
	DB	08fH
	DB	08fH
	DB	049H
	DB	0afH
	DB	0d7H
	DB	01bH
	DB	089H
	DB	0a8H
	DB	0aaH
	DB	03aH
	DB	052H
	DB	0b3H
	DB	0d9H
	DB	03cH
	DB	043H
	DB	0d3H
	DB	0f4H
	DB	0dbH
	DB	063H
	DB	017H
	DB	0c6H
	DB	08aH
	DB	0d3H
	DB	053H
	DB	0d3H
	DB	060H
	DB	018H
	DB	06H
	DB	08dH
	DB	046H
	DB	03H
	DB	0baH
	DB	0aeH
	DB	043H
	DB	0d3H
	DB	034H
	DB	054H
	DB	0abH
	DB	055H
	DB	0e8H
	DB	0baH
	DB	03eH
	DB	050H
	DB	04dH
	DB	047H
	DB	0adH
	DB	056H
	DB	043H
	DB	0adH
	DB	056H
	DB	07bH
	DB	078H
	DB	04fH
	DB	0d7H
	DB	051H
	DB	0adH
	DB	056H
	DB	0a1H
	DB	069H
	DB	01aH
	DB	074H
	DB	05dH
	DB	047H
	DB	0a3H
	DB	0d1H
	DB	00H
	DB	0c3H
	DB	030H
	DB	098H
	DB	09eH
	DB	09aH
	DB	0c6H
	DB	085H
	DB	0bH
	DB	017H
	DB	0daH
	DB	034H
	DB	04dH
	DB	0ffH
	DB	0b5H
	DB	0ddH
	DB	06eH
	DB	0bfH
	DB	060H
	DB	018H
	DB	06H
	DB	019H
	DB	08aH
	DB	058H
	DB	0adH
	DB	0d6H
	DB	091H
	DB	0ecH
	DB	076H
	DB	0fbH
	DB	0f7H
	DB	066H
	DB	067H
	DB	067H
	DB	017H
	DB	0afH
	DB	05cH
	DB	0beH
	DB	082H
	DB	075H
	DB	0c7H
	DB	03aH
	DB	014H
	DB	045H
	DB	041H
	DB	0b9H
	DB	05cH
	DB	086H
	DB	02cH
	DB	0cbH
	DB	050H
	DB	014H
	DB	05H
	DB	095H
	DB	04aH
	DB	05H
	DB	095H
	DB	04aH
	DB	05H
	DB	0aaH
	DB	0aaH
	DB	042H
	DB	0d3H
	DB	0b4H
	DB	053H
	DB	052H
	DB	055H
	DB	075H
	DB	0f4H
	DB	05cH
	DB	051H
	DB	014H
	DB	0c8H
	DB	0b2H
	DB	08cH
	DB	072H
	DB	0b9H
	DB	0cH
	DB	045H
	DB	051H
	DB	0e0H
	DB	070H
	DB	038H
	DB	070H
	DB	0f9H
	DB	0f2H
	DB	065H
	DB	0ccH
	DB	0ccH
	DB	0ccH
	DB	0d0H
	DB	07eH
	DB	0bfH
	DB	0ffH
	DB	0a7H
	DB	03cH
	DB	0cfH
	DB	013H
	DB	096H
	DB	065H
	DB	09H
	DB	0cbH
	DB	0b2H
	DB	084H
	DB	098H
	DB	0e6H
	DB	04cH
	DB	0c4H
	DB	034H
	DB	067H
	DB	022H
	DB	037H
	DB	04dH
	DB	037H
	DB	0c9H
	DB	0c4H
	DB	0f8H
	DB	0c4H
	DB	01fH
	DB	02eH
	DB	0beH
	DB	07fH
	DB	051H
	DB	059H
	DB	058H
	DB	05cH
	DB	040H
	DB	028H
	DB	014H
	DB	042H
	DB	0a1H
	DB	050H
	DB	080H
	DB	020H
	DB	08H
	DB	010H
	DB	04H
	DB	01H
	DB	0b2H
	DB	024H
	DB	0a3H
	DB	054H
	DB	02aH
	DB	041H
	DB	051H
	DB	094H
	DB	01H
	DB	08cH
	DB	052H
	DB	019H
	DB	019H
	DB	0eH
	DB	04dH
	DB	015H
	DB	045H
	DB	041H
	DB	0a9H
	DB	054H
	DB	082H
	DB	02cH
	DB	0cbH
	DB	0a3H
	DB	0dfH
	DB	09H
	DB	082H
	DB	080H
	DB	050H
	DB	028H
	DB	084H
	DB	0c5H
	DB	085H
	DB	045H
	DB	09cH
	DB	03fH
	DB	07fH
	DB	0feH
	DB	0d0H
	DB	07cH
	DB	0cfH
	DB	07cH
	DB	09eH
	DB	0e3H
	DB	038H
	DB	092H
	DB	0c9H
	DB	064H
	DB	048H
	DB	026H
	DB	093H
	DB	021H
	DB	064H
	DB	066H
	DB	07aH
	DB	086H
	DB	0ccH
	DB	05eH
	DB	09fH
	DB	025H
	DB	037H
	DB	04dH
	DB	037H
	DB	0c9H
	DB	0e4H
	DB	07fH
	DB	026H
	DB	0afH
	DB	07cH
	DB	038H
	DB	0feH
	DB	021H
	DB	056H
	DB	057H
	DB	057H
	DB	0b1H
	DB	0bfH
	DB	0bfH
	DB	0fH
	DB	096H
	DB	065H
	DB	0c1H
	DB	0f3H
	DB	03cH
	DB	04H
	DB	041H
	DB	080H
	DB	024H
	DB	049H
	DB	028H
	DB	097H
	DB	0caH
	DB	0a7H
	DB	0aaH
	DB	070H
	DB	052H
	DB	0c3H
	DB	0fbH
	DB	0e5H
	DB	052H
	DB	019H
	DB	092H
	DB	024H
	DB	041H
	DB	010H
	DB	04H
	DB	0f0H
	DB	03cH
	DB	0fH
	DB	096H
	DB	065H
	DB	0b1H
	DB	0bfH
	DB	0bfH
	DB	08fH
	DB	04fH
	DB	056H
	DB	03fH
	DB	0c1H
	DB	0c4H
	DB	0f8H
	DB	04H
	DB	06eH
	DB	05cH
	DB	0bfH
	DB	091H
	DB	0f0H
	DB	07aH
	DB	0bcH
	DB	0bfH
	DB	0e4H
	DB	079H
	DB	09eH
	DB	028H
	DB	08aH
	DB	042H
	DB	08H
	DB	04dH
	DB	0d3H
	DB	0c4H
	DB	0faH
	DB	0a9H
	DB	095H
	DB	05cH
	DB	09fH
	DB	0b9H
	DB	0feH
	DB	0f3H
	DB	0e9H
	DB	0a9H
	DB	0e9H
	DB	0d8H
	DB	0e2H
	DB	0adH
	DB	045H
	DB	0acH
	DB	0d9H
	DB	0d6H
	DB	010H
	DB	08bH
	DB	0c6H
	DB	0c0H
	DB	030H
	DB	0cH
	DB	038H
	DB	08eH
	DB	01bH
	DB	054H
	DB	040H
	DB	096H
	DB	0a1H
	DB	094H
	DB	015H
	DB	0a8H
	DB	015H
	DB	0f5H
	DB	0f1H
	DB	08H
	DB	054H
	DB	06dH
	DB	00H
	DB	055H
	DB	051H
	DB	0a1H
	DB	094H
	DB	015H
	DB	048H
	DB	0f2H
	DB	00H
	DB	080H
	DB	0e3H
	DB	038H
	DB	030H
	DB	0cH
	DB	083H
	DB	058H
	DB	02cH
	DB	086H
	DB	035H
	DB	0fbH
	DB	01aH
	DB	06eH
	DB	02fH
	DB	0deH
	DB	0c6H
	DB	0c4H
	DB	0c4H
	DB	04H
	DB	0eeH
	DB	0deH
	DB	0bdH
	DB	07bH
	DB	05fH
	DB	096H
	DB	0e5H
	DB	0d7H
	DB	09bH
	DB	0cdH
	DB	026H
	DB	021H
	DB	0f5H
	DB	07aH
	DB	09dH
	DB	0ecH
	DB	05H
	DB	0f6H
	DB	09eH
	DB	09bH
	DB	09eH
	DB	09aH
	DB	05eH
	DB	09cH
	DB	0baH
	DB	036H
	DB	05H
	DB	0f3H
	DB	03dH
	DB	033H
	DB	036H
	DB	0d6H
	DB	037H
	DB	010H
	DB	0cH
	DB	06H
	DB	091H
	DB	0cdH
	DB	066H
	DB	0c1H
	DB	0e5H
	DB	039H
	DB	088H
	DB	082H
	DB	038H
	DB	0caH
	DB	0f4H
	DB	07fH
	DB	055H
	DB	060H
	DB	058H
	DB	085H
	DB	072H
	DB	0b9H
	DB	03cH
	DB	00H
	DB	028H
	DB	08H
	DB	0e0H
	DB	0f2H
	DB	01cH
	DB	0b2H
	DB	0d9H
	DB	02cH
	DB	042H
	DB	0a1H
	DB	010H
	DB	036H
	DB	036H
	DB	036H
	DB	060H
	DB	0beH
	DB	067H
	DB	0c6H
	DB	0d4H
	DB	0e4H
	DB	014H
	DB	0e6H
	DB	0e7H
	DB	0e7H
	DB	095H
	DB	06cH
	DB	036H
	DB	07bH
	DB	0b6H
	DB	05eH
	DB	0afH
	DB	03fH
	DB	04fH
	DB	054H
	DB	055H
	DB	07dH
	DB	0ceH
	DB	0ebH
	DB	0f1H
	DB	0feH
	DB	06aH
	DB	06eH
	DB	076H
	DB	02eH
	DB	03eH
	DB	03fH
	DB	03fH
	DB	0fH
	DB	0abH
	DB	0d5H
	DB	0aH
	DB	0d7H
	DB	096H
	DB	0bH
	DB	07bH
	DB	07bH
	DB	07bH
	DB	060H
	DB	0b2H
	DB	083H
	DB	0aH
	DB	014H
	DB	0c5H
	DB	0e2H
	DB	028H
	DB	0ffH
	DB	093H
	DB	086H
	DB	027H
	DB	027H
	DB	0e0H
	DB	0f0H
	DB	07dH
	DB	038H
	DB	0fH
	DB	024H
	DB	051H
	DB	02H
	DB	0cfH
	DB	0f1H
	DB	060H
	DB	0b2H
	DB	0cH
	DB	082H
	DB	0c1H
	DB	020H
	DB	05cH
	DB	02eH
	DB	017H
	DB	06cH
	DB	056H
	DB	01bH
	DB	016H
	DB	0e6H
	DB	017H
	DB	060H
	DB	09aH
	DB	033H
	DB	0c1H
	DB	0e3H
	DB	0f1H
	DB	04H
	DB	0aaH
	DB	05aH
	DB	0f5H
	DB	065H
	DB	0a2H
	DB	028H
	DB	0caH
	DB	04bH
	DB	076H
	DB	0bbH
	DB	0ddH
	DB	06bH
	DB	09aH
	DB	033H
	DB	01dH
	DB	0afH
	DB	0dcH
	DB	05bH
	DB	0c1H
	DB	0e6H
	DB	0c6H
	DB	026H
	DB	07cH
	DB	03eH
	DB	01fH
	DB	022H
	DB	091H
	DB	08H
	DB	0b2H
	DB	0d9H
	DB	0ecH
	DB	0a8H
	DB	0fcH
	DB	095H
	DB	04aH
	DB	065H
	DB	0d4H
	DB	08aH
	DB	0a7H
	DB	0daH
	DB	0f1H
	DB	091H
	DB	0f6H
	DB	0d3H
	DB	0b4H
	DB	041H
	DB	01cH
	DB	025H
	DB	0b9H
	DB	04H
	DB	051H
	DB	010H
	DB	0c1H
	DB	064H
	DB	019H
	DB	044H
	DB	022H
	DB	011H
	DB	0f8H
	DB	07cH
	DB	03eH
	DB	038H
	DB	037H
	DB	09dH
	DB	030H
	DB	0dfH
	DB	033H
	DB	0c3H
	DB	034H
	DB	067H
	DB	082H
	DB	0cdH
	DB	06aH
	DB	08bH
	DB	056H
	DB	094H
	DB	0caH
	DB	01bH
	DB	044H
	DB	092H
	DB	0a4H
	DB	06fH
	DB	059H
	DB	0ccH
	DB	096H
	DB	0d1H
	DB	0e8H
	DB	0ddH
	DB	06eH
	DB	037H
	DB	042H
	DB	0a1H
	DB	010H
	DB	092H
	DB	0c9H
	DB	024H
	DB	0f2H
	DB	0f9H
	DB	0fcH
	DB	020H
	DB	0fbH
	DB	08aH
	DB	02H
	DB	05dH
	DB	0d7H
	DB	051H
	DB	0afH
	DB	0d7H
	DB	0d1H
	DB	068H
	DB	034H
	DB	09eH
	DB	0a8H
	DB	07aH
	DB	0bdH
	DB	03eH
	DB	092H
	DB	0aeH
	DB	0ebH
	DB	0a8H
	DB	054H
	DB	02aH
	DB	090H
	DB	065H
	DB	019H
	DB	0f9H
	DB	07cH
	DB	01eH
	DB	0c9H
	DB	064H
	DB	012H
	DB	0a1H
	DB	050H
	DB	08H
	DB	01eH
	DB	0b7H
	DB	07H
	DB	036H
	DB	0abH
	DB	0dH
	DB	0b7H
	DB	0e6H
	DB	06fH
	DB	0c1H
	DB	062H
	DB	0b1H
	DB	084H
	DB	025H
	DB	049H
	DB	07aH
	DB	083H
	DB	014H
	DB	084H
	DB	0c2H
	DB	0abH
	DB	0cbH
	DB	04bH
	DB	0cbH
	DB	0c1H
	DB	085H
	DB	05bH
	DB	0bH
	DB	0d8H
	DB	058H
	DB	0dfH
	DB	00H
	DB	04dH
	DB	0d3H
	DB	088H
	DB	0c7H
	DB	0e2H
	DB	060H
	DB	0b2H
	DB	0cH
	DB	084H
	DB	082H
	DB	080H
	DB	072H
	DB	0b9H
	DB	0cH
	DB	04dH
	DB	0d3H
	DB	06H
	DB	0e6H
	DB	046H
	DB	03H
	DB	0cdH
	DB	066H
	DB	0f3H
	DB	0a9H
	DB	032H
	DB	08cH
	DB	0c1H
	DB	06aH
	DB	0a8H
	DB	069H
	DB	01aH
	DB	0caH
	DB	0a5H
	DB	032H
	DB	084H
	DB	082H
	DB	00H
	DB	026H
	DB	0cbH
	DB	020H
	DB	01eH
	DB	08bH
	DB	083H
	DB	0a6H
	DB	069H
	DB	0acH
	DB	03bH
	DB	0d6H
	DB	071H
	DB	07bH
	DB	0e1H
	DB	036H
	DB	0ccH
	DB	0f7H
	DB	0ccH
	DB	061H
	DB	041H
	DB	014H
	DB	0deH
	DB	020H
	DB	01cH
	DB	0c7H
	DB	0bdH
	DB	0b2H
	DB	0bcH
	DB	0bcH
	DB	01cH
	DB	0feH
	DB	0e8H
	DB	0f6H
	DB	047H
	DB	083H
	DB	0ecH
	DB	03H
	DB	07bH
	DB	048H
	DB	026H
	DB	092H
	DB	0e0H
	DB	0f2H
	DB	01cH
	DB	024H
	DB	049H
	DB	082H
	DB	0aaH
	DB	0aaH
	DB	0a8H
	DB	0d5H
	DB	06aH
	DB	030H
	DB	0cH
	DB	03H
	DB	0cdH
	DB	056H
	DB	013H
	DB	0edH
	DB	076H
	DB	0fbH
	DB	0a9H
	DB	06aH
	DB	0b5H
	DB	05aH
	DB	030H
	DB	0cH
	DB	03H
	DB	0b5H
	DB	05aH
	DB	0dH
	DB	0aaH
	DB	0aaH
	DB	042H
	DB	092H
	DB	024H
	DB	0e4H
	DB	0f3H
	DB	079H
	DB	024H
	DB	012H
	DB	09H
	DB	0ecH
	DB	05H
	DB	0f6H
	DB	0e0H
	DB	0dcH
	DB	074H
	DB	0e2H
	DB	0ceH
	DB	09dH
	DB	03bH
	DB	0b0H
	DB	098H
	DB	02dH
	DB	061H
	DB	09eH
	DB	0e7H
	DB	0dfH
	DB	024H
	DB	0a2H
	DB	028H
	DB	07eH
	DB	0fdH
	DB	0feH
	DB	0fdH
	DB	0fbH
	DB	0aeH
	DB	0e5H
	DB	0a5H
	DB	065H
	DB	050H
	DB	0dbH
	DB	014H
	DB	0c2H
	DB	0e1H
	DB	030H
	DB	032H
	DB	099H
	DB	0cH
	DB	044H
	DB	041H
	DB	084H
	DB	0a2H
	DB	028H
	DB	0a8H
	DB	0e9H
	DB	03H
	DB	0f3H
	DB	076H
	DB	0bbH
	DB	08dH
	DB	04eH
	DB	0a7H
	DB	083H
	DB	06eH
	DB	0b7H
	DB	0fbH
	DB	054H
	DB	075H
	DB	03aH
	DB	09dH
	DB	011H
	DB	084H
	DB	0aeH
	DB	0ebH
	DB	028H
	DB	097H
	DB	0cbH
	DB	028H
	DB	014H
	DB	0aH
	DB	048H
	DB	0a7H
	DB	0d3H
	DB	08H
	DB	087H
	DB	0c2H
	DB	0d8H
	DB	076H
	DB	06dH
	DB	063H
	DB	079H
	DB	079H
	DB	019H
	DB	0abH
	DB	01fH
	DB	0afH
	DB	086H
	DB	039H
	DB	08eH
	DB	07bH
	DB	08dH
	DB	01cH
	DB	01cH
	DB	01cH
	DB	0bcH
	DB	068H
	DB	0fdH
	DB	0d4H
	DB	07aH
	DB	0e1H
	DB	0e3H
	DB	0fbH
	DB	01fH
	DB	01bH
	DB	01eH
	DB	0b7H
	DB	07H
	DB	0b1H
	DB	058H
	DB	0cH
	DB	039H
	DB	036H
	DB	07H
	DB	059H
	DB	096H
	DB	0a1H
	DB	069H
	DB	01aH
	DB	08cH
	DB	0c6H
	DB	0c0H
	DB	0bcH
	DB	0dbH
	DB	0ebH
	DB	0e2H
	DB	0f0H
	DB	0f0H
	DB	070H
	DB	0b4H
	DB	03H
	DB	0f6H
	DB	0fbH
	DB	0fdH
	DB	0c7H
	DB	0aeH
	DB	0fbH
	DB	0fdH
	DB	03eH
	DB	07aH
	DB	0bdH
	DB	01eH
	DB	0baH
	DB	0ddH
	DB	02eH
	DB	05aH
	DB	0adH
	DB	016H
	DB	01aH
	DB	08dH
	DB	06H
	DB	054H
	DB	055H
	DB	045H
	DB	0b1H
	DB	058H
	DB	04H
	DB	0c3H
	DB	030H
	DB	088H
	DB	046H
	DB	0a3H
	DB	0a0H
	DB	0b6H
	DB	029H
	DB	098H
	DB	0cdH
	DB	066H
	DB	0d8H
	DB	0edH
	DB	0f6H
	DB	060H
	DB	0a1H
	DB	050H
	DB	0f8H
	DB	06H
	DB	0b1H
	DB	0dbH
	DB	0ecH
	DB	067H
	DB	0ecH
	DB	036H
	DB	0fbH
	DB	05bH
	DB	076H
	DB	09bH
	DB	03dH
	DB	0ecH
	DB	0f5H
	DB	078H
	DB	091H
	DB	038H
	DB	048H
	DB	080H
	DB	0e7H
	DB	0f9H
	DB	0c1H
	DB	0e8H
	DB	06bH
	DB	035H
	DB	0b4H
	DB	05aH
	DB	02dH
	DB	074H
	DB	0bbH
	DB	0fH
	DB	0cdH
	DB	08fH
	DB	08eH
	DB	08eH
	DB	09eH
	DB	0aaH
	DB	021H
	DB	058H
	DB	0a7H
	DB	0d3H
	DB	041H
	DB	0b3H
	DB	0d9H
	DB	044H
	DB	0b5H
	DB	05aH
	DB	085H
	DB	02cH
	DB	0cbH
	DB	060H
	DB	059H
	DB	016H
	DB	0b1H
	DB	058H
	DB	0cH
	DB	0d4H
	DB	036H
	DB	085H
	DB	0d5H
	DB	0d5H
	DB	0d5H
	DB	0c3H
	DB	0adH
	DB	0adH
	DB	02dH
	DB	033H
	DB	0c3H
	DB	030H
	DB	05fH
	DB	025H
	DB	0d4H
	DB	036H
	DB	045H
	DB	0dcH
	DB	094H
	DB	0fbH
	DB	015H
	DB	0c7H
	DB	09aH
	DB	063H
	DB	083H
	DB	0daH
	DB	0a6H
	DB	090H
	DB	038H
	DB	048H
	DB	0a0H
	DB	0c0H
	DB	017H
	DB	050H
	DB	0a9H
	DB	054H
	DB	0d0H
	DB	0a8H
	DB	037H
	DB	0d0H
	DB	0e9H
	DB	074H
	DB	070H
	DB	078H
	DB	078H
	DB	078H
	DB	0caH
	DB	0e4H
	DB	0f8H
	DB	0f8H
	DB	0f8H
	DB	089H
	DB	03aH
	DB	079H
	DB	046H
	DB	018H
	DB	056H
	DB	041H
	DB	0d7H
	DB	075H
	DB	094H
	DB	0e4H
	DB	012H
	DB	072H
	DB	0b9H
	DB	01cH
	DB	0a2H
	DB	0d1H
	DB	028H
	DB	09cH
	DB	09bH
	DB	04eH
	DB	0d8H
	DB	06cH
	DB	0b6H
	DB	09cH
	DB	0c7H
	DB	0e3H
	DB	0f9H
	DB	09dH
	DB	0cfH
	DB	0e7H
	DB	0fbH
	DB	02H
	DB	089H
	DB	0c7H
	DB	0e2H
	DB	024H
	DB	01eH
	DB	08bH
	DB	0bfH
	DB	0b8H
	DB	0b9H
	DB	0b9H
	DB	0f9H
	DB	0c9H
	DB	096H
	DB	073H
	DB	0bH
	DB	07H
	DB	07H
	DB	07H
	DB	0e0H
	DB	0bH
	DB	03cH
	DB	0d4H
	DB	08aH
	DB	0aH
	DB	0a3H
	DB	061H
	DB	0a0H
	DB	0dbH
	DB	0e9H
	DB	0a2H
	DB	07fH
	DB	0d8H
	DB	03fH
	DB	065H
	DB	0fcH
	DB	024H
	DB	088H
	DB	093H
	DB	0f7H
	DB	086H
	DB	051H
	DB	0cH
	DB	01H
	DB	064H
	DB	059H
	DB	06H
	DB	0c3H
	DB	030H
	DB	088H
	DB	084H
	DB	023H
	DB	070H
	DB	0acH
	DB	039H
	DB	0e0H
	DB	070H
	DB	038H
	DB	0dcH
	DB	0f1H
	DB	078H
	DB	0fcH
	DB	07H
	DB	0d1H
	DB	068H
	DB	094H
	DB	090H
	DB	05cH
	DB	02eH
	DB	047H
	DB	072H
	DB	0b9H
	DB	0dcH
	DB	019H
	DB	0b7H
	DB	0dbH
	DB	07dH
	DB	0dfH
	DB	0b9H
	DB	0e9H
	DB	044H
	DB	034H
	DB	01aH
	DB	05H
	DB	0c7H
	DB	071H
	DB	050H
	DB	014H
	DB	05H
	DB	08dH
	DB	046H
	DB	0e3H
	DB	031H
	DB	080H
	DB	047H
	DB	04fH
	DB	03fH
	DB	0c3H
	DB	013H
	DB	0d2H
	DB	049H
	DB	01dH
	DB	01eH
	DB	01eH
	DB	0a2H
	DB	0dbH
	DB	0edH
	DB	0a2H
	DB	0d9H
	DB	06cH
	DB	042H
	DB	0abH
	DB	06aH
	DB	010H
	DB	045H
	DB	011H
	DB	0e9H
	DB	074H
	DB	01aH
	DB	0bbH
	DB	0bbH
	DB	0bbH
	DB	0b0H
	DB	0dbH
	DB	0ecH
	DB	0d8H
	DB	0deH
	DB	0deH
	DB	076H
	DB	0b0H
	DB	02cH
	DB	0fbH
	DB	045H
	DB	096H
	DB	065H
	DB	0c9H
	DB	068H
	DB	05fH
	DB	0eH
	DB	085H
	DB	042H
	DB	056H
	DB	0a7H
	DB	0d3H
	DB	09H
	DB	0daH
	DB	047H
	DB	083H
	DB	0c9H
	DB	032H
	DB	090H
	DB	065H
	DB	019H
	DB	035H
	DB	0bdH
	DB	086H
	DB	076H
	DB	0bbH
	DB	08dH
	DB	05eH
	DB	0afH
	DB	0f7H
	DB	0b9H
	DB	01H
	DB	04eH
	DB	08eH
	DB	0beH
	DB	05eH
	DB	0abH
	DB	043H
	DB	029H
	DB	02bH
	DB	0c8H
	DB	0b3H
	DB	079H
	DB	0c4H
	DB	0e2H
	DB	031H
	DB	038H
	DB	09dH
	DB	04eH
	DB	0acH
	DB	0d9H
	DB	0d7H
	DB	0caH
	DB	0a1H
	DB	060H
	DB	0e8H
	DB	0ddH
	DB	07cH
	DB	03eH
	DB	04fH
	DB	0f2H
	DB	0f9H
	DB	03cH
	DB	021H
	DB	0cH
	DB	0c3H
	DB	010H
	DB	086H
	DB	061H
	DB	048H
	DB	02aH
	DB	095H
	DB	01aH
	DB	0f3H
	DB	078H
	DB	03cH
	DB	055H
	DB	0d7H
	DB	096H
	DB	0bH
	DB	0f1H
	DB	068H
	DB	01cH
	DB	05H
	DB	0beH
	DB	00H
	DB	055H
	DB	055H
	DB	061H
	DB	018H
	DB	06H
	DB	03aH
	DB	09dH
	DB	0ceH
	DB	0a9H
	DB	0b3H
	DB	0dfH
	DB	049H
	DB	088H
	DB	0e1H
	DB	0f5H
	DB	050H
	DB	087H
	DB	0bdH
	DB	0c1H
	DB	04H
	DB	06cH
	DB	034H
	DB	01aH
	DB	050H
	DB	02bH
	DB	02aH
	DB	04H
	DB	041H
	DB	040H
	DB	02aH
	DB	099H
	DB	082H
	DB	0cfH
	DB	0e7H
	DB	083H
	DB	0cdH
	DB	06aH
	DB	03H
	DB	0b5H
	DB	04dH
	DB	0adH
	DB	0a6H
	DB	033H
	DB	0e9H
	DB	0efH
	DB	03fH
	DB	0a8H
	DB	0fcH
	DB	0c3H
	DB	0aH
	DB	0e4H
	DB	0f3H
	DB	0f9H
	DB	01fH
	DB	046H
	DB	0a3H
	DB	0d1H
	DB	02dH
	DB	0caH
	DB	045H
	DB	061H
	DB	067H
	DB	067H
	DB	07H
	DB	0e9H
	DB	054H
	DB	01aH
	DB	092H
	DB	024H
	DB	041H
	DB	0d7H
	DB	075H
	DB	0b4H
	DB	09aH
	DB	02dH
	DB	0f4H
	DB	07aH
	DB	03dH
	DB	0f4H
	DB	0fbH
	DB	0fdH
	DB	027H
	DB	066H
	DB	07fH
	DB	0b2H
	DB	03H
	DB	0baH
	DB	09dH
	DB	02eH
	DB	09aH
	DB	0c6H
	DB	060H
	DB	0f6H
	DB	017H
	DB	08bH
	DB	045H
	DB	064H
	DB	033H
	DB	059H
	DB	04H
	DB	0f7H
	DB	082H
	DB	058H
	DB	077H
	DB	0acH
	DB	063H
	DB	063H
	DB	07dH
	DB	0a3H
	DB	01cH
	DB	08dH
	DB	046H
	DB	0ffH
	DB	098H
	DB	063H
	DB	073H
	DB	0a3H
	DB	081H
	DB	013H
	DB	051H
	DB	014H
	DB	089H
	DB	028H
	DB	08aH
	DB	044H
	DB	092H
	DB	0a4H
	DB	067H
	DB	058H
	DB	096H
	DB	03dH
	DB	01fH
	DB	08H
	DB	04H
	DB	0eH
	DB	05dH
	DB	02eH
	DB	017H
	DB	02H
	DB	0feH
	DB	00H
	DB	098H
	DB	02cH
	DB	083H
	DB	052H
	DB	0a9H
	DB	084H
	DB	05aH
	DB	0edH
	DB	061H
	DB	014H
	DB	027H
	DB	05bH
	DB	0f1H
	DB	0e4H
	DB	0ccH
	DB	03fH
	DB	099H
	DB	0bbH
	DB	0aeH
	DB	0ebH
	DB	090H
	DB	025H
	DB	019H
	DB	039H
	DB	026H
	DB	087H
	DB	048H
	DB	028H
	DB	02H
	DB	097H
	DB	0d3H
	DB	05H
	DB	0c7H
	DB	09aH
	DB	03H
	DB	07eH
	DB	0bfH
	DB	0ffH
	DB	0fdH
	DB	04cH
	DB	026H
	DB	0f3H
	DB	0c2H
	DB	0d0H
	DB	09cH
	DB	061H
	DB	018H
	DB	042H
	DB	08aH
	DB	0c5H
	DB	022H
	DB	029H
	DB	016H
	DB	08bH
	DB	044H
	DB	092H
	DB	024H
	DB	022H
	DB	08aH
	DB	0e2H
	DB	0ebH
	DB	0e9H
	DB	04cH
	DB	0daH
	DB	044H
	DB	0efH
	DB	0d2H
	DB	0a0H
	DB	028H
	DB	0aH
	DB	0c1H
	DB	060H
	DB	010H
	DB	0cH
	DB	0f3H
	DB	00H
	DB	042H
	DB	0afH
	DB	0a1H
	DB	0d5H
	DB	06eH
	DB	09dH
	DB	05aH
	DB	090H
	DB	08eH
	DB	08eH
	DB	08eH
	DB	0d0H
	DB	03fH
	DB	03cH
	DB	0b1H
	DB	0f8H
	DB	034H
	DB	05bH
	DB	0d0H
	DB	0abH
	DB	083H
	DB	0b6H
	DB	063H
	DB	073H
	DB	02cH
	DB	022H
	DB	0e1H
	DB	08H
	DB	0b6H
	DB	05dH
	DB	0dbH
	DB	058H
	DB	077H
	DB	0acH
	DB	083H
	DB	0a6H
	DB	0e9H
	DB	0caH
	DB	041H
	DB	0e2H
	DB	0e0H
	DB	037H
	DB	099H
	DB	04cH
	DB	086H
	DB	03cH
	DB	011H
	DB	0a0H
	DB	058H
	DB	02cH
	DB	012H
	DB	051H
	DB	014H
	DB	09H
	DB	0c7H
	DB	073H
	DB	0dfH
	DB	04dH
	DB	0a5H
	DB	052H
	DB	097H
	DB	068H
	DB	09aH
	DB	06eH
	DB	051H
	DB	06eH
	DB	0aH
	DB	081H
	DB	040H
	DB	00H
	DB	099H
	DB	074H
	DB	06H
	DB	092H
	DB	028H
	DB	041H
	DB	0abH
	DB	06aH
	DB	068H
	DB	018H
	DB	0dH
	DB	0b4H
	DB	05aH
	DB	02dH
	DB	074H
	DB	03aH
	DB	09dH
	DB	081H
	DB	0daH
	DB	01dH
	DB	0b4H
	DB	09aH
	DB	083H
	DB	055H
	DB	04fH
	DB	0d3H
	DB	034H
	DB	048H
	DB	092H
	DB	084H
	DB	01cH
	DB	093H
	DB	043H
	DB	038H
	DB	014H
	DB	06H
	DB	0e5H
	DB	0a2H
	DB	0e0H
	DB	0dcH
	DB	074H
	DB	082H
	DB	0a6H
	DB	069H
	DB	0a4H
	DB	0d3H
	DB	0e9H
	DB	07fH
	DB	0e5H
	DB	0f3H
	DB	0f9H
	DB	06fH
	DB	03eH
	DB	088H
	DB	07bH
	DB	0a4H
	DB	053H
	DB	00H
	DB	082H
	DB	020H
	DB	010H
	DB	09eH
	DB	0e7H
	DB	09H
	DB	0cfH
	DB	0f3H
	DB	0dfH
	DB	04eH
	DB	0a5H
	DB	052H
	DB	07fH
	DB	0bH
	DB	04H
	DB	02H
	DB	049H
	DB	0afH
	DB	0d7H
	DB	0bH
	DB	0daH
	DB	047H
	DB	023H
	DB	01aH
	DB	089H
	DB	022H
	DB	097H
	DB	0cbH
	DB	0a1H
	DB	058H
	DB	02cH
	DB	042H
	DB	051H
	DB	094H
	DB	0d1H
	DB	0d9H
	DB	040H
	DB	0abH
	DB	06aH
	DB	0a8H
	DB	0a8H
	DB	0fH
	DB	0b6H
	DB	05eH
	DB	02eH
	DB	08fH
	DB	0c4H
	DB	041H
	DB	02H
	DB	01H
	DB	07fH
	DB	00H
	DB	0d4H
	DB	036H
	DB	05H
	DB	06aH
	DB	09bH
	DB	082H
	DB	0dfH
	DB	0efH
	DB	047H
	DB	03aH
	DB	09dH
	DB	09eH
	DB	0e5H
	DB	079H
	DB	0feH
	DB	0b5H
	DB	07H
	DB	0ffH
	DB	04dH
	DB	038H
	DB	08eH
	DB	01bH
	DB	0e9H
	DB	031H
	DB	00H
	DB	08eH
	DB	0e3H
	DB	086H
	DB	05fH
	DB	03aH
	DB	093H
	DB	048H
	DB	024H
	DB	07eH
	DB	01bH
	DB	089H
	DB	044H
	DB	05cH
	DB	03eH
	DB	09fH
	DB	0fH
	DB	05eH
	DB	0afH
	DB	017H
	DB	0bbH
	DB	0bbH
	DB	0bbH
	DB	08H
	DB	085H
	DB	042H
	DB	0d8H
	DB	08fH
	DB	0edH
	DB	023H
	DB	099H
	DB	04cH
	DB	022H
	DB	09dH
	DB	04aH
	DB	023H
	DB	095H
	DB	04aH
	DB	021H
	DB	091H
	DB	048H
	DB	020H
	DB	012H
	DB	08dH
	DB	020H
	DB	010H
	DB	08H
	DB	060H
	DB	0c7H
	DB	0bbH
	DB	03H
	DB	037H
	DB	0e5H
	DB	086H
	DB	0cfH
	DB	0e7H
	DB	0ebH
	DB	045H
	DB	0a3H
	DB	0d1H
	DB	020H
	DB	0c3H
	DB	030H
	DB	093H
	DB	03cH
	DB	0cfH
	DB	07fH
	DB	0e7H
	DB	051H
	DB	0e3H
	DB	0cfH
	DB	04H
	DB	060H
	DB	059H
	DB	096H
	DB	024H
	DB	012H
	DB	09H
	DB	092H
	DB	0cdH
	DB	066H
	DB	07fH
	DB	094H
	DB	04aH
	DB	0a5H
	DB	0eeH
	DB	086H
	DB	0c3H
	DB	0e1H
	DB	038H
	DB	04dH
	DB	0d3H
	DB	09aH
	DB	0d7H
	DB	0ebH
	DB	085H
	DB	0cfH
	DB	0ebH
	DB	083H
	DB	06fH
	DB	0c7H
	DB	07H
	DB	09aH
	DB	0a6H
	DB	08fH
	DB	069H
	DB	09aH
	DB	06eH
	DB	0f9H
	DB	07cH
	DB	0beH
	DB	0baH
	DB	0d7H
	DB	0ebH
	DB	095H
	DB	076H
	DB	076H
	DB	076H
	DB	098H
	DB	0ddH
	DB	0ddH
	DB	0ddH
	DB	048H
	DB	028H
	DB	014H
	DB	072H
	DB	0c6H
	DB	0e3H
	DB	0f1H
	DB	0fH
	DB	073H
	DB	0b9H
	DB	0dcH
	DB	02fH
	DB	08aH
	DB	0c5H
	DB	022H
	DB	029H
	DB	014H
	DB	0aH
	DB	04fH
	DB	034H
	DB	0ffH
	DB	05cH
	DB	00H
	DB	099H
	DB	04cH
	DB	0e6H
	DB	099H
	DB	042H
	DB	0a1H
	DB	0f0H
	DB	0b5H
	DB	07cH
	DB	03eH
	DB	0ffH
	DB	0b3H
	DB	064H
	DB	032H
	DB	079H
	DB	025H
	DB	016H
	DB	08bH
	DB	0b9H
	DB	0c2H
	DB	0a1H
	DB	070H
	DB	02cH
	DB	010H
	DB	08H
	DB	0ecH
	DB	0f9H
	DB	0fdH
	DB	0feH
	DB	0dH
	DB	0bfH
	DB	0dfH
	DB	0ffH
	DB	0d1H
	DB	0deH
	DB	0deH
	DB	0deH
	DB	074H
	DB	038H
	DB	01cH
	DB	0feH
	DB	047H
	DB	02cH
	DB	016H
	DB	0fbH
	DB	07dH
	DB	02aH
	DB	095H
	DB	0faH
	DB	071H
	DB	02aH
	DB	095H
	DB	07aH
	DB	025H
	DB	01eH
	DB	08fH
	DB	07fH
	DB	025H
	DB	097H
	DB	0cbH
	DB	03dH
	DB	02bH
	DB	08aH
	DB	0e2H
	DB	053H
	DB	01H
	DB	0feH
	DB	03bH
	DB	00H
	DB	0efH
	DB	09aH
	DB	049H
	DB	0f3H
	DB	065H
	DB	037H
	DB	0faH
	DB	0edH
	DB	00H
	DB	00H
	DB	00H
	DB	00H
	DB	049H
	DB	045H
	DB	04eH
	DB	044H
	DB	0aeH
	DB	042H
	DB	060H
	DB	082H
	ORG $+2
?qt_resource_name@@3QBEB DB 00H				; qt_resource_name
	DB	05H
	DB	00H
	DB	070H
	DB	037H
	DB	0d5H
	DB	00H
	DB	069H
	DB	00H
	DB	06dH
	DB	00H
	DB	061H
	DB	00H
	DB	067H
	DB	00H
	DB	065H
	DB	00H
	DB	08H
	DB	04H
	DB	061H
	DB	05dH
	DB	047H
	DB	00H
	DB	049H
	DB	00H
	DB	06fH
	DB	00H
	DB	04fH
	DB	00H
	DB	06eH
	DB	00H
	DB	02eH
	DB	00H
	DB	070H
	DB	00H
	DB	06eH
	DB	00H
	DB	067H
	DB	00H
	DB	09H
	DB	05H
	DB	0c9H
	DB	0f7H
	DB	0c7H
	DB	00H
	DB	049H
	DB	00H
	DB	06fH
	DB	00H
	DB	04fH
	DB	00H
	DB	066H
	DB	00H
	DB	066H
	DB	00H
	DB	02eH
	DB	00H
	DB	070H
	DB	00H
	DB	06eH
	DB	00H
	DB	067H
	ORG $+2
?qt_resource_struct@@3QBEB DB 00H			; qt_resource_struct
	DB	00H
	DB	00H
	DB	00H
	DB	00H
	DB	02H
	DB	00H
	DB	00H
	DB	00H
	DB	01H
	DB	00H
	DB	00H
	DB	00H
	DB	01H
	DB	00H
	DB	00H
	DB	00H
	DB	00H
	DB	00H
	DB	00H
	DB	00H
	DB	00H
	DB	00H
	DB	00H
	DB	00H
	DB	00H
	DB	00H
	DB	02H
	DB	00H
	DB	00H
	DB	00H
	DB	02H
	DB	00H
	DB	00H
	DB	00H
	DB	02H
	DB	00H
	DB	00H
	DB	00H
	DB	00H
	DB	00H
	DB	00H
	DB	00H
	DB	00H
	DB	00H
	DB	00H
	DB	00H
	DB	010H
	DB	00H
	DB	00H
	DB	00H
	DB	00H
	DB	00H
	DB	01H
	DB	00H
	DB	00H
	DB	00H
	DB	00H
	DB	00H
	DB	00H
	DB	01H
	DB	063H
	DB	05dH
	DB	0ccH
	DB	0fcH
	DB	08dH
	DB	00H
	DB	00H
	DB	00H
	DB	026H
	DB	00H
	DB	00H
	DB	00H
	DB	00H
	DB	00H
	DB	01H
	DB	00H
	DB	00H
	DB	017H
	DB	01cH
	DB	00H
	DB	00H
	DB	01H
	DB	063H
	DB	05dH
	DB	0ccH
	DB	0fcH
	DB	08bH
CONST	ENDS
PUBLIC	?qInitResources_image@@YAHXZ			; qInitResources_image
PUBLIC	?qCleanupResources_image@@YAHXZ			; qCleanupResources_image
PUBLIC	?dummy@?A0x6790a05e@@3Uinitializer@1@A		; `anonymous namespace'::dummy
EXTRN	atexit:PROC
EXTRN	?qRegisterResourceData@@YA_NHPEBE00@Z:PROC	; qRegisterResourceData
EXTRN	?qUnregisterResourceData@@YA_NHPEBE00@Z:PROC	; qUnregisterResourceData
EXTRN	__CxxFrameHandler3:PROC
_BSS	SEGMENT
?dummy@?A0x6790a05e@@3Uinitializer@1@A DB 01H DUP (?)	; `anonymous namespace'::dummy
_BSS	ENDS
pdata	SEGMENT
$pdata$?qInitResources_image@@YAHXZ DD imagerel $LN3
	DD	imagerel $LN3+45
	DD	imagerel $unwind$?qInitResources_image@@YAHXZ
$pdata$?qCleanupResources_image@@YAHXZ DD imagerel $LN3
	DD	imagerel $LN3+45
	DD	imagerel $unwind$?qCleanupResources_image@@YAHXZ
pdata	ENDS
;	COMDAT pdata
pdata	SEGMENT
$pdata$??0initializer@?A0x6790a05e@@QEAA@XZ DD imagerel ??0initializer@?A0x6790a05e@@QEAA@XZ
	DD	imagerel ??0initializer@?A0x6790a05e@@QEAA@XZ+24
	DD	imagerel $unwind$??0initializer@?A0x6790a05e@@QEAA@XZ
pdata	ENDS
;	COMDAT pdata
pdata	SEGMENT
$pdata$??1initializer@?A0x6790a05e@@QEAA@XZ DD imagerel ??1initializer@?A0x6790a05e@@QEAA@XZ
	DD	imagerel ??1initializer@?A0x6790a05e@@QEAA@XZ+29
	DD	imagerel $unwind$??1initializer@?A0x6790a05e@@QEAA@XZ
pdata	ENDS
;	COMDAT pdata
pdata	SEGMENT
$pdata$??__Edummy@?A0x6790a05e@@YAXXZ DD imagerel ??__Edummy@?A0x6790a05e@@YAXXZ
	DD	imagerel ??__Edummy@?A0x6790a05e@@YAXXZ+33
	DD	imagerel $unwind$??__Edummy@?A0x6790a05e@@YAXXZ
pdata	ENDS
;	COMDAT pdata
pdata	SEGMENT
$pdata$??__Fdummy@?A0x6790a05e@@YAXXZ DD imagerel ??__Fdummy@?A0x6790a05e@@YAXXZ
	DD	imagerel ??__Fdummy@?A0x6790a05e@@YAXXZ+21
	DD	imagerel $unwind$??__Fdummy@?A0x6790a05e@@YAXXZ
pdata	ENDS
CRT$XCU	SEGMENT
?dummy$initializer$@?A0x6790a05e@@3P6AXXZEA DQ FLAT:??__Edummy@?A0x6790a05e@@YAXXZ ; `anonymous namespace'::dummy$initializer$
CRT$XCU	ENDS
;	COMDAT xdata
xdata	SEGMENT
$unwind$??__Fdummy@?A0x6790a05e@@YAXXZ DD 010401H
	DD	04204H
xdata	ENDS
;	COMDAT xdata
xdata	SEGMENT
$unwind$??__Edummy@?A0x6790a05e@@YAXXZ DD 010401H
	DD	04204H
xdata	ENDS
;	COMDAT xdata
xdata	SEGMENT
$ip2state$??1initializer@?A0x6790a05e@@QEAA@XZ DD imagerel ??1initializer@?A0x6790a05e@@QEAA@XZ
	DD	0ffffffffH
xdata	ENDS
;	COMDAT CONST
CONST	SEGMENT
$cppxdata$??1initializer@?A0x6790a05e@@QEAA@XZ DD 019930522H
	DD	00H
	DD	00H
	DD	00H
	DD	00H
	DD	01H
	DD	imagerel $ip2state$??1initializer@?A0x6790a05e@@QEAA@XZ
	DD	020H
	DD	00H
	DD	05H
CONST	ENDS
;	COMDAT xdata
xdata	SEGMENT
$unwind$??1initializer@?A0x6790a05e@@QEAA@XZ DD 011219H
	DD	06209H
	DD	imagerel __CxxFrameHandler3
	DD	imagerel $cppxdata$??1initializer@?A0x6790a05e@@QEAA@XZ
xdata	ENDS
;	COMDAT xdata
xdata	SEGMENT
$unwind$??0initializer@?A0x6790a05e@@QEAA@XZ DD 010901H
	DD	04209H
xdata	ENDS
xdata	SEGMENT
$unwind$?qInitResources_image@@YAHXZ DD 010401H
	DD	04204H
$unwind$?qCleanupResources_image@@YAHXZ DD 010401H
	DD	04204H
xdata	ENDS
; Function compile flags: /Odtp
;	COMDAT ??__Fdummy@?A0x6790a05e@@YAXXZ
text$yd	SEGMENT
??__Fdummy@?A0x6790a05e@@YAXXZ PROC			; `anonymous namespace'::`dynamic atexit destructor for 'dummy'', COMDAT
	sub	rsp, 40					; 00000028H
	lea	rcx, OFFSET FLAT:?dummy@?A0x6790a05e@@3Uinitializer@1@A ; `anonymous namespace'::dummy
	call	??1initializer@?A0x6790a05e@@QEAA@XZ	; `anonymous namespace'::initializer::~initializer
	add	rsp, 40					; 00000028H
	ret	0
??__Fdummy@?A0x6790a05e@@YAXXZ ENDP			; `anonymous namespace'::`dynamic atexit destructor for 'dummy''
text$yd	ENDS
; Function compile flags: /Odtp
;	COMDAT ??__Edummy@?A0x6790a05e@@YAXXZ
text$di	SEGMENT
??__Edummy@?A0x6790a05e@@YAXXZ PROC			; `anonymous namespace'::`dynamic initializer for 'dummy'', COMDAT
; File e:\g12_work\weidali_code\b\g12_4_b\ui\src\customsettingplugin\x64\debug\rcc\qrc_image.cpp
; Line 799
	sub	rsp, 40					; 00000028H
	lea	rcx, OFFSET FLAT:?dummy@?A0x6790a05e@@3Uinitializer@1@A ; `anonymous namespace'::dummy
	call	??0initializer@?A0x6790a05e@@QEAA@XZ	; `anonymous namespace'::initializer::initializer
	lea	rcx, OFFSET FLAT:??__Fdummy@?A0x6790a05e@@YAXXZ ; `anonymous namespace'::`dynamic atexit destructor for 'dummy''
	call	atexit
	add	rsp, 40					; 00000028H
	ret	0
??__Edummy@?A0x6790a05e@@YAXXZ ENDP			; `anonymous namespace'::`dynamic initializer for 'dummy''
text$di	ENDS
; Function compile flags: /Odtp
;	COMDAT ??1initializer@?A0x6790a05e@@QEAA@XZ
_TEXT	SEGMENT
$T1 = 32
this$ = 64
??1initializer@?A0x6790a05e@@QEAA@XZ PROC		; `anonymous namespace'::initializer::~initializer, COMDAT
; File e:\g12_work\weidali_code\b\g12_4_b\ui\src\customsettingplugin\x64\debug\rcc\qrc_image.cpp
; Line 798
	mov	QWORD PTR [rsp+8], rcx
	sub	rsp, 56					; 00000038H
	mov	QWORD PTR $T1[rsp], -2
	call	?qCleanupResources_image@@YAHXZ		; qCleanupResources_image
	npad	1
	add	rsp, 56					; 00000038H
	ret	0
??1initializer@?A0x6790a05e@@QEAA@XZ ENDP		; `anonymous namespace'::initializer::~initializer
_TEXT	ENDS
; Function compile flags: /Odtp
;	COMDAT ??0initializer@?A0x6790a05e@@QEAA@XZ
_TEXT	SEGMENT
this$ = 48
??0initializer@?A0x6790a05e@@QEAA@XZ PROC		; `anonymous namespace'::initializer::initializer, COMDAT
; File e:\g12_work\weidali_code\b\g12_4_b\ui\src\customsettingplugin\x64\debug\rcc\qrc_image.cpp
; Line 797
	mov	QWORD PTR [rsp+8], rcx
	sub	rsp, 40					; 00000028H
	call	?qInitResources_image@@YAHXZ		; qInitResources_image
	mov	rax, QWORD PTR this$[rsp]
	add	rsp, 40					; 00000028H
	ret	0
??0initializer@?A0x6790a05e@@QEAA@XZ ENDP		; `anonymous namespace'::initializer::initializer
_TEXT	ENDS
; Function compile flags: /Odtp
_TEXT	SEGMENT
?qCleanupResources_image@@YAHXZ PROC			; qCleanupResources_image
; File e:\g12_work\weidali_code\b\g12_4_b\ui\src\customsettingplugin\x64\debug\rcc\qrc_image.cpp
; Line 789
$LN3:
	sub	rsp, 40					; 00000028H
; Line 790
	lea	r9, OFFSET FLAT:?qt_resource_data@@3QBEB
	lea	r8, OFFSET FLAT:?qt_resource_name@@3QBEB
	lea	rdx, OFFSET FLAT:?qt_resource_struct@@3QBEB
	mov	ecx, 2
	call	?qUnregisterResourceData@@YA_NHPEBE00@Z	; qUnregisterResourceData
; Line 792
	mov	eax, 1
; Line 793
	add	rsp, 40					; 00000028H
	ret	0
?qCleanupResources_image@@YAHXZ ENDP			; qCleanupResources_image
_TEXT	ENDS
; Function compile flags: /Odtp
_TEXT	SEGMENT
?qInitResources_image@@YAHXZ PROC			; qInitResources_image
; File e:\g12_work\weidali_code\b\g12_4_b\ui\src\customsettingplugin\x64\debug\rcc\qrc_image.cpp
; Line 781
$LN3:
	sub	rsp, 40					; 00000028H
; Line 782
	lea	r9, OFFSET FLAT:?qt_resource_data@@3QBEB
	lea	r8, OFFSET FLAT:?qt_resource_name@@3QBEB
	lea	rdx, OFFSET FLAT:?qt_resource_struct@@3QBEB
	mov	ecx, 2
	call	?qRegisterResourceData@@YA_NHPEBE00@Z	; qRegisterResourceData
; Line 784
	mov	eax, 1
; Line 785
	add	rsp, 40					; 00000028H
	ret	0
?qInitResources_image@@YAHXZ ENDP			; qInitResources_image
_TEXT	ENDS
END
