; Listing generated by Microsoft (R) Optimizing Compiler Version 19.00.24215.1 

include listing.inc

INCLUDELIB MSVCRTD
INCLUDELIB OLDNAMES

CONST	SEGMENT
$SG291844 DB	'C:\Qt\Qt5.9.3\5.9.3\msvc2015_64\include\QtCore/qmetatype'
	DB	'.h', 00H
	ORG $+5
$SG291845 DB	'qRegisterNormalizedMetaType was called with a not normal'
	DB	'ized type name, please call qRegisterMetaType instead.', 00H
	ORG $+1
$SG291846 DB	'qRegisterNormalizedMetaType', 00H
	ORG $+4
?qt_meta_stringdata_CUsermanagementuiDlg@@3Uqt_meta_stringdata_CUsermanagementuiDlg_t@@B DD 0ffffffffH ; qt_meta_stringdata_CUsermanagementuiDlg
	DD	014H
	DD	00H
	ORG $+4
	DQ	0000000000000090H
	DD	0ffffffffH
	DD	013H
	DD	00H
	ORG $+4
	DQ	000000000000008dH
	DD	0ffffffffH
	DD	00H
	DD	00H
	ORG $+4
	DQ	0000000000000089H
	DD	0ffffffffH
	DD	08H
	DD	00H
	ORG $+4
	DQ	0000000000000072H
	DD	0ffffffffH
	DD	018H
	DD	00H
	ORG $+4
	DQ	0000000000000063H
	DD	0ffffffffH
	DD	012H
	DD	00H
	ORG $+4
	DQ	0000000000000064H
	DB	'CUsermanagementuiDlg', 00H, 'on_btnLogin_clicked', 00H, 00H
	DB	'bChecked', 00H, 'on_btnCompetence_clicked', 00H, 'on_btnUser_'
	DB	'clicked', 00H
	ORG $+1
$SG292945 DB	'C:\Qt\Qt5.9.3\5.9.3\msvc2015_64\include\QtCore/qmetatype'
	DB	'.h', 00H
	ORG $+5
$SG292946 DB	'qRegisterNormalizedMetaType was called with a not normal'
	DB	'ized type name, please call qRegisterMetaType instead.', 00H
	ORG $+1
$SG292947 DB	'qRegisterNormalizedMetaType', 00H
	ORG $+4
?qt_meta_data_CUsermanagementuiDlg@@3QBIB DD 07H	; qt_meta_data_CUsermanagementuiDlg
	DD	00H
	DD	00H
	DD	00H
	DD	03H
	DD	0eH
	DD	00H
	DD	00H
	DD	00H
	DD	00H
	DD	00H
	DD	00H
	DD	00H
	DD	00H
	DD	01H
	DD	01H
	DD	01dH
	DD	02H
	DD	08H
	DD	04H
	DD	00H
	DD	020H
	DD	02H
	DD	08H
	DD	05H
	DD	00H
	DD	021H
	DD	02H
	DD	08H
	DD	02bH
	DD	01H
	DD	03H
	DD	02bH
	DD	02bH
	DD	00H
	ORG $+4
$SG293989 DB	'C:\Qt\Qt5.9.3\5.9.3\msvc2015_64\include\QtCore/qmetatype'
	DB	'.h', 00H
	ORG $+5
$SG293990 DB	'qRegisterNormalizedMetaType was called with a not normal'
	DB	'ized type name, please call qRegisterMetaType instead.', 00H
	ORG $+1
$SG293991 DB	'qRegisterNormalizedMetaType', 00H
	ORG $+4
$SG295095 DB	'C:\Qt\Qt5.9.3\5.9.3\msvc2015_64\include\QtCore/qmetatype'
	DB	'.h', 00H
	ORG $+5
$SG263351 DB	'Ui::usermanagementuiDlg', 00H
$SG285066 DB	'!x->ref.isStatic()', 00H
	ORG $+5
$SG295096 DB	'qRegisterNormalizedMetaType was called with a not normal'
	DB	'ized type name, please call qRegisterMetaType instead.', 00H
	ORG $+1
$SG295097 DB	'qRegisterNormalizedMetaType', 00H
	ORG $+4
$SG286963 DB	'C:\Qt\Qt5.9.3\5.9.3\msvc2015_64\include\QtCore/qmetatype'
	DB	'.h', 00H
	ORG $+5
$SG286964 DB	'qRegisterNormalizedMetaType was called with a not normal'
	DB	'ized type name, please call qRegisterMetaType instead.', 00H
	ORG $+1
$SG286965 DB	'qRegisterNormalizedMetaType', 00H
	ORG $+4
$SG296201 DB	'C:\Qt\Qt5.9.3\5.9.3\msvc2015_64\include\QtCore/qmetatype'
	DB	'.h', 00H
	ORG $+5
$SG296202 DB	'qRegisterNormalizedMetaType was called with a not normal'
	DB	'ized type name, please call qRegisterMetaType instead.', 00H
	ORG $+1
$SG296203 DB	'qRegisterNormalizedMetaType', 00H
	ORG $+4
$SG290074 DB	'C:\Qt\Qt5.9.3\5.9.3\msvc2015_64\include\QtCore/qmetatype'
	DB	'.h', 00H
	ORG $+5
$SG290075 DB	'qRegisterNormalizedMetaType was called with a not normal'
	DB	'ized type name, please call qRegisterMetaType instead.', 00H
	ORG $+1
$SG290076 DB	'qRegisterNormalizedMetaType', 00H
	ORG $+4
$SG291110 DB	'C:\Qt\Qt5.9.3\5.9.3\msvc2015_64\include\QtCore/qmetatype'
	DB	'.h', 00H
	ORG $+5
$SG291111 DB	'qRegisterNormalizedMetaType was called with a not normal'
	DB	'ized type name, please call qRegisterMetaType instead.', 00H
	ORG $+1
$SG291112 DB	'qRegisterNormalizedMetaType', 00H
	ORG $+4
$SG297302 DB	'C:\Qt\Qt5.9.3\5.9.3\msvc2015_64\include\QtCore/qmetatype'
	DB	'.h', 00H
	ORG $+5
$SG297303 DB	'qRegisterNormalizedMetaType was called with a not normal'
	DB	'ized type name, please call qRegisterMetaType instead.', 00H
	ORG $+1
$SG297304 DB	'qRegisterNormalizedMetaType', 00H
	ORG $+4
$SG292211 DB	'C:\Qt\Qt5.9.3\5.9.3\msvc2015_64\include\QtCore/qmetatype'
	DB	'.h', 00H
	ORG $+5
$SG292212 DB	'qRegisterNormalizedMetaType was called with a not normal'
	DB	'ized type name, please call qRegisterMetaType instead.', 00H
	ORG $+1
$SG292213 DB	'qRegisterNormalizedMetaType', 00H
	ORG $+4
$SG289142 DB	'C:\Qt\Qt5.9.3\5.9.3\msvc2015_64\include\QtCore/qmetatype'
	DB	'.h', 00H
	ORG $+5
$SG289143 DB	'qRegisterNormalizedMetaType was called with a not normal'
	DB	'ized type name, please call qRegisterMetaType instead.', 00H
	ORG $+1
$SG289144 DB	'qRegisterNormalizedMetaType', 00H
	ORG $+4
$SG288124 DB	'C:\Qt\Qt5.9.3\5.9.3\msvc2015_64\include\QtCore/qmetatype'
	DB	'.h', 00H
	ORG $+5
$SG288125 DB	'qRegisterNormalizedMetaType was called with a not normal'
	DB	'ized type name, please call qRegisterMetaType instead.', 00H
	ORG $+1
$SG288126 DB	'qRegisterNormalizedMetaType', 00H
	ORG $+4
$SG285054 DB	'C:\Qt\Qt5.9.3\5.9.3\msvc2015_64\include\QtCore/qvector.h'
	DB	00H
	ORG $+3
$SG285078 DB	'x == d', 00H
	ORG $+5
$SG285055 DB	'asize >= 0 && asize <= aalloc', 00H
	ORG $+2
$SG285063 DB	'C:\Qt\Qt5.9.3\5.9.3\msvc2015_64\include\QtCore/qvector.h'
	DB	00H
	ORG $+7
$SG285074 DB	'int(d->alloc) == aalloc', 00H
$SG285064 DB	'x->ref.isSharable() || options.testFlag(QArrayData::Unsh'
	DB	'arable)', 00H
$SG285065 DB	'C:\Qt\Qt5.9.3\5.9.3\msvc2015_64\include\QtCore/qvector.h'
	DB	00H
	ORG $+7
$SG285073 DB	'C:\Qt\Qt5.9.3\5.9.3\msvc2015_64\include\QtCore/qvector.h'
	DB	00H
	ORG $+7
$SG285075 DB	'C:\Qt\Qt5.9.3\5.9.3\msvc2015_64\include\QtCore/qvector.h'
	DB	00H
	ORG $+7
$SG285076 DB	'isDetached()', 00H
	ORG $+3
$SG285077 DB	'C:\Qt\Qt5.9.3\5.9.3\msvc2015_64\include\QtCore/qvector.h'
	DB	00H
	ORG $+7
$SG294299 DB	'C:\Qt\Qt5.9.3\5.9.3\msvc2015_64\include\QtCore/qmetatype'
	DB	'.h', 00H
	ORG $+5
$SG294300 DB	'qRegisterNormalizedMetaType was called with a not normal'
	DB	'ized type name, please call qRegisterMetaType instead.', 00H
	ORG $+1
$SG294301 DB	'qRegisterNormalizedMetaType', 00H
	ORG $+4
$SG285086 DB	'C:\Qt\Qt5.9.3\5.9.3\msvc2015_64\include\QtCore/qvector.h'
	DB	00H
	ORG $+7
$SG285087 DB	'd->data()', 00H
	ORG $+6
$SG285088 DB	'C:\Qt\Qt5.9.3\5.9.3\msvc2015_64\include\QtCore/qvector.h'
	DB	00H
	ORG $+7
$SG285089 DB	'uint(d->size) <= d->alloc', 00H
	ORG $+6
$SG285090 DB	'C:\Qt\Qt5.9.3\5.9.3\msvc2015_64\include\QtCore/qvector.h'
	DB	00H
	ORG $+7
$SG285091 DB	'd != Data::unsharableEmpty()', 00H
	ORG $+3
$SG285092 DB	'C:\Qt\Qt5.9.3\5.9.3\msvc2015_64\include\QtCore/qvector.h'
	DB	00H
	ORG $+7
$SG285093 DB	'aalloc ? d != Data::sharedNull() : d == Data::sharedNull'
	DB	'()', 00H
	ORG $+5
$SG285094 DB	'C:\Qt\Qt5.9.3\5.9.3\msvc2015_64\include\QtCore/qvector.h'
	DB	00H
	ORG $+7
$SG285095 DB	'd->alloc >= uint(aalloc)', 00H
	ORG $+7
$SG285096 DB	'C:\Qt\Qt5.9.3\5.9.3\msvc2015_64\include\QtCore/qvector.h'
	DB	00H
	ORG $+7
$SG285097 DB	'd->size == asize', 00H
	ORG $+7
$SG293312 DB	'C:\Qt\Qt5.9.3\5.9.3\msvc2015_64\include\QtCore/qmetatype'
	DB	'.h', 00H
	ORG $+13
$SG293313 DB	'qRegisterNormalizedMetaType was called with a not normal'
	DB	'ized type name, please call qRegisterMetaType instead.', 00H
	ORG $+1
$SG293314 DB	'qRegisterNormalizedMetaType', 00H
	ORG $+4
$SG295405 DB	'C:\Qt\Qt5.9.3\5.9.3\msvc2015_64\include\QtCore/qmetatype'
	DB	'.h', 00H
	ORG $+5
$SG295406 DB	'qRegisterNormalizedMetaType was called with a not normal'
	DB	'ized type name, please call qRegisterMetaType instead.', 00H
	ORG $+1
$SG295407 DB	'qRegisterNormalizedMetaType', 00H
	ORG $+4
$SG287273 DB	'C:\Qt\Qt5.9.3\5.9.3\msvc2015_64\include\QtCore/qmetatype'
	DB	'.h', 00H
	ORG $+5
$SG287274 DB	'qRegisterNormalizedMetaType was called with a not normal'
	DB	'ized type name, please call qRegisterMetaType instead.', 00H
	ORG $+1
$SG287275 DB	'qRegisterNormalizedMetaType', 00H
	ORG $+4
$SG296511 DB	'C:\Qt\Qt5.9.3\5.9.3\msvc2015_64\include\QtCore/qmetatype'
	DB	'.h', 00H
	ORG $+5
$SG296512 DB	'qRegisterNormalizedMetaType was called with a not normal'
	DB	'ized type name, please call qRegisterMetaType instead.', 00H
	ORG $+1
$SG296513 DB	'qRegisterNormalizedMetaType', 00H
	ORG $+4
$SG290384 DB	'C:\Qt\Qt5.9.3\5.9.3\msvc2015_64\include\QtCore/qmetatype'
	DB	'.h', 00H
	ORG $+5
$SG290385 DB	'qRegisterNormalizedMetaType was called with a not normal'
	DB	'ized type name, please call qRegisterMetaType instead.', 00H
	ORG $+1
$SG290386 DB	'qRegisterNormalizedMetaType', 00H
	ORG $+4
$SG291477 DB	'C:\Qt\Qt5.9.3\5.9.3\msvc2015_64\include\QtCore/qmetatype'
	DB	'.h', 00H
	ORG $+5
$SG291478 DB	'qRegisterNormalizedMetaType was called with a not normal'
	DB	'ized type name, please call qRegisterMetaType instead.', 00H
	ORG $+1
$SG291479 DB	'qRegisterNormalizedMetaType', 00H
	ORG $+4
$SG289452 DB	'C:\Qt\Qt5.9.3\5.9.3\msvc2015_64\include\QtCore/qmetatype'
	DB	'.h', 00H
	ORG $+5
$SG289453 DB	'qRegisterNormalizedMetaType was called with a not normal'
	DB	'ized type name, please call qRegisterMetaType instead.', 00H
	ORG $+1
$SG289454 DB	'qRegisterNormalizedMetaType', 00H
	ORG $+4
$SG288434 DB	'C:\Qt\Qt5.9.3\5.9.3\msvc2015_64\include\QtCore/qmetatype'
	DB	'.h', 00H
	ORG $+5
$SG288435 DB	'qRegisterNormalizedMetaType was called with a not normal'
	DB	'ized type name, please call qRegisterMetaType instead.', 00H
	ORG $+1
$SG288436 DB	'qRegisterNormalizedMetaType', 00H
	ORG $+4
$SG292578 DB	'C:\Qt\Qt5.9.3\5.9.3\msvc2015_64\include\QtCore/qmetatype'
	DB	'.h', 00H
	ORG $+5
$SG292579 DB	'qRegisterNormalizedMetaType was called with a not normal'
	DB	'ized type name, please call qRegisterMetaType instead.', 00H
	ORG $+1
$SG292580 DB	'qRegisterNormalizedMetaType', 00H
	ORG $+4
$SG294697 DB	'C:\Qt\Qt5.9.3\5.9.3\msvc2015_64\include\QtCore/qmetatype'
	DB	'.h', 00H
	ORG $+5
$SG294698 DB	'qRegisterNormalizedMetaType was called with a not normal'
	DB	'ized type name, please call qRegisterMetaType instead.', 00H
	ORG $+1
$SG294699 DB	'qRegisterNormalizedMetaType', 00H
	ORG $+4
$SG293679 DB	'C:\Qt\Qt5.9.3\5.9.3\msvc2015_64\include\QtCore/qmetatype'
	DB	'.h', 00H
	ORG $+5
$SG293680 DB	'qRegisterNormalizedMetaType was called with a not normal'
	DB	'ized type name, please call qRegisterMetaType instead.', 00H
	ORG $+1
$SG293681 DB	'qRegisterNormalizedMetaType', 00H
	ORG $+4
$SG295803 DB	'C:\Qt\Qt5.9.3\5.9.3\msvc2015_64\include\QtCore/qmetatype'
	DB	'.h', 00H
	ORG $+5
$SG295804 DB	'qRegisterNormalizedMetaType was called with a not normal'
	DB	'ized type name, please call qRegisterMetaType instead.', 00H
	ORG $+1
$SG295805 DB	'qRegisterNormalizedMetaType', 00H
	ORG $+4
$SG290729 DB	'C:\Qt\Qt5.9.3\5.9.3\msvc2015_64\include\QtCore/qmetatype'
	DB	'.h', 00H
	ORG $+5
$SG290730 DB	'qRegisterNormalizedMetaType was called with a not normal'
	DB	'ized type name, please call qRegisterMetaType instead.', 00H
	ORG $+1
$SG290731 DB	'qRegisterNormalizedMetaType', 00H
	ORG $+4
$SG286653 DB	'C:\Qt\Qt5.9.3\5.9.3\msvc2015_64\include\QtCore/qmetatype'
	DB	'.h', 00H
	ORG $+5
$SG286654 DB	'qRegisterNormalizedMetaType was called with a not normal'
	DB	'ized type name, please call qRegisterMetaType instead.', 00H
	ORG $+1
$SG286655 DB	'qRegisterNormalizedMetaType', 00H
	ORG $+4
$SG289762 DB	'C:\Qt\Qt5.9.3\5.9.3\msvc2015_64\include\QtCore/qmetatype'
	DB	'.h', 00H
	ORG $+5
$SG289763 DB	'qRegisterNormalizedMetaType was called with a not normal'
	DB	'ized type name, please call qRegisterMetaType instead.', 00H
	ORG $+1
$SG289764 DB	'qRegisterNormalizedMetaType', 00H
	ORG $+4
$SG288744 DB	'C:\Qt\Qt5.9.3\5.9.3\msvc2015_64\include\QtCore/qmetatype'
	DB	'.h', 00H
	ORG $+5
$SG288745 DB	'qRegisterNormalizedMetaType was called with a not normal'
	DB	'ized type name, please call qRegisterMetaType instead.', 00H
	ORG $+1
$SG288746 DB	'qRegisterNormalizedMetaType', 00H
CONST	ENDS
PUBLIC	?__empty_global_delete@@YAXPEAX@Z		; __empty_global_delete
PUBLIC	?__empty_global_delete@@YAXPEAX_K@Z		; __empty_global_delete
PUBLIC	??C?$QScopedPointer@VQObjectData@@U?$QScopedPointerDeleter@VQObjectData@@@@@@QEBAPEAVQObjectData@@XZ ; QScopedPointer<QObjectData,QScopedPointerDeleter<QObjectData> >::operator->
PUBLIC	?metaObject@CUsermanagementuiDlg@@UEBAPEBUQMetaObject@@XZ ; CUsermanagementuiDlg::metaObject
PUBLIC	?qt_metacast@CUsermanagementuiDlg@@UEAAPEAXPEBD@Z ; CUsermanagementuiDlg::qt_metacast
PUBLIC	?qt_metacall@CUsermanagementuiDlg@@UEAAHW4Call@QMetaObject@@HPEAPEAX@Z ; CUsermanagementuiDlg::qt_metacall
PUBLIC	?qt_static_metacall@CUsermanagementuiDlg@@CAXPEAVQObject@@W4Call@QMetaObject@@HPEAPEAX@Z ; CUsermanagementuiDlg::qt_static_metacall
PUBLIC	?staticMetaObject@CUsermanagementuiDlg@@2UQMetaObject@@B ; CUsermanagementuiDlg::staticMetaObject
EXTRN	strcmp:PROC
EXTRN	__imp_?dynamicMetaObject@QObjectData@@QEBAPEAUQMetaObject@@XZ:PROC
EXTRN	__imp_?qt_metacast@QDialog@@UEAAPEAXPEBD@Z:PROC
EXTRN	__imp_?qt_metacall@QDialog@@UEAAHW4Call@QMetaObject@@HPEAPEAX@Z:PROC
EXTRN	?on_btnLogin_clicked@CUsermanagementuiDlg@@AEAAX_N@Z:PROC ; CUsermanagementuiDlg::on_btnLogin_clicked
EXTRN	?on_btnCompetence_clicked@CUsermanagementuiDlg@@AEAAXXZ:PROC ; CUsermanagementuiDlg::on_btnCompetence_clicked
EXTRN	?on_btnUser_clicked@CUsermanagementuiDlg@@AEAAXXZ:PROC ; CUsermanagementuiDlg::on_btnUser_clicked
EXTRN	__imp_?staticMetaObject@QDialog@@2UQMetaObject@@B:BYTE
_BSS	SEGMENT
?staticMetaObject@CUsermanagementuiDlg@@2UQMetaObject@@B DB 030H DUP (?) ; CUsermanagementuiDlg::staticMetaObject
_BSS	ENDS
pdata	SEGMENT
$pdata$?metaObject@CUsermanagementuiDlg@@UEBAPEBUQMetaObject@@XZ DD imagerel $LN5
	DD	imagerel $LN5+88
	DD	imagerel $unwind$?metaObject@CUsermanagementuiDlg@@UEBAPEBUQMetaObject@@XZ
$pdata$?qt_metacast@CUsermanagementuiDlg@@UEAAPEAXPEBD@Z DD imagerel $LN8
	DD	imagerel $LN8+136
	DD	imagerel $unwind$?qt_metacast@CUsermanagementuiDlg@@UEAAPEAXPEBD@Z
$pdata$?qt_metacall@CUsermanagementuiDlg@@UEAAHW4Call@QMetaObject@@HPEAPEAX@Z DD imagerel $LN9
	DD	imagerel $LN9+174
	DD	imagerel $unwind$?qt_metacall@CUsermanagementuiDlg@@UEAAHW4Call@QMetaObject@@HPEAPEAX@Z
$pdata$?qt_static_metacall@CUsermanagementuiDlg@@CAXPEAVQObject@@W4Call@QMetaObject@@HPEAPEAX@Z DD imagerel $LN10
	DD	imagerel $LN10+131
	DD	imagerel $unwind$?qt_static_metacall@CUsermanagementuiDlg@@CAXPEAVQObject@@W4Call@QMetaObject@@HPEAPEAX@Z
pdata	ENDS
CRT$XCU	SEGMENT
??staticMetaObject$initializer$@CUsermanagementuiDlg@@2P6AXXZEA@@3P6AXXZEA DQ FLAT:??__E?staticMetaObject@CUsermanagementuiDlg@@2UQMetaObject@@B@@YAXXZ ; ??staticMetaObject$initializer$@CUsermanagementuiDlg@@2P6AXXZEA@@3P6AXXZEA
CRT$XCU	ENDS
xdata	SEGMENT
$unwind$?metaObject@CUsermanagementuiDlg@@UEBAPEBUQMetaObject@@XZ DD 010901H
	DD	06209H
$unwind$?qt_metacast@CUsermanagementuiDlg@@UEAAPEAXPEBD@Z DD 010e01H
	DD	0620eH
$unwind$?qt_metacall@CUsermanagementuiDlg@@UEAAHW4Call@QMetaObject@@HPEAPEAX@Z DD 011701H
	DD	04217H
$unwind$?qt_static_metacall@CUsermanagementuiDlg@@CAXPEAVQObject@@W4Call@QMetaObject@@HPEAPEAX@Z DD 011701H
	DD	06217H
xdata	ENDS
; Function compile flags: /Odtp
;	COMDAT ??__E?staticMetaObject@CUsermanagementuiDlg@@2UQMetaObject@@B@@YAXXZ
text$di	SEGMENT
??__E?staticMetaObject@CUsermanagementuiDlg@@2UQMetaObject@@B@@YAXXZ PROC ; `dynamic initializer for 'CUsermanagementuiDlg::staticMetaObject'', COMDAT
; File e:\g12_work\weidali_code\b\g12_4_b\ui\src\usermanagementui\x64\debug\moc\moc_usermanagementuidlg.cpp
; Line 89
	mov	rax, QWORD PTR __imp_?staticMetaObject@QDialog@@2UQMetaObject@@B
	mov	QWORD PTR ?staticMetaObject@CUsermanagementuiDlg@@2UQMetaObject@@B, rax
	lea	rax, OFFSET FLAT:?qt_meta_stringdata_CUsermanagementuiDlg@@3Uqt_meta_stringdata_CUsermanagementuiDlg_t@@B
	mov	QWORD PTR ?staticMetaObject@CUsermanagementuiDlg@@2UQMetaObject@@B+8, rax
; Line 90
	lea	rax, OFFSET FLAT:?qt_meta_data_CUsermanagementuiDlg@@3QBIB
	mov	QWORD PTR ?staticMetaObject@CUsermanagementuiDlg@@2UQMetaObject@@B+16, rax
	lea	rax, OFFSET FLAT:?qt_static_metacall@CUsermanagementuiDlg@@CAXPEAVQObject@@W4Call@QMetaObject@@HPEAPEAX@Z ; CUsermanagementuiDlg::qt_static_metacall
	mov	QWORD PTR ?staticMetaObject@CUsermanagementuiDlg@@2UQMetaObject@@B+24, rax
	mov	QWORD PTR ?staticMetaObject@CUsermanagementuiDlg@@2UQMetaObject@@B+32, 0
	mov	QWORD PTR ?staticMetaObject@CUsermanagementuiDlg@@2UQMetaObject@@B+40, 0
	ret	0
??__E?staticMetaObject@CUsermanagementuiDlg@@2UQMetaObject@@B@@YAXXZ ENDP ; `dynamic initializer for 'CUsermanagementuiDlg::staticMetaObject''
text$di	ENDS
; Function compile flags: /Odtp
_TEXT	SEGMENT
tv69 = 32
_t$1 = 40
_o$ = 64
_c$ = 72
_id$ = 80
_a$ = 88
?qt_static_metacall@CUsermanagementuiDlg@@CAXPEAVQObject@@W4Call@QMetaObject@@HPEAPEAX@Z PROC ; CUsermanagementuiDlg::qt_static_metacall
; File e:\g12_work\weidali_code\b\g12_4_b\ui\src\usermanagementui\x64\debug\moc\moc_usermanagementuidlg.cpp
; Line 75
$LN10:
	mov	QWORD PTR [rsp+32], r9
	mov	DWORD PTR [rsp+24], r8d
	mov	DWORD PTR [rsp+16], edx
	mov	QWORD PTR [rsp+8], rcx
	sub	rsp, 56					; 00000038H
; Line 76
	cmp	DWORD PTR _c$[rsp], 0
	jne	SHORT $LN4@qt_static_
; Line 77
	mov	rax, QWORD PTR _o$[rsp]
	mov	QWORD PTR _t$1[rsp], rax
; Line 79
	mov	eax, DWORD PTR _id$[rsp]
	mov	DWORD PTR tv69[rsp], eax
	cmp	DWORD PTR tv69[rsp], 0
	je	SHORT $LN5@qt_static_
	cmp	DWORD PTR tv69[rsp], 1
	je	SHORT $LN6@qt_static_
	cmp	DWORD PTR tv69[rsp], 2
	je	SHORT $LN7@qt_static_
	jmp	SHORT $LN8@qt_static_
$LN5@qt_static_:
; Line 80
	mov	eax, 8
	imul	rax, rax, 1
	mov	rcx, QWORD PTR _a$[rsp]
	mov	rax, QWORD PTR [rcx+rax]
	movzx	edx, BYTE PTR [rax]
	mov	rcx, QWORD PTR _t$1[rsp]
	call	?on_btnLogin_clicked@CUsermanagementuiDlg@@AEAAX_N@Z ; CUsermanagementuiDlg::on_btnLogin_clicked
	jmp	SHORT $LN2@qt_static_
$LN6@qt_static_:
; Line 81
	mov	rcx, QWORD PTR _t$1[rsp]
	call	?on_btnCompetence_clicked@CUsermanagementuiDlg@@AEAAXXZ ; CUsermanagementuiDlg::on_btnCompetence_clicked
	jmp	SHORT $LN2@qt_static_
$LN7@qt_static_:
; Line 82
	mov	rcx, QWORD PTR _t$1[rsp]
	call	?on_btnUser_clicked@CUsermanagementuiDlg@@AEAAXXZ ; CUsermanagementuiDlg::on_btnUser_clicked
$LN8@qt_static_:
$LN2@qt_static_:
$LN4@qt_static_:
; Line 86
	add	rsp, 56					; 00000038H
	ret	0
?qt_static_metacall@CUsermanagementuiDlg@@CAXPEAVQObject@@W4Call@QMetaObject@@HPEAPEAX@Z ENDP ; CUsermanagementuiDlg::qt_static_metacall
_TEXT	ENDS
; Function compile flags: /Odtp
_TEXT	SEGMENT
this$ = 48
_c$ = 56
_id$ = 64
_a$ = 72
?qt_metacall@CUsermanagementuiDlg@@UEAAHW4Call@QMetaObject@@HPEAPEAX@Z PROC ; CUsermanagementuiDlg::qt_metacall
; File e:\g12_work\weidali_code\b\g12_4_b\ui\src\usermanagementui\x64\debug\moc\moc_usermanagementuidlg.cpp
; Line 110
$LN9:
	mov	QWORD PTR [rsp+32], r9
	mov	DWORD PTR [rsp+24], r8d
	mov	DWORD PTR [rsp+16], edx
	mov	QWORD PTR [rsp+8], rcx
	sub	rsp, 40					; 00000028H
; Line 111
	mov	r9, QWORD PTR _a$[rsp]
	mov	r8d, DWORD PTR _id$[rsp]
	mov	edx, DWORD PTR _c$[rsp]
	mov	rcx, QWORD PTR this$[rsp]
	call	QWORD PTR __imp_?qt_metacall@QDialog@@UEAAHW4Call@QMetaObject@@HPEAPEAX@Z
	mov	DWORD PTR _id$[rsp], eax
; Line 112
	cmp	DWORD PTR _id$[rsp], 0
	jge	SHORT $LN2@qt_metacal
; Line 113
	mov	eax, DWORD PTR _id$[rsp]
	jmp	SHORT $LN1@qt_metacal
$LN2@qt_metacal:
; Line 114
	cmp	DWORD PTR _c$[rsp], 0
	jne	SHORT $LN3@qt_metacal
; Line 115
	cmp	DWORD PTR _id$[rsp], 3
	jge	SHORT $LN5@qt_metacal
; Line 116
	mov	r9, QWORD PTR _a$[rsp]
	mov	r8d, DWORD PTR _id$[rsp]
	mov	edx, DWORD PTR _c$[rsp]
	mov	rcx, QWORD PTR this$[rsp]
	call	?qt_static_metacall@CUsermanagementuiDlg@@CAXPEAVQObject@@W4Call@QMetaObject@@HPEAPEAX@Z ; CUsermanagementuiDlg::qt_static_metacall
$LN5@qt_metacal:
; Line 117
	mov	eax, DWORD PTR _id$[rsp]
	sub	eax, 3
	mov	DWORD PTR _id$[rsp], eax
	jmp	SHORT $LN4@qt_metacal
$LN3@qt_metacal:
; Line 118
	cmp	DWORD PTR _c$[rsp], 12
	jne	SHORT $LN6@qt_metacal
; Line 119
	cmp	DWORD PTR _id$[rsp], 3
	jge	SHORT $LN7@qt_metacal
; Line 120
	mov	eax, 8
	imul	rax, rax, 0
	mov	rcx, QWORD PTR _a$[rsp]
	mov	rax, QWORD PTR [rcx+rax]
	mov	DWORD PTR [rax], -1
$LN7@qt_metacal:
; Line 121
	mov	eax, DWORD PTR _id$[rsp]
	sub	eax, 3
	mov	DWORD PTR _id$[rsp], eax
$LN6@qt_metacal:
$LN4@qt_metacal:
; Line 123
	mov	eax, DWORD PTR _id$[rsp]
$LN1@qt_metacal:
; Line 124
	add	rsp, 40					; 00000028H
	ret	0
?qt_metacall@CUsermanagementuiDlg@@UEAAHW4Call@QMetaObject@@HPEAPEAX@Z ENDP ; CUsermanagementuiDlg::qt_metacall
_TEXT	ENDS
; Function compile flags: /Odtp
_TEXT	SEGMENT
tv77 = 32
this$ = 64
_clname$ = 72
?qt_metacast@CUsermanagementuiDlg@@UEAAPEAXPEBD@Z PROC	; CUsermanagementuiDlg::qt_metacast
; File e:\g12_work\weidali_code\b\g12_4_b\ui\src\usermanagementui\x64\debug\moc\moc_usermanagementuidlg.cpp
; Line 100
$LN8:
	mov	QWORD PTR [rsp+16], rdx
	mov	QWORD PTR [rsp+8], rcx
	sub	rsp, 56					; 00000038H
; Line 101
	cmp	QWORD PTR _clname$[rsp], 0
	jne	SHORT $LN2@qt_metacas
	xor	eax, eax
	jmp	SHORT $LN1@qt_metacas
$LN2@qt_metacas:
; Line 102
	lea	rdx, OFFSET FLAT:?qt_meta_stringdata_CUsermanagementuiDlg@@3Uqt_meta_stringdata_CUsermanagementuiDlg_t@@B+144
	mov	rcx, QWORD PTR _clname$[rsp]
	call	strcmp
	test	eax, eax
	jne	SHORT $LN3@qt_metacas
; Line 103
	mov	rax, QWORD PTR this$[rsp]
	jmp	SHORT $LN1@qt_metacas
$LN3@qt_metacas:
; Line 104
	lea	rdx, OFFSET FLAT:$SG263351
	mov	rcx, QWORD PTR _clname$[rsp]
	call	strcmp
	test	eax, eax
	jne	SHORT $LN4@qt_metacas
; Line 105
	cmp	QWORD PTR this$[rsp], 0
	je	SHORT $LN6@qt_metacas
	mov	rax, QWORD PTR this$[rsp]
	add	rax, 48					; 00000030H
	mov	QWORD PTR tv77[rsp], rax
	jmp	SHORT $LN7@qt_metacas
$LN6@qt_metacas:
	mov	QWORD PTR tv77[rsp], 0
$LN7@qt_metacas:
	mov	rax, QWORD PTR tv77[rsp]
	jmp	SHORT $LN1@qt_metacas
$LN4@qt_metacas:
; Line 106
	mov	rdx, QWORD PTR _clname$[rsp]
	mov	rcx, QWORD PTR this$[rsp]
	call	QWORD PTR __imp_?qt_metacast@QDialog@@UEAAPEAXPEBD@Z
$LN1@qt_metacas:
; Line 107
	add	rsp, 56					; 00000038H
	ret	0
?qt_metacast@CUsermanagementuiDlg@@UEAAPEAXPEBD@Z ENDP	; CUsermanagementuiDlg::qt_metacast
_TEXT	ENDS
; Function compile flags: /Odtp
_TEXT	SEGMENT
tv82 = 32
this$ = 64
?metaObject@CUsermanagementuiDlg@@UEBAPEBUQMetaObject@@XZ PROC ; CUsermanagementuiDlg::metaObject
; File e:\g12_work\weidali_code\b\g12_4_b\ui\src\usermanagementui\x64\debug\moc\moc_usermanagementuidlg.cpp
; Line 95
$LN5:
	mov	QWORD PTR [rsp+8], rcx
	sub	rsp, 56					; 00000038H
; Line 96
	mov	rax, QWORD PTR this$[rsp]
	add	rax, 8
	mov	rcx, rax
	call	??C?$QScopedPointer@VQObjectData@@U?$QScopedPointerDeleter@VQObjectData@@@@@@QEBAPEAVQObjectData@@XZ ; QScopedPointer<QObjectData,QScopedPointerDeleter<QObjectData> >::operator->
	cmp	QWORD PTR [rax+40], 0
	je	SHORT $LN3@metaObject
	mov	rax, QWORD PTR this$[rsp]
	add	rax, 8
	mov	rcx, rax
	call	??C?$QScopedPointer@VQObjectData@@U?$QScopedPointerDeleter@VQObjectData@@@@@@QEBAPEAVQObjectData@@XZ ; QScopedPointer<QObjectData,QScopedPointerDeleter<QObjectData> >::operator->
	mov	rcx, rax
	call	QWORD PTR __imp_?dynamicMetaObject@QObjectData@@QEBAPEAUQMetaObject@@XZ
	mov	QWORD PTR tv82[rsp], rax
	jmp	SHORT $LN4@metaObject
$LN3@metaObject:
	lea	rax, OFFSET FLAT:?staticMetaObject@CUsermanagementuiDlg@@2UQMetaObject@@B ; CUsermanagementuiDlg::staticMetaObject
	mov	QWORD PTR tv82[rsp], rax
$LN4@metaObject:
	mov	rax, QWORD PTR tv82[rsp]
; Line 97
	add	rsp, 56					; 00000038H
	ret	0
?metaObject@CUsermanagementuiDlg@@UEBAPEBUQMetaObject@@XZ ENDP ; CUsermanagementuiDlg::metaObject
_TEXT	ENDS
; Function compile flags: /Odtp
;	COMDAT ??C?$QScopedPointer@VQObjectData@@U?$QScopedPointerDeleter@VQObjectData@@@@@@QEBAPEAVQObjectData@@XZ
_TEXT	SEGMENT
this$ = 8
??C?$QScopedPointer@VQObjectData@@U?$QScopedPointerDeleter@VQObjectData@@@@@@QEBAPEAVQObjectData@@XZ PROC ; QScopedPointer<QObjectData,QScopedPointerDeleter<QObjectData> >::operator->, COMDAT
; File c:\qt\qt5.9.3\5.9.3\msvc2015_64\include\qtcore\qscopedpointer.h
; Line 117
	mov	QWORD PTR [rsp+8], rcx
; Line 118
	mov	rax, QWORD PTR this$[rsp]
	mov	rax, QWORD PTR [rax]
; Line 119
	ret	0
??C?$QScopedPointer@VQObjectData@@U?$QScopedPointerDeleter@VQObjectData@@@@@@QEBAPEAVQObjectData@@XZ ENDP ; QScopedPointer<QObjectData,QScopedPointerDeleter<QObjectData> >::operator->
_TEXT	ENDS
; Function compile flags: /Odtp
;	COMDAT ?__empty_global_delete@@YAXPEAX_K@Z
_TEXT	SEGMENT
__formal$ = 8
__formal$ = 16
?__empty_global_delete@@YAXPEAX_K@Z PROC		; __empty_global_delete, COMDAT
; File e:\g12_work\weidali_code\b\g12_4_b\ui\src\usermanagementui\x64\debug\moc\moc_usermanagementuidlg.cpp
; Line 127
	mov	QWORD PTR [rsp+16], rdx
	mov	QWORD PTR [rsp+8], rcx
	ret	0
?__empty_global_delete@@YAXPEAX_K@Z ENDP		; __empty_global_delete
_TEXT	ENDS
; Function compile flags: /Odtp
;	COMDAT ?__empty_global_delete@@YAXPEAX@Z
_TEXT	SEGMENT
__formal$ = 8
?__empty_global_delete@@YAXPEAX@Z PROC			; __empty_global_delete, COMDAT
; File e:\g12_work\weidali_code\b\g12_4_b\ui\src\usermanagementui\x64\debug\moc\moc_usermanagementuidlg.cpp
; Line 127
	mov	QWORD PTR [rsp+8], rcx
	ret	0
?__empty_global_delete@@YAXPEAX@Z ENDP			; __empty_global_delete
_TEXT	ENDS
END
